---
triple:          'x86_64-apple-darwin'
binary-path:     zcash-api
relocations:
  - { offsetInCU: 0x57, offset: 0x57, size: 0x8, addend: 0x0, symName: __ZN4crowL10mime_typesE, symObjAddr: 0x5A87D0, symBinAddr: 0x1001247D0, symSize: 0x0 }
  - { offsetInCU: 0x71, offset: 0x71, size: 0x8, addend: 0x0, symName: __ZN4crowL4crlfE, symObjAddr: 0x5A8818, symBinAddr: 0x100124818, symSize: 0x0 }
  - { offsetInCU: 0x90, offset: 0x90, size: 0x8, addend: 0x0, symName: __ZN4crow9multipartL2ddE, symObjAddr: 0x5A8830, symBinAddr: 0x100124830, symSize: 0x0 }
  - { offsetInCU: 0xAB, offset: 0xAB, size: 0x8, addend: 0x0, symName: __ZN4crowL7VERSIONE, symObjAddr: 0x9FD41, symBinAddr: 0x10010E7D1, symSize: 0x0 }
  - { offsetInCU: 0x823, offset: 0x823, size: 0x8, addend: 0x0, symName: __ZN4crow8mustache6detail31get_template_base_directory_refEv, symObjAddr: 0x16560, symBinAddr: 0x100019150, symSize: 0xA0 }
  - { offsetInCU: 0x84E, offset: 0x84E, size: 0x8, addend: 0x0, symName: __ZZN4crow8mustache6detail31get_template_base_directory_refEvE23template_base_directory, symObjAddr: 0x9F7D8, symBinAddr: 0x100124348, symSize: 0x0 }
  - { offsetInCU: 0x858, offset: 0x858, size: 0x8, addend: 0x0, symName: __ZN4crow8mustache6detail38get_global_template_base_directory_refEv, symObjAddr: 0x16600, symBinAddr: 0x1000191F0, symSize: 0xA0 }
  - { offsetInCU: 0x883, offset: 0x883, size: 0x8, addend: 0x0, symName: __ZZN4crow8mustache6detail38get_global_template_base_directory_refEvE23template_base_directory, symObjAddr: 0x9F7F8, symBinAddr: 0x100124368, symSize: 0x0 }
  - { offsetInCU: 0x88E, offset: 0x88E, size: 0x8, addend: 0x0, symName: __ZN4crow8mustache8set_baseERKNSt3__112basic_stringIcNS1_11char_traitsIcEENS1_9allocatorIcEEEE, symObjAddr: 0x164D0, symBinAddr: 0x1000190C0, symSize: 0x60 }
  - { offsetInCU: 0x8CD, offset: 0x8CD, size: 0x8, addend: 0x0, symName: __ZN4crow7utilityL17sanitize_filenameERNSt3__112basic_stringIcNS1_11char_traitsIcEENS1_9allocatorIcEEEEc, symObjAddr: 0x1C9D0, symBinAddr: 0x10001F5C0, symSize: 0x370 }
  - { offsetInCU: 0x8F4, offset: 0x8F4, size: 0x8, addend: 0x0, symName: __ZZN4crow7utilityL17sanitize_filenameERNSt3__112basic_stringIcNS1_11char_traitsIcEENS1_9allocatorIcEEEEcE7toUpper, symObjAddr: 0x9FFA4, symBinAddr: 0x10010E954, symSize: 0x0 }
  - { offsetInCU: 0x9C2, offset: 0x9C2, size: 0x8, addend: 0x0, symName: __ZN4crow7utilityL13string_equalsERKNSt3__112basic_stringIcNS1_11char_traitsIcEENS1_9allocatorIcEEEES9_b, symObjAddr: 0x18600, symBinAddr: 0x10001B1F0, symSize: 0x130 }
  - { offsetInCU: 0xA2B, offset: 0xA2B, size: 0x8, addend: 0x0, symName: __ZN4crow7utilityL12lexical_castINSt3__112basic_stringIcNS2_11char_traitsIcEENS2_9allocatorIcEEEEN4asio2ip14basic_endpointINSA_3tcpEEEEET_RKT0_, symObjAddr: 0x89DA0, symBinAddr: 0x10008C990, symSize: 0xF0 }
  - { offsetInCU: 0x246C, offset: 0x246C, size: 0x8, addend: 0x0, symName: __ZN4crow6detail20wrapped_handler_callIZNS_4CrowIJNS_11CORSHandlerEEE8validateEvEUlRNS_8responseENSt3__112basic_stringIcNS7_11char_traitsIcEENS7_9allocatorIcEEEEE_JSD_EEENS7_9enable_ifIXaaaantsr11black_magic10CallHelperIT_NS_11black_magic1SIJDpT0_EEEEE5valuentsr11black_magic10CallHelperISG_NSI_IJRNS_7requestESK_EEEEE5valuesr11black_magic10CallHelperISG_NSI_IJS6_SK_EEEEE5valueEvE4typeESN_S6_RKSG_DpOSJ_, symObjAddr: 0x1C8B0, symBinAddr: 0x10001F4A0, symSize: 0x80 }
  - { offsetInCU: 0x24D7, offset: 0x24D7, size: 0x8, addend: 0x0, symName: __ZN4crow6detail20wrapped_handler_callIZNS_4CrowIJNS_11CORSHandlerEEE8validateEvEUlRNS_8responseENSt3__112basic_stringIcNS7_11char_traitsIcEENS7_9allocatorIcEEEEE0_JSD_EEENS7_9enable_ifIXaaaantsr11black_magic10CallHelperIT_NS_11black_magic1SIJDpT0_EEEEE5valuentsr11black_magic10CallHelperISG_NSI_IJRNS_7requestESK_EEEEE5valuesr11black_magic10CallHelperISG_NSI_IJS6_SK_EEEEE5valueEvE4typeESN_S6_RKSG_DpOSJ_, symObjAddr: 0x21060, symBinAddr: 0x100023C50, symSize: 0x80 }
  - { offsetInCU: 0x2542, offset: 0x2542, size: 0x8, addend: 0x0, symName: __ZN4crow6detail26after_handlers_call_helperINS0_36middleware_call_criteria_only_globalELi0ENS0_7contextIJNS_11CORSHandlerEEEERNSt3__15tupleIJS4_EEEEENS6_9enable_ifIXeqT0_Li0EEvE4typeERKT_RT2_RT1_RNS_7requestERNS_8responseE, symObjAddr: 0x79D10, symBinAddr: 0x10007C900, symSize: 0x60 }
  - { offsetInCU: 0x2600, offset: 0x2600, size: 0x8, addend: 0x0, symName: __ZN4crow6detail18after_handler_callINS_11CORSHandlerENS0_7contextIJS2_EEENS0_15partial_contextIJEEEEENSt3__19enable_ifIXsr28is_after_handle_arity_3_implIT_EE5valueEvE4typeERS9_RNS_7requestERNS_8responseERT0_RT1_, symObjAddr: 0x7C0A0, symBinAddr: 0x10007EC90, symSize: 0x60 }
  - { offsetInCU: 0x2681, offset: 0x2681, size: 0x8, addend: 0x0, symName: __ZN4crow6detail22middleware_call_helperINS0_36middleware_call_criteria_only_globalELi0ENS0_7contextIJNS_11CORSHandlerEEEERNSt3__15tupleIJS4_EEEEENS6_9enable_ifIXltT0_sr3std10tuple_sizeINS6_16remove_referenceIT2_E4typeEEE5valueEbE4typeERKT_RSC_RNS_7requestERNS_8responseERT1_, symObjAddr: 0x89FF0, symBinAddr: 0x10008CBE0, symSize: 0x120 }
  - { offsetInCU: 0x2710, offset: 0x2710, size: 0x8, addend: 0x0, symName: __ZN4crow6detail22middleware_call_helperINS0_36middleware_call_criteria_only_globalELi1ENS0_7contextIJNS_11CORSHandlerEEEERNSt3__15tupleIJS4_EEEEENS6_9enable_ifIXgeT0_sr3std10tuple_sizeINS6_16remove_referenceIT2_E4typeEEE5valueEbE4typeERKT_RSC_RNS_7requestERNS_8responseERT1_, symObjAddr: 0x8E0D0, symBinAddr: 0x100090CC0, symSize: 0x30 }
  - { offsetInCU: 0x278B, offset: 0x278B, size: 0x8, addend: 0x0, symName: __ZN4crow6detail19before_handler_callINS_11CORSHandlerENS0_7contextIJS2_EEENS0_15partial_contextIJEEEEENSt3__19enable_ifIXsr29is_before_handle_arity_3_implIT_EE5valueEvE4typeERS9_RNS_7requestERNS_8responseERT0_RT1_, symObjAddr: 0x8E100, symBinAddr: 0x100090CF0, symSize: 0x60 }
  - { offsetInCU: 0x2870, offset: 0x2870, size: 0x8, addend: 0x0, symName: __ZN4crow6detail22middleware_call_helperINS0_32middleware_call_criteria_dynamicILb0EEELi0ENS0_7contextIJNS_11CORSHandlerEEEENSt3__15tupleIJS5_EEEEENS7_9enable_ifIXltT0_sr3std10tuple_sizeINS7_16remove_referenceIT2_E4typeEEE5valueEbE4typeERKT_RSC_RNS_7requestERNS_8responseERT1_, symObjAddr: 0x90670, symBinAddr: 0x100093260, symSize: 0x120 }
  - { offsetInCU: 0x28FF, offset: 0x28FF, size: 0x8, addend: 0x0, symName: __ZN4crow6detail22middleware_call_helperINS0_32middleware_call_criteria_dynamicILb0EEELi1ENS0_7contextIJNS_11CORSHandlerEEEENSt3__15tupleIJS5_EEEEENS7_9enable_ifIXgeT0_sr3std10tuple_sizeINS7_16remove_referenceIT2_E4typeEEE5valueEbE4typeERKT_RSC_RNS_7requestERNS_8responseERT1_, symObjAddr: 0x91EF0, symBinAddr: 0x100094AE0, symSize: 0x30 }
  - { offsetInCU: 0x29DE, offset: 0x29DE, size: 0x8, addend: 0x0, symName: __ZN4crow6detail26after_handlers_call_helperINS0_32middleware_call_criteria_dynamicILb1EEELi0ENS0_7contextIJNS_11CORSHandlerEEEENSt3__15tupleIJS5_EEEEENS7_9enable_ifIXeqT0_Li0EEvE4typeERKT_RT2_RT1_RNS_7requestERNS_8responseE, symObjAddr: 0x93910, symBinAddr: 0x100096500, symSize: 0x60 }
  - { offsetInCU: 0x3BBA, offset: 0x3BBA, size: 0x8, addend: 0x0, symName: __ZN4crowL14method_stringsE, symObjAddr: 0xA29E0, symBinAddr: 0x100122140, symSize: 0x0 }
  - { offsetInCU: 0x3BC7, offset: 0x3BC7, size: 0x8, addend: 0x0, symName: __ZN4crow16get_header_valueINSt3__118unordered_multimapINS1_12basic_stringIcNS1_11char_traitsIcEENS1_9allocatorIcEEEES8_NS_7ci_hashENS_9ci_key_eqENS6_INS1_4pairIKS8_S8_EEEEEEEERSC_RKT_SG_, symObjAddr: 0x7CC30, symBinAddr: 0x10007F820, symSize: 0xC0 }
  - { offsetInCU: 0x3BF2, offset: 0x3BF2, size: 0x8, addend: 0x0, symName: __ZZN4crow16get_header_valueINSt3__118unordered_multimapINS1_12basic_stringIcNS1_11char_traitsIcEENS1_9allocatorIcEEEES8_NS_7ci_hashENS_9ci_key_eqENS6_INS1_4pairIKS8_S8_EEEEEEEERSC_RKT_SG_E5empty, symObjAddr: 0x9F918, symBinAddr: 0x100124488, symSize: 0x0 }
  - { offsetInCU: 0x3C23, offset: 0x3C23, size: 0x8, addend: 0x0, symName: __ZN4crow19http_parser_executeEPNS_11http_parserEPKNS_20http_parser_settingsEPKcm, symObjAddr: 0x62DE0, symBinAddr: 0x1000659D0, symSize: 0x51B0 }
  - { offsetInCU: 0x3C4E, offset: 0x3C4E, size: 0x8, addend: 0x0, symName: __ZZN4crow19http_parser_executeEPNS_11http_parserEPKNS_20http_parser_settingsEPKcmE6tokens, symObjAddr: 0xA1500, symBinAddr: 0x10010FEB0, symSize: 0x0 }
  - { offsetInCU: 0x3C64, offset: 0x3C64, size: 0x8, addend: 0x0, symName: __ZZN4crow19http_parser_executeEPNS_11http_parserEPKNS_20http_parser_settingsEPKcmE5unhex, symObjAddr: 0xA1600, symBinAddr: 0x10010FFB0, symSize: 0x0 }
  - { offsetInCU: 0x3EEA, offset: 0x3EEA, size: 0x8, addend: 0x0, symName: __ZN4crowL15max_header_sizeE, symObjAddr: 0x9FA28, symBinAddr: 0x100124598, symSize: 0x0 }
  - { offsetInCU: 0x3EF7, offset: 0x3EF7, size: 0x8, addend: 0x0, symName: __ZN4crow14parse_url_charENS_5stateEcPNS_11http_parserEPKcS4_, symObjAddr: 0x93B70, symBinAddr: 0x100096760, symSize: 0x460 }
  - { offsetInCU: 0x3F22, offset: 0x3F22, size: 0x8, addend: 0x0, symName: __ZZN4crow14parse_url_charENS_5stateEcPNS_11http_parserEPKcS4_E15normal_url_char, symObjAddr: 0xA1700, symBinAddr: 0x1001100B0, symSize: 0x0 }
  - { offsetInCU: 0x3F77, offset: 0x3F77, size: 0x8, addend: 0x0, symName: __ZN4crow22http_errno_descriptionENS_10http_errnoE, symObjAddr: 0x62880, symBinAddr: 0x100065470, symSize: 0x70 }
  - { offsetInCU: 0x3FA2, offset: 0x3FA2, size: 0x8, addend: 0x0, symName: __ZZN4crow22http_errno_descriptionENS_10http_errnoEE17http_strerror_tab, symObjAddr: 0x9FA30, symBinAddr: 0x1001245A0, symSize: 0x0 }
  - { offsetInCU: 0x44AD, offset: 0x44AD, size: 0x8, addend: 0x0, symName: __ZN4crow16http_parser_initEPNS_11http_parserE, symObjAddr: 0x58360, symBinAddr: 0x10005AF50, symSize: 0x70 }
  - { offsetInCU: 0x44E6, offset: 0x44E6, size: 0x8, addend: 0x0, symName: __ZN4crow8qs_parseEPcPS0_mb, symObjAddr: 0x68AD0, symBinAddr: 0x10006B6C0, symSize: 0x210 }
  - { offsetInCU: 0x456E, offset: 0x456E, size: 0x8, addend: 0x0, symName: __ZN4crow9qs_decodeEPc, symObjAddr: 0x6A290, symBinAddr: 0x10006CE80, symSize: 0x500 }
  - { offsetInCU: 0x45BA, offset: 0x45BA, size: 0x8, addend: 0x0, symName: __ZN4crow11method_nameENS_10HTTPMethodE, symObjAddr: 0x6C280, symBinAddr: 0x10006EE70, symSize: 0x70 }
  - { offsetInCU: 0xD847, offset: 0xD847, size: 0x8, addend: 0x0, symName: __ZNSt3__16chronomiB7v160006IxNS_5ratioILl1ELl1000000000EEExS3_EENS_11common_typeIJNS0_8durationIT_T0_EENS5_IT1_T2_EEEE4typeERKS8_RKSB_, symObjAddr: 0x3DA90, symBinAddr: 0x100040680, symSize: 0x70 }
  - { offsetInCU: 0xDB53, offset: 0xDB53, size: 0x8, addend: 0x0, symName: __ZNSt3__16chronoplB7v160006INS0_12steady_clockENS0_8durationIxNS_5ratioILl1ELl1000000000EEEEExS5_EENS0_10time_pointIT_NS_11common_typeIJT0_NS3_IT1_T2_EEEE4typeEEERKNS7_IS8_SA_EERKSD_, symObjAddr: 0x52630, symBinAddr: 0x100055220, symSize: 0x50 }
  - { offsetInCU: 0xDBBD, offset: 0xDBBD, size: 0x8, addend: 0x0, symName: __ZNSt3__16chronoplB7v160006IxNS_5ratioILl1ELl1000000000EEExS3_EENS_11common_typeIJNS0_8durationIT_T0_EENS5_IT1_T2_EEEE4typeERKS8_RKSB_, symObjAddr: 0x52680, symBinAddr: 0x100055270, symSize: 0x70 }
  - { offsetInCU: 0xDC76, offset: 0xDC76, size: 0x8, addend: 0x0, symName: __ZNSt3__16chronoplB7v160006INS0_12steady_clockENS0_8durationIxNS_5ratioILl1ELl1000000000EEEEExNS4_ILl1ELl1EEEEENS0_10time_pointIT_NS_11common_typeIJT0_NS3_IT1_T2_EEEE4typeEEERKNS8_IS9_SB_EERKSE_, symObjAddr: 0x5E0C0, symBinAddr: 0x100060CB0, symSize: 0x50 }
  - { offsetInCU: 0xDCE0, offset: 0xDCE0, size: 0x8, addend: 0x0, symName: __ZNSt3__16chronoplB7v160006IxNS_5ratioILl1ELl1000000000EEExNS2_ILl1ELl1EEEEENS_11common_typeIJNS0_8durationIT_T0_EENS6_IT1_T2_EEEE4typeERKS9_RKSC_, symObjAddr: 0x5F0A0, symBinAddr: 0x100061C90, symSize: 0x70 }
  - { offsetInCU: 0xE118, offset: 0xE118, size: 0x8, addend: 0x0, symName: __ZNSt3__16chronoltB7v160006INS0_12steady_clockENS0_8durationIxNS_5ratioILl1ELl1000000000EEEEES6_EEbRKNS0_10time_pointIT_T0_EERKNS7_IS8_T1_EE, symObjAddr: 0x71B0, symBinAddr: 0x100009DA0, symSize: 0x50 }
  - { offsetInCU: 0xE16E, offset: 0xE16E, size: 0x8, addend: 0x0, symName: __ZNSt3__16chronoltB7v160006IxNS_5ratioILl1ELl1000000000EEExS3_EEbRKNS0_8durationIT_T0_EERKNS4_IT1_T2_EE, symObjAddr: 0x7200, symBinAddr: 0x100009DF0, symSize: 0x30 }
  - { offsetInCU: 0xE20D, offset: 0xE20D, size: 0x8, addend: 0x0, symName: __ZNSt3__16chronogeB7v160006INS0_12steady_clockENS0_8durationIxNS_5ratioILl1ELl1000000000EEEEES6_EEbRKNS0_10time_pointIT_T0_EERKNS7_IS8_T1_EE, symObjAddr: 0x3D7B0, symBinAddr: 0x1000403A0, symSize: 0x30 }
  - { offsetInCU: 0xE264, offset: 0xE264, size: 0x8, addend: 0x0, symName: __ZNSt3__16chronomiB7v160006INS0_12steady_clockENS0_8durationIxNS_5ratioILl1ELl1000000000EEEEES6_EENS_11common_typeIJT0_T1_EE4typeERKNS0_10time_pointIT_S8_EERKNSC_ISD_S9_EE, symObjAddr: 0x3D7E0, symBinAddr: 0x1000403D0, symSize: 0x50 }
  - { offsetInCU: 0xE2BB, offset: 0xE2BB, size: 0x8, addend: 0x0, symName: __ZNSt3__16chronoeqB7v160006INS0_12steady_clockENS0_8durationIxNS_5ratioILl1ELl1000000000EEEEES6_EEbRKNS0_10time_pointIT_T0_EERKNS7_IS8_T1_EE, symObjAddr: 0x3D830, symBinAddr: 0x100040420, symSize: 0x50 }
  - { offsetInCU: 0xE354, offset: 0xE354, size: 0x8, addend: 0x0, symName: __ZNSt3__16chronoeqB7v160006IxNS_5ratioILl1ELl1000000000EEExS3_EEbRKNS0_8durationIT_T0_EERKNS4_IT1_T2_EE, symObjAddr: 0x3DB00, symBinAddr: 0x1000406F0, symSize: 0x30 }
  - { offsetInCU: 0xE3F2, offset: 0xE3F2, size: 0x8, addend: 0x0, symName: __ZNSt3__16chronogeB7v160006IxNS_5ratioILl1ELl1000000000EEExNS2_ILl1ELl1EEEEEbRKNS0_8durationIT_T0_EERKNS5_IT1_T2_EE, symObjAddr: 0x48920, symBinAddr: 0x10004B510, symSize: 0x30 }
  - { offsetInCU: 0xE453, offset: 0xE453, size: 0x8, addend: 0x0, symName: __ZNSt3__16chronoltB7v160006IxNS_5ratioILl1ELl1000000000EEExNS2_ILl1ELl1EEEEEbRKNS0_8durationIT_T0_EERKNS5_IT1_T2_EE, symObjAddr: 0x48980, symBinAddr: 0x10004B570, symSize: 0x30 }
  - { offsetInCU: 0xE4B5, offset: 0xE4B5, size: 0x8, addend: 0x0, symName: __ZNSt3__16chrono13duration_castB7v160006INS0_8durationIxNS_5ratioILl1ELl1000000000EEEEExNS3_ILl1ELl1EEEEENS_9enable_ifIXsr13__is_durationIT_EE5valueES8_E4typeERKNS2_IT0_T1_EE, symObjAddr: 0x48A90, symBinAddr: 0x10004B680, symSize: 0x30 }
  - { offsetInCU: 0xE4FC, offset: 0xE4FC, size: 0x8, addend: 0x0, symName: __ZNSt3__16chronogtB7v160006IxNS_5ratioILl1ELl1000000000EEExS3_EEbRKNS0_8durationIT_T0_EERKNS4_IT1_T2_EE, symObjAddr: 0x52600, symBinAddr: 0x1000551F0, symSize: 0x30 }
  - { offsetInCU: 0xE55E, offset: 0xE55E, size: 0x8, addend: 0x0, symName: __ZNSt3__16chrono13duration_castB7v160006INS0_8durationIxNS_5ratioILl1ELl1000000000EEEEExNS3_ILl1ELl1000EEEEENS_9enable_ifIXsr13__is_durationIT_EE5valueES8_E4typeERKNS2_IT0_T1_EE, symObjAddr: 0x52760, symBinAddr: 0x100055350, symSize: 0x30 }
  - { offsetInCU: 0x11FB4, offset: 0x11FB4, size: 0x8, addend: 0x0, symName: __ZNSt3__1L19piecewise_constructE, symObjAddr: 0x9FFA3, symBinAddr: 0x10010E953, symSize: 0x0 }
  - { offsetInCU: 0x1B8FD, offset: 0x1B8FD, size: 0x8, addend: 0x0, symName: __ZNSt3__112placeholdersL2_1E, symObjAddr: 0xA0BB7, symBinAddr: 0x10010F567, symSize: 0x0 }
  - { offsetInCU: 0x247A5, offset: 0x247A5, size: 0x8, addend: 0x0, symName: __ZNSt3__110__function10__not_nullB7v160006IZN4crow10TaggedRuleIJNS_12basic_stringIcNS_11char_traitsIcEENS_9allocatorIcEEEEEEclIZNS2_4CrowIJNS2_11CORSHandlerEEE8validateEvEUlRNS2_8responseES9_E_EEvOT_EUlRNS2_7requestESG_S9_E_EEbRKSI_, symObjAddr: 0x1B080, symBinAddr: 0x10001DC70, symSize: 0x20 }
  - { offsetInCU: 0x247D7, offset: 0x247D7, size: 0x8, addend: 0x0, symName: __ZNSt3__110__function10__not_nullB7v160006IZN4crow10TaggedRuleIJNS_12basic_stringIcNS_11char_traitsIcEENS_9allocatorIcEEEEEEclIZNS2_4CrowIJNS2_11CORSHandlerEEE8validateEvEUlRNS2_8responseES9_E0_EEvOT_EUlRNS2_7requestESG_S9_E_EEbRKSI_, symObjAddr: 0x1F880, symBinAddr: 0x100022470, symSize: 0x20 }
  - { offsetInCU: 0x24809, offset: 0x24809, size: 0x8, addend: 0x0, symName: __ZNSt3__110__function10__not_nullB7v160006IZZN4crow6ServerINS2_4CrowIJNS2_11CORSHandlerEEEENS2_13SocketAdaptorEJS5_EE3runEvENKUlvE_clEvEUlvE0_EEbRKT_, symObjAddr: 0x47380, symBinAddr: 0x100049F70, symSize: 0x20 }
  - { offsetInCU: 0x2483B, offset: 0x2483B, size: 0x8, addend: 0x0, symName: __ZNSt3__110__function10__not_nullB7v160006IZN4crow10ConnectionINS2_13SocketAdaptorENS2_4CrowIJNS2_11CORSHandlerEEEEJS6_EE14start_deadlineEvEUlvE_EEbRKT_, symObjAddr: 0x5F380, symBinAddr: 0x100061F70, symSize: 0x20 }
  - { offsetInCU: 0x2486D, offset: 0x2486D, size: 0x8, addend: 0x0, symName: __ZNSt3__110__function10__not_nullB7v160006IZN4crow10ConnectionINS2_13SocketAdaptorENS2_4CrowIJNS2_11CORSHandlerEEEEJS6_EE6handleEvEUlvE_EEbRKT_, symObjAddr: 0x8C620, symBinAddr: 0x10008F210, symSize: 0x20 }
  - { offsetInCU: 0x2489F, offset: 0x2489F, size: 0x8, addend: 0x0, symName: __ZNSt3__110__function10__not_nullB7v160006IZN4crow10ConnectionINS2_13SocketAdaptorENS2_4CrowIJNS2_11CORSHandlerEEEEJS6_EE6handleEvEUlvE0_EEbRKT_, symObjAddr: 0x8E380, symBinAddr: 0x100090F70, symSize: 0x20 }
  - { offsetInCU: 0x248D1, offset: 0x248D1, size: 0x8, addend: 0x0, symName: __ZNSt3__110__function10__not_nullB7v160006IZN4crow6Router11handle_ruleINS2_4CrowIJNS2_11CORSHandlerEEEEEENS_9enable_ifIXnesr3std10tuple_sizeINT_14mw_container_tEEE5valueLi0EEvE4typeEPNS2_8BaseRuleERNS2_7requestERNS2_8responseERKNS2_14routing_paramsEEUlvE_EEbRKS9_, symObjAddr: 0x90A60, symBinAddr: 0x100093650, symSize: 0x20 }
  - { offsetInCU: 0x24903, offset: 0x24903, size: 0x8, addend: 0x0, symName: __ZNSt3__110__function10__not_nullB7v160006IZN4crow6Router11handle_ruleINS2_4CrowIJNS2_11CORSHandlerEEEEEENS_9enable_ifIXnesr3std10tuple_sizeINT_14mw_container_tEEE5valueLi0EEvE4typeEPNS2_8BaseRuleERNS2_7requestERNS2_8responseERKNS2_14routing_paramsEEUlvE0_EEbRKS9_, symObjAddr: 0x921D0, symBinAddr: 0x100094DC0, symSize: 0x20 }
  - { offsetInCU: 0x4C982, offset: 0x4C982, size: 0x8, addend: 0x0, symName: __ZNSt3__124__put_character_sequenceB7v160006IcNS_11char_traitsIcEEEERNS_13basic_ostreamIT_T0_EES7_PKS4_m, symObjAddr: 0xF630, symBinAddr: 0x100012220, symSize: 0x1F0 }
  - { offsetInCU: 0x4CCB2, offset: 0x4CCB2, size: 0x8, addend: 0x0, symName: __ZNSt3__16copy_nB7v160006IPKcmPcEENS_9enable_ifIXsr33__is_cpp17_random_access_iteratorIT_EE5valueET1_E4typeES5_T0_S6_, symObjAddr: 0x15E20, symBinAddr: 0x100018A10, symSize: 0x40 }
  - { offsetInCU: 0x4FF03, offset: 0x4FF03, size: 0x8, addend: 0x0, symName: __ZNSt3__17advanceB7v160006INS_11__wrap_iterIPKiEEllvEEvRT_T0_, symObjAddr: 0x26250, symBinAddr: 0x100028E40, symSize: 0x50 }
  - { offsetInCU: 0x508AE, offset: 0x508AE, size: 0x8, addend: 0x0, symName: __ZNSt3__117__cxx_atomic_loadB7v160006IlEET_PKNS_22__cxx_atomic_base_implIS1_EENS_12memory_orderE, symObjAddr: 0x30890, symBinAddr: 0x100033480, symSize: 0x70 }
  - { offsetInCU: 0x53380, offset: 0x53380, size: 0x8, addend: 0x0, symName: __ZNSt3__15asyncB7v160006IZN4crow6ServerINS1_4CrowIJNS1_11CORSHandlerEEEENS1_13SocketAdaptorEJS4_EE3runEvEUlvE_JEEENS_6futureINS_11__invoke_ofINS_5decayIT_E4typeEJDpNSB_IT0_E4typeEEE4typeEEENS_6launchEOSC_DpOSF_, symObjAddr: 0x3FCA0, symBinAddr: 0x100042890, symSize: 0x170 }
  - { offsetInCU: 0x576EE, offset: 0x576EE, size: 0x8, addend: 0x0, symName: __ZNSt3__117__cxx_atomic_loadB7v160006IiEET_PKNS_22__cxx_atomic_base_implIS1_EENS_12memory_orderE, symObjAddr: 0x56FF0, symBinAddr: 0x100059BE0, symSize: 0x70 }
  - { offsetInCU: 0x5774B, offset: 0x5774B, size: 0x8, addend: 0x0, symName: __ZNSt3__117__cxx_atomic_loadB7v160006IjEET_PKNS_22__cxx_atomic_base_implIS1_EENS_12memory_orderE, symObjAddr: 0x57480, symBinAddr: 0x10005A070, symSize: 0x70 }
  - { offsetInCU: 0x5AA33, offset: 0x5AA33, size: 0x8, addend: 0x0, symName: __ZNSt3__17advanceB7v160006INS_11__wrap_iterIPKN4asio12const_bufferEEEmmvEEvRT_T0_, symObjAddr: 0x842F0, symBinAddr: 0x100086EE0, symSize: 0x50 }
  - { offsetInCU: 0x66FA4, offset: 0x66FA4, size: 0x8, addend: 0x0, symName: __ZNSt3__1lsB7v160006INS_11char_traitsIcEEEERNS_13basic_ostreamIcT_EES6_PKc, symObjAddr: 0x15D0, symBinAddr: 0x1000041C0, symSize: 0x40 }
  - { offsetInCU: 0x66FEA, offset: 0x66FEA, size: 0x8, addend: 0x0, symName: __ZNSt3__14endlB7v160006IcNS_11char_traitsIcEEEERNS_13basic_ostreamIT_T0_EES7_, symObjAddr: 0x1630, symBinAddr: 0x100004220, symSize: 0x50 }
  - { offsetInCU: 0x6702B, offset: 0x6702B, size: 0x8, addend: 0x0, symName: __ZNSt3__1neB7v160006ERKNS_16__deque_iteratorINS_10unique_ptrIN4pqxx10connectionENS_14default_deleteIS3_EEEEPS6_RS6_PS7_lLl512EEESC_, symObjAddr: 0x3850, symBinAddr: 0x100006440, symSize: 0x30 }
  - { offsetInCU: 0x6706E, offset: 0x6706E, size: 0x8, addend: 0x0, symName: __ZNSt3__1eqB7v160006ERKNS_16__deque_iteratorINS_10unique_ptrIN4pqxx10connectionENS_14default_deleteIS3_EEEEPS6_RS6_PS7_lLl512EEESC_, symObjAddr: 0x3AB0, symBinAddr: 0x1000066A0, symSize: 0x30 }
  - { offsetInCU: 0x6713D, offset: 0x6713D, size: 0x8, addend: 0x0, symName: __ZNSt3__17launderB7v160006INS_4pairIKNS_12basic_stringIcNS_11char_traitsIcEENS_9allocatorIcEEEEPN4pqxx21notification_receiverEEEEEPT_SE_, symObjAddr: 0x3FA0, symBinAddr: 0x100006B90, symSize: 0x20 }
  - { offsetInCU: 0x67174, offset: 0x67174, size: 0x8, addend: 0x0, symName: __ZNSt3__19__launderB7v160006INS_4pairIKNS_12basic_stringIcNS_11char_traitsIcEENS_9allocatorIcEEEEPN4pqxx21notification_receiverEEEEEPT_SE_, symObjAddr: 0x3FC0, symBinAddr: 0x100006BB0, symSize: 0x10 }
  - { offsetInCU: 0x671AB, offset: 0x671AB, size: 0x8, addend: 0x0, symName: __ZNSt3__119__libcpp_deallocateB7v160006EPvmm, symObjAddr: 0x4010, symBinAddr: 0x100006C00, symSize: 0x60 }
  - { offsetInCU: 0x67210, offset: 0x67210, size: 0x8, addend: 0x0, symName: __ZNSt3__124__is_overaligned_for_newB7v160006Em, symObjAddr: 0x4070, symBinAddr: 0x100006C60, symSize: 0x20 }
  - { offsetInCU: 0x6723E, offset: 0x6723E, size: 0x8, addend: 0x0, symName: __ZNSt3__127__do_deallocate_handle_sizeB7v160006IJSt11align_val_tEEEvPvmDpT_, symObjAddr: 0x4090, symBinAddr: 0x100006C80, symSize: 0x30 }
  - { offsetInCU: 0x67291, offset: 0x67291, size: 0x8, addend: 0x0, symName: __ZNSt3__127__do_deallocate_handle_sizeB7v160006IJEEEvPvmDpT_, symObjAddr: 0x40C0, symBinAddr: 0x100006CB0, symSize: 0x20 }
  - { offsetInCU: 0x672CF, offset: 0x672CF, size: 0x8, addend: 0x0, symName: __ZNSt3__124__libcpp_operator_deleteB7v160006IJPvSt11align_val_tEEEvDpT_, symObjAddr: 0x40E0, symBinAddr: 0x100006CD0, symSize: 0x30 }
  - { offsetInCU: 0x67318, offset: 0x67318, size: 0x8, addend: 0x0, symName: __ZNSt3__124__libcpp_operator_deleteB7v160006IJPvEEEvDpT_, symObjAddr: 0x4110, symBinAddr: 0x100006D00, symSize: 0x20 }
  - { offsetInCU: 0x67381, offset: 0x67381, size: 0x8, addend: 0x0, symName: __ZNSt3__118__debug_db_erase_cB7v160006INS_10__list_impIPN4pqxx12errorhandlerENS_9allocatorIS4_EEEEEEvPT_, symObjAddr: 0x42F0, symBinAddr: 0x100006EE0, symSize: 0x10 }
  - { offsetInCU: 0x67443, offset: 0x67443, size: 0x8, addend: 0x0, symName: __ZNSt3__125__debug_db_invalidate_allB7v160006INS_10__list_impIPN4pqxx12errorhandlerENS_9allocatorIS4_EEEEEEvPT_, symObjAddr: 0x4460, symBinAddr: 0x100007050, symSize: 0x10 }
  - { offsetInCU: 0x674AB, offset: 0x674AB, size: 0x8, addend: 0x0, symName: __ZNSt3__112__to_addressB7v160006IPNS_10unique_ptrIN4pqxx10connectionENS_14default_deleteIS3_EEEEEEPT_S9_, symObjAddr: 0x4870, symBinAddr: 0x100007460, symSize: 0x10 }
  - { offsetInCU: 0x674E0, offset: 0x674E0, size: 0x8, addend: 0x0, symName: __ZNSt3__1plB7v160006IcNS_11char_traitsIcEENS_9allocatorIcEEEENS_12basic_stringIT_T0_T1_EEOS9_PKS6_, symObjAddr: 0x4B20, symBinAddr: 0x100007710, symSize: 0x50 }
  - { offsetInCU: 0x67539, offset: 0x67539, size: 0x8, addend: 0x0, symName: __ZNSt3__119__debug_db_insert_cB7v160006INS_12basic_stringIcNS_11char_traitsIcEENS_9allocatorIcEEEEEEvPT_, symObjAddr: 0x4D80, symBinAddr: 0x100007970, symSize: 0x10 }
  - { offsetInCU: 0x6756E, offset: 0x6756E, size: 0x8, addend: 0x0, symName: __ZNSt3__115__debug_db_swapB7v160006INS_12basic_stringIcNS_11char_traitsIcEENS_9allocatorIcEEEEEEvPT_S8_, symObjAddr: 0x4D90, symBinAddr: 0x100007980, symSize: 0x10 }
  - { offsetInCU: 0x675B3, offset: 0x675B3, size: 0x8, addend: 0x0, symName: __ZNSt3__118__debug_db_erase_cB7v160006INS_6vectorIPN4crow9websocket10connectionENS_9allocatorIS5_EEEEEEvPT_, symObjAddr: 0x5110, symBinAddr: 0x100007D00, symSize: 0x10 }
  - { offsetInCU: 0x675E8, offset: 0x675E8, size: 0x8, addend: 0x0, symName: __ZNSt3__112__to_addressB7v160006IPN4crow9websocket10connectionEEEPT_S6_, symObjAddr: 0x5220, symBinAddr: 0x100007E10, symSize: 0x10 }
  - { offsetInCU: 0x6761E, offset: 0x6761E, size: 0x8, addend: 0x0, symName: __ZNSt3__118__debug_db_erase_cB7v160006INS_6vectorIiNS_9allocatorIiEEEEEEvPT_, symObjAddr: 0x5580, symBinAddr: 0x100008170, symSize: 0x10 }
  - { offsetInCU: 0x67653, offset: 0x67653, size: 0x8, addend: 0x0, symName: __ZNSt3__112__to_addressB7v160006IiEEPT_S2_, symObjAddr: 0x5690, symBinAddr: 0x100008280, symSize: 0x10 }
  - { offsetInCU: 0x67689, offset: 0x67689, size: 0x8, addend: 0x0, symName: __ZNSt3__118__debug_db_erase_cB7v160006INS_6vectorINS_6atomicIjEENS_9allocatorIS3_EEEEEEvPT_, symObjAddr: 0x5D20, symBinAddr: 0x100008910, symSize: 0x10 }
  - { offsetInCU: 0x676BE, offset: 0x676BE, size: 0x8, addend: 0x0, symName: __ZNSt3__112__to_addressB7v160006INS_6atomicIjEEEEPT_S4_, symObjAddr: 0x5E30, symBinAddr: 0x100008A20, symSize: 0x10 }
  - { offsetInCU: 0x6772B, offset: 0x6772B, size: 0x8, addend: 0x0, symName: __ZNSt3__112__to_addressB7v160006IN4asio6detail11timer_queueINS2_18chrono_time_traitsINS_6chrono12steady_clockENS1_11wait_traitsIS6_EEEEE10heap_entryEEEPT_SD_, symObjAddr: 0x70A0, symBinAddr: 0x100009C90, symSize: 0x10 }
  - { offsetInCU: 0x67760, offset: 0x67760, size: 0x8, addend: 0x0, symName: __ZNSt3__1eqB7v160006ERKNS_10error_codeES2_, symObjAddr: 0x8B40, symBinAddr: 0x10000B730, symSize: 0x80 }
  - { offsetInCU: 0x6779E, offset: 0x6779E, size: 0x8, addend: 0x0, symName: __ZNSt3__118__debug_db_erase_cB7v160006INS_6vectorINS_8functionIFNS_12basic_stringIcNS_11char_traitsIcEENS_9allocatorIcEEEEvEEENS6_ISA_EEEEEEvPT_, symObjAddr: 0x90C0, symBinAddr: 0x10000BCB0, symSize: 0x10 }
  - { offsetInCU: 0x677D3, offset: 0x677D3, size: 0x8, addend: 0x0, symName: __ZNSt3__112__to_addressB7v160006INS_8functionIFNS_12basic_stringIcNS_11char_traitsIcEENS_9allocatorIcEEEEvEEEEEPT_SB_, symObjAddr: 0x91F0, symBinAddr: 0x10000BDE0, symSize: 0x10 }
  - { offsetInCU: 0x67809, offset: 0x67809, size: 0x8, addend: 0x0, symName: __ZNSt3__118__debug_db_erase_cB7v160006INS_6vectorIPN4crow6detail10task_timerENS_9allocatorIS5_EEEEEEvPT_, symObjAddr: 0x9630, symBinAddr: 0x10000C220, symSize: 0x10 }
  - { offsetInCU: 0x6783E, offset: 0x6783E, size: 0x8, addend: 0x0, symName: __ZNSt3__112__to_addressB7v160006IPN4crow6detail10task_timerEEEPT_S6_, symObjAddr: 0x9740, symBinAddr: 0x10000C330, symSize: 0x10 }
  - { offsetInCU: 0x67874, offset: 0x67874, size: 0x8, addend: 0x0, symName: __ZNSt3__118__debug_db_erase_cB7v160006INS_6vectorINS_10unique_ptrIN4asio10io_contextENS_14default_deleteIS4_EEEENS_9allocatorIS7_EEEEEEvPT_, symObjAddr: 0x9AA0, symBinAddr: 0x10000C690, symSize: 0x10 }
  - { offsetInCU: 0x678A9, offset: 0x678A9, size: 0x8, addend: 0x0, symName: __ZNSt3__112__to_addressB7v160006INS_10unique_ptrIN4asio10io_contextENS_14default_deleteIS3_EEEEEEPT_S8_, symObjAddr: 0x9BB0, symBinAddr: 0x10000C7A0, symSize: 0x10 }
  - { offsetInCU: 0x678DF, offset: 0x678DF, size: 0x8, addend: 0x0, symName: __ZNSt3__118__debug_db_erase_cB7v160006INS_6vectorINS_4pairINS_12basic_stringIcNS_11char_traitsIcEENS_9allocatorIcEEEEN4crow9CORSRulesEEENS6_ISB_EEEEEEvPT_, symObjAddr: 0xA460, symBinAddr: 0x10000D050, symSize: 0x10 }
  - { offsetInCU: 0x67914, offset: 0x67914, size: 0x8, addend: 0x0, symName: __ZNSt3__112__to_addressB7v160006INS_4pairINS_12basic_stringIcNS_11char_traitsIcEENS_9allocatorIcEEEEN4crow9CORSRulesEEEEEPT_SC_, symObjAddr: 0xA590, symBinAddr: 0x10000D180, symSize: 0x10 }
  - { offsetInCU: 0x6794A, offset: 0x6794A, size: 0x8, addend: 0x0, symName: __ZNSt3__118__debug_db_erase_cB7v160006INS_6vectorIPN4crow9BlueprintENS_9allocatorIS4_EEEEEEvPT_, symObjAddr: 0xAAD0, symBinAddr: 0x10000D6C0, symSize: 0x10 }
  - { offsetInCU: 0x6797F, offset: 0x6797F, size: 0x8, addend: 0x0, symName: __ZNSt3__112__to_addressB7v160006IPN4crow9BlueprintEEEPT_S5_, symObjAddr: 0xABE0, symBinAddr: 0x10000D7D0, symSize: 0x10 }
  - { offsetInCU: 0x679B5, offset: 0x679B5, size: 0x8, addend: 0x0, symName: __ZNSt3__118__debug_db_erase_cB7v160006INS_6vectorINS_10unique_ptrIN4crow8BaseRuleENS_14default_deleteIS4_EEEENS_9allocatorIS7_EEEEEEvPT_, symObjAddr: 0xAF40, symBinAddr: 0x10000DB30, symSize: 0x10 }
  - { offsetInCU: 0x679EA, offset: 0x679EA, size: 0x8, addend: 0x0, symName: __ZNSt3__112__to_addressB7v160006INS_10unique_ptrIN4crow8BaseRuleENS_14default_deleteIS3_EEEEEEPT_S8_, symObjAddr: 0xB050, symBinAddr: 0x10000DC40, symSize: 0x10 }
  - { offsetInCU: 0x67A20, offset: 0x67A20, size: 0x8, addend: 0x0, symName: __ZNSt3__118__debug_db_erase_cB7v160006INS_6vectorIN4crow4Trie4NodeENS_9allocatorIS4_EEEEEEvPT_, symObjAddr: 0xB680, symBinAddr: 0x10000E270, symSize: 0x10 }
  - { offsetInCU: 0x67A55, offset: 0x67A55, size: 0x8, addend: 0x0, symName: __ZNSt3__112__to_addressB7v160006IN4crow4Trie4NodeEEEPT_S5_, symObjAddr: 0xB790, symBinAddr: 0x10000E380, symSize: 0x10 }
  - { offsetInCU: 0x67A8B, offset: 0x67A8B, size: 0x8, addend: 0x0, symName: __ZNSt3__118__debug_db_erase_cB7v160006INS_6vectorIPN4crow8BaseRuleENS_9allocatorIS4_EEEEEEvPT_, symObjAddr: 0xBB00, symBinAddr: 0x10000E6F0, symSize: 0x10 }
  - { offsetInCU: 0x67AC0, offset: 0x67AC0, size: 0x8, addend: 0x0, symName: __ZNSt3__112__to_addressB7v160006IPN4crow8BaseRuleEEEPT_S5_, symObjAddr: 0xBC10, symBinAddr: 0x10000E800, symSize: 0x10 }
  - { offsetInCU: 0x67AF6, offset: 0x67AF6, size: 0x8, addend: 0x0, symName: __ZNSt3__118__constexpr_strlenB7v160006EPKc, symObjAddr: 0xC010, symBinAddr: 0x10000EC00, symSize: 0x20 }
  - { offsetInCU: 0x67B26, offset: 0x67B26, size: 0x8, addend: 0x0, symName: __ZNSt3__119__debug_db_insert_cB7v160006INS_13unordered_mapINS_12basic_stringIcNS_11char_traitsIcEENS_9allocatorIcEEEES7_NS_4hashIS7_EENS_8equal_toIS7_EENS5_INS_4pairIKS7_S7_EEEEEEEEvPT_, symObjAddr: 0xC0E0, symBinAddr: 0x10000ECD0, symSize: 0x10 }
  - { offsetInCU: 0x67B5B, offset: 0x67B5B, size: 0x8, addend: 0x0, symName: __ZNSt3__116__constrain_hashB7v160006Emm, symObjAddr: 0xCDC0, symBinAddr: 0x10000F9B0, symSize: 0x80 }
  - { offsetInCU: 0x67B97, offset: 0x67B97, size: 0x8, addend: 0x0, symName: __ZNSt3__13maxB7v160006ImEERKT_S3_S3_, symObjAddr: 0xD0C0, symBinAddr: 0x10000FCB0, symSize: 0x30 }
  - { offsetInCU: 0x67BE0, offset: 0x67BE0, size: 0x8, addend: 0x0, symName: __ZNSt3__116__is_hash_power2B7v160006Em, symObjAddr: 0xD0F0, symBinAddr: 0x10000FCE0, symSize: 0x40 }
  - { offsetInCU: 0x67C0C, offset: 0x67C0C, size: 0x8, addend: 0x0, symName: __ZNSt3__116__do_string_hashB7v160006IPKcEEmT_S3_, symObjAddr: 0xD320, symBinAddr: 0x10000FF10, symSize: 0x40 }
  - { offsetInCU: 0x67C53, offset: 0x67C53, size: 0x8, addend: 0x0, symName: __ZNSt3__110__loadwordB7v160006ImEET_PKv, symObjAddr: 0xDC40, symBinAddr: 0x100010830, symSize: 0x20 }
  - { offsetInCU: 0x67C98, offset: 0x67C98, size: 0x8, addend: 0x0, symName: __ZNSt3__14swapB7v160006ImEENS_9enable_ifIXaasr21is_move_constructibleIT_EE5valuesr18is_move_assignableIS2_EE5valueEvE4typeERS2_S5_, symObjAddr: 0xDE00, symBinAddr: 0x1000109F0, symSize: 0x40 }
  - { offsetInCU: 0x67CF1, offset: 0x67CF1, size: 0x8, addend: 0x0, symName: __ZNSt3__110__loadwordB7v160006IjEET_PKv, symObjAddr: 0xDE90, symBinAddr: 0x100010A80, symSize: 0x20 }
  - { offsetInCU: 0x67D36, offset: 0x67D36, size: 0x8, addend: 0x0, symName: __ZNSt3__112__to_addressB7v160006IKcEEPT_S3_, symObjAddr: 0xDFE0, symBinAddr: 0x100010BD0, symSize: 0x10 }
  - { offsetInCU: 0x67D9E, offset: 0x67D9E, size: 0x8, addend: 0x0, symName: __ZNSt3__1eqB7v160006INS_9allocatorIcEEEEbRKNS_12basic_stringIcNS_11char_traitsIcEET_EES9_, symObjAddr: 0xE1E0, symBinAddr: 0x100010DD0, symSize: 0x110 }
  - { offsetInCU: 0x67E12, offset: 0x67E12, size: 0x8, addend: 0x0, symName: __ZNSt3__118__constexpr_memcmpB7v160006IcEEiPKT_S3_m, symObjAddr: 0xE350, symBinAddr: 0x100010F40, symSize: 0x30 }
  - { offsetInCU: 0x67E6A, offset: 0x67E6A, size: 0x8, addend: 0x0, symName: __ZNSt3__17launderB7v160006IKNS_4pairIKNS_12basic_stringIcNS_11char_traitsIcEENS_9allocatorIcEEEES7_EEEEPT_SC_, symObjAddr: 0xE380, symBinAddr: 0x100010F70, symSize: 0x20 }
  - { offsetInCU: 0x67EA1, offset: 0x67EA1, size: 0x8, addend: 0x0, symName: __ZNSt3__19__launderB7v160006IKNS_4pairIKNS_12basic_stringIcNS_11char_traitsIcEENS_9allocatorIcEEEES7_EEEEPT_SC_, symObjAddr: 0xE3A0, symBinAddr: 0x100010F90, symSize: 0x10 }
  - { offsetInCU: 0x67F29, offset: 0x67F29, size: 0x8, addend: 0x0, symName: __ZNSt3__117__libcpp_allocateB7v160006Emm, symObjAddr: 0xE5D0, symBinAddr: 0x1000111C0, symSize: 0x60 }
  - { offsetInCU: 0x67F83, offset: 0x67F83, size: 0x8, addend: 0x0, symName: __ZNSt3__121__libcpp_operator_newB7v160006IJmSt11align_val_tEEEPvDpT_, symObjAddr: 0xE650, symBinAddr: 0x100011240, symSize: 0x30 }
  - { offsetInCU: 0x67FD0, offset: 0x67FD0, size: 0x8, addend: 0x0, symName: __ZNSt3__121__libcpp_operator_newB7v160006IJmEEEPvDpT_, symObjAddr: 0xE680, symBinAddr: 0x100011270, symSize: 0x20 }
  - { offsetInCU: 0x68009, offset: 0x68009, size: 0x8, addend: 0x0, symName: __ZNSt3__17launderB7v160006INS_4pairIKNS_12basic_stringIcNS_11char_traitsIcEENS_9allocatorIcEEEES7_EEEEPT_SB_, symObjAddr: 0xE8B0, symBinAddr: 0x1000114A0, symSize: 0x20 }
  - { offsetInCU: 0x68040, offset: 0x68040, size: 0x8, addend: 0x0, symName: __ZNSt3__19__launderB7v160006INS_4pairIKNS_12basic_stringIcNS_11char_traitsIcEENS_9allocatorIcEEEES7_EEEEPT_SB_, symObjAddr: 0xE8D0, symBinAddr: 0x1000114C0, symSize: 0x10 }
  - { offsetInCU: 0x68078, offset: 0x68078, size: 0x8, addend: 0x0, symName: __ZNSt3__116__next_hash_pow2B7v160006Em, symObjAddr: 0xEDF0, symBinAddr: 0x1000119E0, symSize: 0x60 }
  - { offsetInCU: 0x680A5, offset: 0x680A5, size: 0x8, addend: 0x0, symName: __ZNSt3__125__debug_db_invalidate_allB7v160006INS_12__hash_tableINS_17__hash_value_typeINS_12basic_stringIcNS_11char_traitsIcEENS_9allocatorIcEEEES8_EENS_22__unordered_map_hasherIS8_S9_NS_4hashIS8_EENS_8equal_toIS8_EELb1EEENS_21__unordered_map_equalIS8_S9_SE_SC_Lb1EEENS6_IS9_EEEEEEvPT_, symObjAddr: 0xEE50, symBinAddr: 0x100011A40, symSize: 0x10 }
  - { offsetInCU: 0x680DA, offset: 0x680DA, size: 0x8, addend: 0x0, symName: __ZNSt3__112__libcpp_clzB7v160006Em, symObjAddr: 0xF160, symBinAddr: 0x100011D50, symSize: 0x20 }
  - { offsetInCU: 0x6810A, offset: 0x6810A, size: 0x8, addend: 0x0, symName: __ZNSt3__13maxB7v160006ImNS_6__lessImmEEEERKT_S5_S5_T0_, symObjAddr: 0xF180, symBinAddr: 0x100011D70, symSize: 0x50 }
  - { offsetInCU: 0x681AB, offset: 0x681AB, size: 0x8, addend: 0x0, symName: __ZNSt3__118__debug_db_erase_cB7v160006INS_12__hash_tableINS_17__hash_value_typeINS_12basic_stringIcNS_11char_traitsIcEENS_9allocatorIcEEEES8_EENS_22__unordered_map_hasherIS8_S9_NS_4hashIS8_EENS_8equal_toIS8_EELb1EEENS_21__unordered_map_equalIS8_S9_SE_SC_Lb1EEENS6_IS9_EEEEEEvPT_, symObjAddr: 0xF560, symBinAddr: 0x100012150, symSize: 0x10 }
  - { offsetInCU: 0x681E0, offset: 0x681E0, size: 0x8, addend: 0x0, symName: __ZNSt3__116__pad_and_outputB7v160006IcNS_11char_traitsIcEEEENS_19ostreambuf_iteratorIT_T0_EES6_PKS4_S8_S8_RNS_8ios_baseES4_, symObjAddr: 0xF840, symBinAddr: 0x100012430, symSize: 0x220 }
  - { offsetInCU: 0x682C7, offset: 0x682C7, size: 0x8, addend: 0x0, symName: __ZNSt3__112__to_addressB7v160006IcEEPT_S2_, symObjAddr: 0xFCA0, symBinAddr: 0x100012890, symSize: 0x10 }
  - { offsetInCU: 0x6832F, offset: 0x6832F, size: 0x8, addend: 0x0, symName: __ZNSt3__19use_facetB7v160006INS_5ctypeIcEEEERKT_RKNS_6localeE, symObjAddr: 0xFEA0, symBinAddr: 0x100012A90, symSize: 0x30 }
  - { offsetInCU: 0x68832, offset: 0x68832, size: 0x8, addend: 0x0, symName: __ZNSt3__122__cxx_atomic_fetch_subB7v160006IlEET_PNS_22__cxx_atomic_base_implIS1_EES1_NS_12memory_orderE, symObjAddr: 0x10700, symBinAddr: 0x1000132F0, symSize: 0xE0 }
  - { offsetInCU: 0x68888, offset: 0x68888, size: 0x8, addend: 0x0, symName: __ZNSt3__122__make_exception_guardB7v160006INS_6vectorIPN4crow8BaseRuleENS_9allocatorIS4_EEE16__destroy_vectorEEENS_28__exception_guard_exceptionsIT_EESA_, symObjAddr: 0x11200, symBinAddr: 0x100013DF0, symSize: 0x40 }
  - { offsetInCU: 0x688BE, offset: 0x688BE, size: 0x8, addend: 0x0, symName: __ZNSt3__119__debug_db_insert_cB7v160006INS_6vectorIPN4crow8BaseRuleENS_9allocatorIS4_EEEEEEvPT_, symObjAddr: 0x11240, symBinAddr: 0x100013E30, symSize: 0x10 }
  - { offsetInCU: 0x688F3, offset: 0x688F3, size: 0x8, addend: 0x0, symName: __ZNSt3__119__allocate_at_leastB7v160006INS_9allocatorIPN4crow8BaseRuleEEEEENS_19__allocation_resultINS_16allocator_traitsIT_E7pointerEEERS8_m, symObjAddr: 0x11570, symBinAddr: 0x100014160, symSize: 0x40 }
  - { offsetInCU: 0x6893C, offset: 0x6893C, size: 0x8, addend: 0x0, symName: __ZNSt3__13minB7v160006ImEERKT_S3_S3_, symObjAddr: 0x11680, symBinAddr: 0x100014270, symSize: 0x30 }
  - { offsetInCU: 0x68B6F, offset: 0x68B6F, size: 0x8, addend: 0x0, symName: __ZNSt3__13minB7v160006ImNS_6__lessImmEEEERKT_S5_S5_T0_, symObjAddr: 0x11700, symBinAddr: 0x1000142F0, symSize: 0x50 }
  - { offsetInCU: 0x68BD1, offset: 0x68BD1, size: 0x8, addend: 0x0, symName: __ZNSt3__120__throw_length_errorB7v160006EPKc, symObjAddr: 0x117B0, symBinAddr: 0x1000143A0, symSize: 0x70 }
  - { offsetInCU: 0x68BFB, offset: 0x68BFB, size: 0x8, addend: 0x0, symName: __ZNSt3__119__debug_db_insert_cB7v160006INS_6vectorIN4crow4Trie4NodeENS_9allocatorIS4_EEEEEEvPT_, symObjAddr: 0x11BF0, symBinAddr: 0x1000147E0, symSize: 0x10 }
  - { offsetInCU: 0x68C30, offset: 0x68C30, size: 0x8, addend: 0x0, symName: __ZNSt3__119__debug_db_insert_cB7v160006INS_6vectorINS_10unique_ptrIN4crow8BaseRuleENS_14default_deleteIS4_EEEENS_9allocatorIS7_EEEEEEvPT_, symObjAddr: 0x11D40, symBinAddr: 0x100014930, symSize: 0x10 }
  - { offsetInCU: 0x68C65, offset: 0x68C65, size: 0x8, addend: 0x0, symName: __ZNSt3__119__debug_db_insert_cB7v160006INS_6vectorIPN4crow9BlueprintENS_9allocatorIS4_EEEEEEvPT_, symObjAddr: 0x11E90, symBinAddr: 0x100014A80, symSize: 0x10 }
  - { offsetInCU: 0x68C9A, offset: 0x68C9A, size: 0x8, addend: 0x0, symName: __ZNSt3__119__debug_db_insert_cB7v160006INS_6vectorINS_4pairINS_12basic_stringIcNS_11char_traitsIcEENS_9allocatorIcEEEEN4crow9CORSRulesEEENS6_ISB_EEEEEEvPT_, symObjAddr: 0x121A0, symBinAddr: 0x100014D90, symSize: 0x10 }
  - { offsetInCU: 0x68CCF, offset: 0x68CCF, size: 0x8, addend: 0x0, symName: __ZNSt3__122__make_exception_guardB7v160006INS_6vectorIiNS_9allocatorIiEEE16__destroy_vectorEEENS_28__exception_guard_exceptionsIT_EES7_, symObjAddr: 0x12540, symBinAddr: 0x100015130, symSize: 0x40 }
  - { offsetInCU: 0x68D05, offset: 0x68D05, size: 0x8, addend: 0x0, symName: __ZNSt3__119__debug_db_insert_cB7v160006INS_6vectorIiNS_9allocatorIiEEEEEEvPT_, symObjAddr: 0x12580, symBinAddr: 0x100015170, symSize: 0x10 }
  - { offsetInCU: 0x68D3A, offset: 0x68D3A, size: 0x8, addend: 0x0, symName: __ZNSt3__119__allocate_at_leastB7v160006INS_9allocatorIiEEEENS_19__allocation_resultINS_16allocator_traitsIT_E7pointerEEERS5_m, symObjAddr: 0x128E0, symBinAddr: 0x1000154D0, symSize: 0x40 }
  - { offsetInCU: 0x68D82, offset: 0x68D82, size: 0x8, addend: 0x0, symName: __ZNSt3__130__uninitialized_allocator_copyB7v160006INS_9allocatorIiEEiiLPv0EEEPT0_RT_PKS4_S9_S5_, symObjAddr: 0x12B30, symBinAddr: 0x100015720, symSize: 0x30 }
  - { offsetInCU: 0x68DFB, offset: 0x68DFB, size: 0x8, addend: 0x0, symName: __ZNSt3__14copyB7v160006IPKiPiEET0_T_S5_S4_, symObjAddr: 0x12BC0, symBinAddr: 0x1000157B0, symSize: 0x40 }
  - { offsetInCU: 0x68E5D, offset: 0x68E5D, size: 0x8, addend: 0x0, symName: __ZNSt3__16__copyB7v160006INS_17_ClassicAlgPolicyEPKiS3_PiEENS_4pairIT0_T2_EES6_T1_S7_, symObjAddr: 0x12C00, symBinAddr: 0x1000157F0, symSize: 0x40 }
  - { offsetInCU: 0x68ED1, offset: 0x68ED1, size: 0x8, addend: 0x0, symName: __ZNSt3__123__dispatch_copy_or_moveB7v160006INS_17_ClassicAlgPolicyENS_11__copy_loopIS1_EENS_14__copy_trivialEPKiS6_PiEENS_4pairIT2_T4_EES9_T3_SA_, symObjAddr: 0x12C40, symBinAddr: 0x100015830, symSize: 0x40 }
  - { offsetInCU: 0x68F57, offset: 0x68F57, size: 0x8, addend: 0x0, symName: __ZNSt3__121__unwrap_and_dispatchB7v160006INS_10__overloadINS_11__copy_loopINS_17_ClassicAlgPolicyEEENS_14__copy_trivialEEEPKiS8_PiLi0EEENS_4pairIT0_T2_EESB_T1_SC_, symObjAddr: 0x12C80, symBinAddr: 0x100015870, symSize: 0xB0 }
  - { offsetInCU: 0x68FF3, offset: 0x68FF3, size: 0x8, addend: 0x0, symName: __ZNSt3__114__unwrap_rangeB7v160006IPKiS2_EENS_4pairIT0_S4_EET_S6_, symObjAddr: 0x12D30, symBinAddr: 0x100015920, symSize: 0x50 }
  - { offsetInCU: 0x691D2, offset: 0x691D2, size: 0x8, addend: 0x0, symName: __ZNSt3__113__unwrap_iterB7v160006IPiNS_18__unwrap_iter_implIS1_Lb1EEELi0EEEDTclsrT0_8__unwrapclsr3stdE7declvalIT_EEEES5_, symObjAddr: 0x12DC0, symBinAddr: 0x1000159B0, symSize: 0x20 }
  - { offsetInCU: 0x6921A, offset: 0x6921A, size: 0x8, addend: 0x0, symName: __ZNSt3__19make_pairB7v160006IPKiPiEENS_4pairINS_18__unwrap_ref_decayIT_E4typeENS5_IT0_E4typeEEEOS6_OS9_, symObjAddr: 0x12DE0, symBinAddr: 0x1000159D0, symSize: 0x30 }
  - { offsetInCU: 0x6926A, offset: 0x6926A, size: 0x8, addend: 0x0, symName: __ZNSt3__114__rewrap_rangeB7v160006IPKiS2_EET_S3_T0_, symObjAddr: 0x12E10, symBinAddr: 0x100015A00, symSize: 0x30 }
  - { offsetInCU: 0x692BC, offset: 0x692BC, size: 0x8, addend: 0x0, symName: __ZNSt3__113__rewrap_iterB7v160006IPiS1_NS_18__unwrap_iter_implIS1_Lb1EEEEET_S4_T0_, symObjAddr: 0x12E40, symBinAddr: 0x100015A30, symSize: 0x40 }
  - { offsetInCU: 0x69316, offset: 0x69316, size: 0x8, addend: 0x0, symName: __ZNSt3__19make_pairB7v160006IPKiS2_EENS_4pairINS_18__unwrap_ref_decayIT_E4typeENS4_IT0_E4typeEEEOS5_OS8_, symObjAddr: 0x12E80, symBinAddr: 0x100015A70, symSize: 0x30 }
  - { offsetInCU: 0x69366, offset: 0x69366, size: 0x8, addend: 0x0, symName: __ZNSt3__113__unwrap_iterB7v160006IPKiNS_18__unwrap_iter_implIS2_Lb1EEELi0EEEDTclsrT0_8__unwrapclsr3stdE7declvalIT_EEEES6_, symObjAddr: 0x12EB0, symBinAddr: 0x100015AA0, symSize: 0x20 }
  - { offsetInCU: 0x694DE, offset: 0x694DE, size: 0x8, addend: 0x0, symName: __ZNSt3__112__to_addressB7v160006IKiEEPT_S3_, symObjAddr: 0x12F50, symBinAddr: 0x100015B40, symSize: 0x10 }
  - { offsetInCU: 0x69514, offset: 0x69514, size: 0x8, addend: 0x0, symName: __ZNSt3__119__copy_trivial_implB7v160006IKiiEENS_4pairIPT_PT0_EES4_S4_S6_, symObjAddr: 0x12F60, symBinAddr: 0x100015B50, symSize: 0x70 }
  - { offsetInCU: 0x69585, offset: 0x69585, size: 0x8, addend: 0x0, symName: __ZNSt3__19make_pairB7v160006IRPKiPiEENS_4pairINS_18__unwrap_ref_decayIT_E4typeENS6_IT0_E4typeEEEOS7_OSA_, symObjAddr: 0x12FD0, symBinAddr: 0x100015BC0, symSize: 0x30 }
  - { offsetInCU: 0x69630, offset: 0x69630, size: 0x8, addend: 0x0, symName: __ZNSt3__113__rewrap_iterB7v160006IPKiS2_NS_18__unwrap_iter_implIS2_Lb1EEEEET_S5_T0_, symObjAddr: 0x130E0, symBinAddr: 0x100015CD0, symSize: 0x40 }
  - { offsetInCU: 0x6968B, offset: 0x6968B, size: 0x8, addend: 0x0, symName: __ZNSt3__119__debug_db_insert_cB7v160006INS_6vectorIPN4crow9websocket10connectionENS_9allocatorIS5_EEEEEEvPT_, symObjAddr: 0x132E0, symBinAddr: 0x100015ED0, symSize: 0x10 }
  - { offsetInCU: 0x696C0, offset: 0x696C0, size: 0x8, addend: 0x0, symName: __ZNSt3__1neB7v160006IPiEEbRKNS_11__wrap_iterIT_EES6_, symObjAddr: 0x13A80, symBinAddr: 0x100016670, symSize: 0x30 }
  - { offsetInCU: 0x69705, offset: 0x69705, size: 0x8, addend: 0x0, symName: __ZNSt3__17replaceB7v160006INS_11__wrap_iterIPcEEcEEvT_S4_RKT0_S7_, symObjAddr: 0x141A0, symBinAddr: 0x100016D90, symSize: 0x80 }
  - { offsetInCU: 0x69797, offset: 0x69797, size: 0x8, addend: 0x0, symName: __ZNSt3__1neB7v160006IPPN4crow9BlueprintEEEbRKNS_11__wrap_iterIT_EES9_, symObjAddr: 0x144A0, symBinAddr: 0x100017090, symSize: 0x30 }
  - { offsetInCU: 0x697DC, offset: 0x697DC, size: 0x8, addend: 0x0, symName: __ZNSt3__1neB7v160006IPcEEbRKNS_11__wrap_iterIT_EES6_, symObjAddr: 0x14A20, symBinAddr: 0x100017610, symSize: 0x30 }
  - { offsetInCU: 0x69821, offset: 0x69821, size: 0x8, addend: 0x0, symName: __ZNSt3__1eqB7v160006IPcEEbRKNS_11__wrap_iterIT_EES6_, symObjAddr: 0x14A90, symBinAddr: 0x100017680, symSize: 0x40 }
  - { offsetInCU: 0x69865, offset: 0x69865, size: 0x8, addend: 0x0, symName: __ZNSt3__1plB7v160006IcNS_11char_traitsIcEENS_9allocatorIcEEEENS_12basic_stringIT_T0_T1_EEOS9_RKS9_, symObjAddr: 0x155B0, symBinAddr: 0x1000181A0, symSize: 0x50 }
  - { offsetInCU: 0x698BD, offset: 0x698BD, size: 0x8, addend: 0x0, symName: __ZNSt3__1plB7v160006IcNS_11char_traitsIcEENS_9allocatorIcEEEENS_12basic_stringIT_T0_T1_EERKS9_PKS6_, symObjAddr: 0x15600, symBinAddr: 0x1000181F0, symSize: 0x100 }
  - { offsetInCU: 0x69960, offset: 0x69960, size: 0x8, addend: 0x0, symName: __ZNSt3__14copyB7v160006IPKcPcEET0_T_S5_S4_, symObjAddr: 0x15E60, symBinAddr: 0x100018A50, symSize: 0x40 }
  - { offsetInCU: 0x699C2, offset: 0x699C2, size: 0x8, addend: 0x0, symName: __ZNSt3__16__copyB7v160006INS_17_ClassicAlgPolicyEPKcS3_PcEENS_4pairIT0_T2_EES6_T1_S7_, symObjAddr: 0x15EA0, symBinAddr: 0x100018A90, symSize: 0x40 }
  - { offsetInCU: 0x69A36, offset: 0x69A36, size: 0x8, addend: 0x0, symName: __ZNSt3__123__dispatch_copy_or_moveB7v160006INS_17_ClassicAlgPolicyENS_11__copy_loopIS1_EENS_14__copy_trivialEPKcS6_PcEENS_4pairIT2_T4_EES9_T3_SA_, symObjAddr: 0x15EE0, symBinAddr: 0x100018AD0, symSize: 0x40 }
  - { offsetInCU: 0x69ABC, offset: 0x69ABC, size: 0x8, addend: 0x0, symName: __ZNSt3__121__unwrap_and_dispatchB7v160006INS_10__overloadINS_11__copy_loopINS_17_ClassicAlgPolicyEEENS_14__copy_trivialEEEPKcS8_PcLi0EEENS_4pairIT0_T2_EESB_T1_SC_, symObjAddr: 0x15F20, symBinAddr: 0x100018B10, symSize: 0xB0 }
  - { offsetInCU: 0x69B58, offset: 0x69B58, size: 0x8, addend: 0x0, symName: __ZNSt3__114__unwrap_rangeB7v160006IPKcS2_EENS_4pairIT0_S4_EET_S6_, symObjAddr: 0x15FD0, symBinAddr: 0x100018BC0, symSize: 0x50 }
  - { offsetInCU: 0x69CAD, offset: 0x69CAD, size: 0x8, addend: 0x0, symName: __ZNSt3__113__unwrap_iterB7v160006IPcNS_18__unwrap_iter_implIS1_Lb1EEELi0EEEDTclsrT0_8__unwrapclsr3stdE7declvalIT_EEEES5_, symObjAddr: 0x16060, symBinAddr: 0x100018C50, symSize: 0x20 }
  - { offsetInCU: 0x69CF5, offset: 0x69CF5, size: 0x8, addend: 0x0, symName: __ZNSt3__19make_pairB7v160006IPKcPcEENS_4pairINS_18__unwrap_ref_decayIT_E4typeENS5_IT0_E4typeEEEOS6_OS9_, symObjAddr: 0x16080, symBinAddr: 0x100018C70, symSize: 0x30 }
  - { offsetInCU: 0x69D45, offset: 0x69D45, size: 0x8, addend: 0x0, symName: __ZNSt3__114__rewrap_rangeB7v160006IPKcS2_EET_S3_T0_, symObjAddr: 0x160B0, symBinAddr: 0x100018CA0, symSize: 0x30 }
  - { offsetInCU: 0x69D97, offset: 0x69D97, size: 0x8, addend: 0x0, symName: __ZNSt3__113__rewrap_iterB7v160006IPcS1_NS_18__unwrap_iter_implIS1_Lb1EEEEET_S4_T0_, symObjAddr: 0x160E0, symBinAddr: 0x100018CD0, symSize: 0x40 }
  - { offsetInCU: 0x69DF1, offset: 0x69DF1, size: 0x8, addend: 0x0, symName: __ZNSt3__19make_pairB7v160006IPKcS2_EENS_4pairINS_18__unwrap_ref_decayIT_E4typeENS4_IT0_E4typeEEEOS5_OS8_, symObjAddr: 0x16120, symBinAddr: 0x100018D10, symSize: 0x30 }
  - { offsetInCU: 0x69E41, offset: 0x69E41, size: 0x8, addend: 0x0, symName: __ZNSt3__113__unwrap_iterB7v160006IPKcNS_18__unwrap_iter_implIS2_Lb1EEELi0EEEDTclsrT0_8__unwrapclsr3stdE7declvalIT_EEEES6_, symObjAddr: 0x16150, symBinAddr: 0x100018D40, symSize: 0x20 }
  - { offsetInCU: 0x69FE8, offset: 0x69FE8, size: 0x8, addend: 0x0, symName: __ZNSt3__119__copy_trivial_implB7v160006IKccEENS_4pairIPT_PT0_EES4_S4_S6_, symObjAddr: 0x161F0, symBinAddr: 0x100018DE0, symSize: 0x70 }
  - { offsetInCU: 0x6A059, offset: 0x6A059, size: 0x8, addend: 0x0, symName: __ZNSt3__19make_pairB7v160006IRPKcPcEENS_4pairINS_18__unwrap_ref_decayIT_E4typeENS6_IT0_E4typeEEEOS7_OSA_, symObjAddr: 0x16260, symBinAddr: 0x100018E50, symSize: 0x30 }
  - { offsetInCU: 0x6A104, offset: 0x6A104, size: 0x8, addend: 0x0, symName: __ZNSt3__113__rewrap_iterB7v160006IPKcS2_NS_18__unwrap_iter_implIS2_Lb1EEEEET_S5_T0_, symObjAddr: 0x16370, symBinAddr: 0x100018F60, symSize: 0x40 }
  - { offsetInCU: 0x6A15F, offset: 0x6A15F, size: 0x8, addend: 0x0, symName: __ZNSt3__16fill_nB7v160006IPcmcEET_S2_T0_RKT1_, symObjAddr: 0x16430, symBinAddr: 0x100019020, symSize: 0x40 }
  - { offsetInCU: 0x6A1CA, offset: 0x6A1CA, size: 0x8, addend: 0x0, symName: __ZNSt3__18__fill_nB7v160006IPcmcEET_S2_T0_RKT1_, symObjAddr: 0x16470, symBinAddr: 0x100019060, symSize: 0x50 }
  - { offsetInCU: 0x6A235, offset: 0x6A235, size: 0x8, addend: 0x0, symName: __ZNSt3__121__convert_to_integralB7v160006Em, symObjAddr: 0x164C0, symBinAddr: 0x1000190B0, symSize: 0x10 }
  - { offsetInCU: 0x6A264, offset: 0x6A264, size: 0x8, addend: 0x0, symName: __ZNSt3__1neB7v160006IcNS_11char_traitsIcEENS_9allocatorIcEEEEbRKNS_12basic_stringIT_T0_T1_EESB_, symObjAddr: 0x16530, symBinAddr: 0x100019120, symSize: 0x30 }
  - { offsetInCU: 0x6A2BD, offset: 0x6A2BD, size: 0x8, addend: 0x0, symName: __ZNSt3__125__throw_bad_function_callB7v160006Ev, symObjAddr: 0x168B0, symBinAddr: 0x1000194A0, symSize: 0x40 }
  - { offsetInCU: 0x6A30E, offset: 0x6A30E, size: 0x8, addend: 0x0, symName: __ZNSt3__119__debug_db_insert_cB7v160006INS_18unordered_multimapINS_12basic_stringIcNS_11char_traitsIcEENS_9allocatorIcEEEES7_N4crow7ci_hashENS8_9ci_key_eqENS5_INS_4pairIKS7_S7_EEEEEEEEvPT_, symObjAddr: 0x16DB0, symBinAddr: 0x1000199A0, symSize: 0x10 }
  - { offsetInCU: 0x6A343, offset: 0x6A343, size: 0x8, addend: 0x0, symName: __ZNSt3__118__debug_db_erase_cB7v160006INS_12__hash_tableINS_17__hash_value_typeINS_12basic_stringIcNS_11char_traitsIcEENS_9allocatorIcEEEES8_EENS_22__unordered_map_hasherIS8_S9_N4crow7ci_hashENSB_9ci_key_eqELb1EEENS_21__unordered_map_equalIS8_S9_SD_SC_Lb1EEENS6_IS9_EEEEEEvPT_, symObjAddr: 0x171E0, symBinAddr: 0x100019DD0, symSize: 0x10 }
  - { offsetInCU: 0x6A378, offset: 0x6A378, size: 0x8, addend: 0x0, symName: __ZNSt3__115__debug_db_swapB7v160006INS_12__hash_tableINS_17__hash_value_typeINS_12basic_stringIcNS_11char_traitsIcEENS_9allocatorIcEEEES8_EENS_22__unordered_map_hasherIS8_S9_N4crow7ci_hashENSB_9ci_key_eqELb1EEENS_21__unordered_map_equalIS8_S9_SD_SC_Lb1EEENS6_IS9_EEEEEEvPT_SK_, symObjAddr: 0x17880, symBinAddr: 0x10001A470, symSize: 0x10 }
  - { offsetInCU: 0x6A3BC, offset: 0x6A3BC, size: 0x8, addend: 0x0, symName: __ZNSt3__1neB7v160006ERKNS_15__hash_iteratorIPNS_11__hash_nodeINS_17__hash_value_typeINS_12basic_stringIcNS_11char_traitsIcEENS_9allocatorIcEEEES8_EEPvEEEESF_, symObjAddr: 0x17DE0, symBinAddr: 0x10001A9D0, symSize: 0x30 }
  - { offsetInCU: 0x6A3FA, offset: 0x6A3FA, size: 0x8, addend: 0x0, symName: __ZNSt3__1neB7v160006IPKcEEbRKNS_11__wrap_iterIT_EES7_, symObjAddr: 0x18140, symBinAddr: 0x10001AD30, symSize: 0x30 }
  - { offsetInCU: 0x6A43E, offset: 0x6A43E, size: 0x8, addend: 0x0, symName: __ZNSt3__17toupperB7v160006IcEET_S1_RKNS_6localeE, symObjAddr: 0x181F0, symBinAddr: 0x10001ADE0, symSize: 0x30 }
  - { offsetInCU: 0x6A485, offset: 0x6A485, size: 0x8, addend: 0x0, symName: __ZNSt3__1eqB7v160006IPKcEEbRKNS_11__wrap_iterIT_EES7_, symObjAddr: 0x182C0, symBinAddr: 0x10001AEB0, symSize: 0x40 }
  - { offsetInCU: 0x6A521, offset: 0x6A521, size: 0x8, addend: 0x0, symName: __ZNSt3__1eqB7v160006ERKNS_15__hash_iteratorIPNS_11__hash_nodeINS_17__hash_value_typeINS_12basic_stringIcNS_11char_traitsIcEENS_9allocatorIcEEEES8_EEPvEEEESF_, symObjAddr: 0x18370, symBinAddr: 0x10001AF60, symSize: 0x30 }
  - { offsetInCU: 0x6A55F, offset: 0x6A55F, size: 0x8, addend: 0x0, symName: __ZNSt3__125__debug_db_invalidate_allB7v160006INS_12__hash_tableINS_17__hash_value_typeINS_12basic_stringIcNS_11char_traitsIcEENS_9allocatorIcEEEES8_EENS_22__unordered_map_hasherIS8_S9_N4crow7ci_hashENSB_9ci_key_eqELb1EEENS_21__unordered_map_equalIS8_S9_SD_SC_Lb1EEENS6_IS9_EEEEEEvPT_, symObjAddr: 0x19590, symBinAddr: 0x10001C180, symSize: 0x10 }
  - { offsetInCU: 0x6A594, offset: 0x6A594, size: 0x8, addend: 0x0, symName: __ZNSt3__119__allocate_at_leastB7v160006INS_9allocatorINS_10unique_ptrIN4crow8BaseRuleENS_14default_deleteIS4_EEEEEEEENS_19__allocation_resultINS_16allocator_traitsIT_E7pointerEEERSB_m, symObjAddr: 0x19E40, symBinAddr: 0x10001CA30, symSize: 0x40 }
  - { offsetInCU: 0x6A5DC, offset: 0x6A5DC, size: 0x8, addend: 0x0, symName: __ZNSt3__142__uninitialized_allocator_move_if_noexceptB7v160006INS_9allocatorINS_10unique_ptrIN4crow8BaseRuleENS_14default_deleteIS4_EEEEEENS_16reverse_iteratorIPS7_EESB_SB_EET2_RT_T0_T1_SC_, symObjAddr: 0x19FD0, symBinAddr: 0x10001CBC0, symSize: 0x180 }
  - { offsetInCU: 0x6A67C, offset: 0x6A67C, size: 0x8, addend: 0x0, symName: __ZNSt3__14swapB7v160006IPNS_10unique_ptrIN4crow8BaseRuleENS_14default_deleteIS3_EEEEEENS_9enable_ifIXaasr21is_move_constructibleIT_EE5valuesr18is_move_assignableIS9_EE5valueEvE4typeERS9_SC_, symObjAddr: 0x1A1A0, symBinAddr: 0x10001CD90, symSize: 0x40 }
  - { offsetInCU: 0x6A6D5, offset: 0x6A6D5, size: 0x8, addend: 0x0, symName: __ZNSt3__125__debug_db_invalidate_allB7v160006INS_6vectorINS_10unique_ptrIN4crow8BaseRuleENS_14default_deleteIS4_EEEENS_9allocatorIS7_EEEEEEvPT_, symObjAddr: 0x1A290, symBinAddr: 0x10001CE80, symSize: 0x10 }
  - { offsetInCU: 0x6A70A, offset: 0x6A70A, size: 0x8, addend: 0x0, symName: __ZNSt3__122__make_exception_guardB7v160006INS_29_AllocatorDestroyRangeReverseINS_9allocatorINS_10unique_ptrIN4crow8BaseRuleENS_14default_deleteIS5_EEEEEENS_16reverse_iteratorIPS8_EEEEEENS_28__exception_guard_exceptionsIT_EESF_, symObjAddr: 0x1A2A0, symBinAddr: 0x10001CE90, symSize: 0x60 }
  - { offsetInCU: 0x6A740, offset: 0x6A740, size: 0x8, addend: 0x0, symName: __ZNSt3__1neB7v160006IPNS_10unique_ptrIN4crow8BaseRuleENS_14default_deleteIS3_EEEES7_EEbRKNS_16reverse_iteratorIT_EERKNS8_IT0_EE, symObjAddr: 0x1A340, symBinAddr: 0x10001CF30, symSize: 0x40 }
  - { offsetInCU: 0x6A78E, offset: 0x6A78E, size: 0x8, addend: 0x0, symName: __ZNSt3__112__to_addressB7v160006INS_16reverse_iteratorIPNS_10unique_ptrIN4crow8BaseRuleENS_14default_deleteIS4_EEEEEEvEENS_5decayIDTclsr19__to_address_helperIT_EE6__callclsr3stdE7declvalIRKSB_EEEEE4typeESD_, symObjAddr: 0x1A3B0, symBinAddr: 0x10001CFA0, symSize: 0x20 }
  - { offsetInCU: 0x6A7EE, offset: 0x6A7EE, size: 0x8, addend: 0x0, symName: __ZNSt3__119__allocator_destroyB7v160006INS_9allocatorINS_10unique_ptrIN4crow8BaseRuleENS_14default_deleteIS4_EEEEEENS_16reverse_iteratorINS9_IPS7_EEEESC_EEvRT_T0_T1_, symObjAddr: 0x1A860, symBinAddr: 0x10001D450, symSize: 0x70 }
  - { offsetInCU: 0x6A852, offset: 0x6A852, size: 0x8, addend: 0x0, symName: __ZNSt3__1neB7v160006INS_16reverse_iteratorIPNS_10unique_ptrIN4crow8BaseRuleENS_14default_deleteIS4_EEEEEES9_EEbRKNS1_IT_EERKNS1_IT0_EE, symObjAddr: 0x1A900, symBinAddr: 0x10001D4F0, symSize: 0x50 }
  - { offsetInCU: 0x6A8A0, offset: 0x6A8A0, size: 0x8, addend: 0x0, symName: __ZNSt3__112__to_addressB7v160006INS_16reverse_iteratorINS1_IPNS_10unique_ptrIN4crow8BaseRuleENS_14default_deleteIS4_EEEEEEEEvEENS_5decayIDTclsr19__to_address_helperIT_EE6__callclsr3stdE7declvalIRKSC_EEEEE4typeESE_, symObjAddr: 0x1A950, symBinAddr: 0x10001D540, symSize: 0x20 }
  - { offsetInCU: 0x6AF51, offset: 0x6AF51, size: 0x8, addend: 0x0, symName: __ZNSt3__116forward_as_tupleB7v160006IJZN4crow10TaggedRuleIJNS_12basic_stringIcNS_11char_traitsIcEENS_9allocatorIcEEEEEEclIZNS1_4CrowIJNS1_11CORSHandlerEEE8validateEvEUlRNS1_8responseES8_E_EEvOT_EUlRNS1_7requestESF_S8_E_EEENS_5tupleIJDpOT_EEESP_, symObjAddr: 0x1B820, symBinAddr: 0x10001E410, symSize: 0x30 }
  - { offsetInCU: 0x6AF8A, offset: 0x6AF8A, size: 0x8, addend: 0x0, symName: __ZNSt3__116forward_as_tupleB7v160006IJNS_9allocatorIZN4crow10TaggedRuleIJNS_12basic_stringIcNS_11char_traitsIcEENS1_IcEEEEEEclIZNS2_4CrowIJNS2_11CORSHandlerEEE8validateEvEUlRNS2_8responseES8_E_EEvOT_EUlRNS2_7requestESF_S8_E_EEEEENS_5tupleIJDpOT_EEESQ_, symObjAddr: 0x1B850, symBinAddr: 0x10001E440, symSize: 0x30 }
  - { offsetInCU: 0x6B00D, offset: 0x6B00D, size: 0x8, addend: 0x0, symName: __ZNSt3__13getB7v160006ILm0EJOZN4crow10TaggedRuleIJNS_12basic_stringIcNS_11char_traitsIcEENS_9allocatorIcEEEEEEclIZNS1_4CrowIJNS1_11CORSHandlerEEE8validateEvEUlRNS1_8responseES8_E_EEvOT_EUlRNS1_7requestESF_S8_E_EEERNS_13tuple_elementIXT_ENS_5tupleIJDpT0_EEEE4typeERSR_, symObjAddr: 0x1BB60, symBinAddr: 0x10001E750, symSize: 0x20 }
  - { offsetInCU: 0x6B051, offset: 0x6B051, size: 0x8, addend: 0x0, symName: __ZNSt3__13getB7v160006ILm0EJONS_9allocatorIZN4crow10TaggedRuleIJNS_12basic_stringIcNS_11char_traitsIcEENS1_IcEEEEEEclIZNS2_4CrowIJNS2_11CORSHandlerEEE8validateEvEUlRNS2_8responseES8_E_EEvOT_EUlRNS2_7requestESF_S8_E_EEEEERNS_13tuple_elementIXT_ENS_5tupleIJDpT0_EEEE4typeERSS_, symObjAddr: 0x1BBA0, symBinAddr: 0x10001E790, symSize: 0x20 }
  - { offsetInCU: 0x6B221, offset: 0x6B221, size: 0x8, addend: 0x0, symName: __ZNSt3__116forward_as_tupleB7v160006IJRKZN4crow10TaggedRuleIJNS_12basic_stringIcNS_11char_traitsIcEENS_9allocatorIcEEEEEEclIZNS1_4CrowIJNS1_11CORSHandlerEEE8validateEvEUlRNS1_8responseES8_E_EEvOT_EUlRNS1_7requestESF_S8_E_EEENS_5tupleIJDpOT_EEESR_, symObjAddr: 0x1BFA0, symBinAddr: 0x10001EB90, symSize: 0x30 }
  - { offsetInCU: 0x6B271, offset: 0x6B271, size: 0x8, addend: 0x0, symName: __ZNSt3__13getB7v160006ILm0EJRKZN4crow10TaggedRuleIJNS_12basic_stringIcNS_11char_traitsIcEENS_9allocatorIcEEEEEEclIZNS1_4CrowIJNS1_11CORSHandlerEEE8validateEvEUlRNS1_8responseES8_E_EEvOT_EUlRNS1_7requestESF_S8_E_EEERNS_13tuple_elementIXT_ENS_5tupleIJDpT0_EEEE4typeERSS_, symObjAddr: 0x1C170, symBinAddr: 0x10001ED60, symSize: 0x20 }
  - { offsetInCU: 0x6B2B5, offset: 0x6B2B5, size: 0x8, addend: 0x0, symName: __ZNSt3__116forward_as_tupleB7v160006IJRKNS_9allocatorIZN4crow10TaggedRuleIJNS_12basic_stringIcNS_11char_traitsIcEENS1_IcEEEEEEclIZNS2_4CrowIJNS2_11CORSHandlerEEE8validateEvEUlRNS2_8responseES8_E_EEvOT_EUlRNS2_7requestESF_S8_E_EEEEENS_5tupleIJDpOT_EEESS_, symObjAddr: 0x1C520, symBinAddr: 0x10001F110, symSize: 0x30 }
  - { offsetInCU: 0x6B305, offset: 0x6B305, size: 0x8, addend: 0x0, symName: __ZNSt3__13getB7v160006ILm0EJRKNS_9allocatorIZN4crow10TaggedRuleIJNS_12basic_stringIcNS_11char_traitsIcEENS1_IcEEEEEEclIZNS2_4CrowIJNS2_11CORSHandlerEEE8validateEvEUlRNS2_8responseES8_E_EEvOT_EUlRNS2_7requestESF_S8_E_EEEEERNS_13tuple_elementIXT_ENS_5tupleIJDpT0_EEEE4typeERST_, symObjAddr: 0x1C6F0, symBinAddr: 0x10001F2E0, symSize: 0x20 }
  - { offsetInCU: 0x6B458, offset: 0x6B458, size: 0x8, addend: 0x0, symName: __ZNSt3__18__invokeB7v160006IRZN4crow10TaggedRuleIJNS_12basic_stringIcNS_11char_traitsIcEENS_9allocatorIcEEEEEEclIZNS1_4CrowIJNS1_11CORSHandlerEEE8validateEvEUlRNS1_8responseES8_E_EEvOT_EUlRNS1_7requestESF_S8_E_JSK_SF_S8_EEEDTclclsr3stdE7declvalISH_EEspclsr3stdE7declvalIT0_EEEESI_DpOSN_, symObjAddr: 0x1C7F0, symBinAddr: 0x10001F3E0, symSize: 0x90 }
  - { offsetInCU: 0x6B4D6, offset: 0x6B4D6, size: 0x8, addend: 0x0, symName: __ZNSt3__1plB7v160006IcNS_11char_traitsIcEENS_9allocatorIcEEEENS_12basic_stringIT_T0_T1_EERKS9_SB_, symObjAddr: 0x1CFD0, symBinAddr: 0x10001FBC0, symSize: 0x110 }
  - { offsetInCU: 0x6B578, offset: 0x6B578, size: 0x8, addend: 0x0, symName: __ZNSt3__118__str_find_last_ofB7v160006IcmNS_11char_traitsIcEELm18446744073709551615EEET0_PKT_S3_S6_S3_S3_, symObjAddr: 0x1D6A0, symBinAddr: 0x100020290, symSize: 0xC0 }
  - { offsetInCU: 0x6B64B, offset: 0x6B64B, size: 0x8, addend: 0x0, symName: __ZNSt3__123__constexpr_char_memchrB7v160006EPKcim, symObjAddr: 0x1D7D0, symBinAddr: 0x1000203C0, symSize: 0x30 }
  - { offsetInCU: 0x6B69A, offset: 0x6B69A, size: 0x8, addend: 0x0, symName: __ZNSt3__1neB7v160006ERKNS_25__hash_map_const_iteratorINS_21__hash_const_iteratorIPNS_11__hash_nodeINS_17__hash_value_typeINS_12basic_stringIcNS_11char_traitsIcEENS_9allocatorIcEEEES9_EEPvEEEEEESH_, symObjAddr: 0x1D860, symBinAddr: 0x100020450, symSize: 0x30 }
  - { offsetInCU: 0x6B6D7, offset: 0x6B6D7, size: 0x8, addend: 0x0, symName: __ZNSt3__1neB7v160006ERKNS_21__hash_const_iteratorIPNS_11__hash_nodeINS_17__hash_value_typeINS_12basic_stringIcNS_11char_traitsIcEENS_9allocatorIcEEEES8_EEPvEEEESF_, symObjAddr: 0x1E040, symBinAddr: 0x100020C30, symSize: 0x30 }
  - { offsetInCU: 0x6B714, offset: 0x6B714, size: 0x8, addend: 0x0, symName: __ZNSt3__1eqB7v160006ERKNS_21__hash_const_iteratorIPNS_11__hash_nodeINS_17__hash_value_typeINS_12basic_stringIcNS_11char_traitsIcEENS_9allocatorIcEEEES8_EEPvEEEESF_, symObjAddr: 0x1E070, symBinAddr: 0x100020C60, symSize: 0x30 }
  - { offsetInCU: 0x6B7B7, offset: 0x6B7B7, size: 0x8, addend: 0x0, symName: __ZNSt3__1lsB7v160006IcNS_11char_traitsIcEENS_9allocatorIcEEEERNS_13basic_ostreamIT_T0_EES9_RKNS_12basic_stringIS6_S7_T1_EE, symObjAddr: 0x1E450, symBinAddr: 0x100021040, symSize: 0x50 }
  - { offsetInCU: 0x6B80F, offset: 0x6B80F, size: 0x8, addend: 0x0, symName: __ZNSt3__1plB7v160006IcNS_11char_traitsIcEENS_9allocatorIcEEEENS_12basic_stringIT_T0_T1_EEOS9_SA_, symObjAddr: 0x1EA30, symBinAddr: 0x100021620, symSize: 0x50 }
  - { offsetInCU: 0x6B868, offset: 0x6B868, size: 0x8, addend: 0x0, symName: __ZNSt3__18distanceB7v160006IPcEENS_15iterator_traitsIT_E15difference_typeES3_S3_, symObjAddr: 0x1ED00, symBinAddr: 0x1000218F0, symSize: 0x30 }
  - { offsetInCU: 0x6B8B1, offset: 0x6B8B1, size: 0x8, addend: 0x0, symName: __ZNSt3__119__allocate_at_leastB7v160006INS_9allocatorIcEEEENS_19__allocation_resultINS_16allocator_traitsIT_E7pointerEEERS5_m, symObjAddr: 0x1ED30, symBinAddr: 0x100021920, symSize: 0x40 }
  - { offsetInCU: 0x6B8FA, offset: 0x6B8FA, size: 0x8, addend: 0x0, symName: __ZNSt3__110__distanceB7v160006IPcEENS_15iterator_traitsIT_E15difference_typeES3_S3_NS_26random_access_iterator_tagE, symObjAddr: 0x1ED70, symBinAddr: 0x100021960, symSize: 0x20 }
  - { offsetInCU: 0x6B94F, offset: 0x6B94F, size: 0x8, addend: 0x0, symName: __ZNSt3__125__debug_db_invalidate_allB7v160006INS_12basic_stringIcNS_11char_traitsIcEENS_9allocatorIcEEEEEEvPT_, symObjAddr: 0x1EE70, symBinAddr: 0x100021A60, symSize: 0x10 }
  - { offsetInCU: 0x6B984, offset: 0x6B984, size: 0x8, addend: 0x0, symName: __ZNSt3__14swapB7v160006IPNS_10__function6__baseIFvRN4crow7requestERNS3_8responseENS_12basic_stringIcNS_11char_traitsIcEENS_9allocatorIcEEEEEEEEENS_9enable_ifIXaasr21is_move_constructibleIT_EE5valuesr18is_move_assignableISI_EE5valueEvE4typeERSI_SL_, symObjAddr: 0x1F280, symBinAddr: 0x100021E70, symSize: 0x40 }
  - { offsetInCU: 0x6B9DD, offset: 0x6B9DD, size: 0x8, addend: 0x0, symName: __ZNSt3__1eqB7v160006IPPN4crow9BlueprintEEEbRKNS_11__wrap_iterIT_EES9_, symObjAddr: 0x1F380, symBinAddr: 0x100021F70, symSize: 0x40 }
  - { offsetInCU: 0x6BA21, offset: 0x6BA21, size: 0x8, addend: 0x0, symName: __ZNSt3__1plB7v160006IcNS_11char_traitsIcEENS_9allocatorIcEEEENS_12basic_stringIT_T0_T1_EES6_RKS9_, symObjAddr: 0x1F3E0, symBinAddr: 0x100021FD0, symSize: 0xF0 }
  - { offsetInCU: 0x6C0FA, offset: 0x6C0FA, size: 0x8, addend: 0x0, symName: __ZNSt3__116forward_as_tupleB7v160006IJZN4crow10TaggedRuleIJNS_12basic_stringIcNS_11char_traitsIcEENS_9allocatorIcEEEEEEclIZNS1_4CrowIJNS1_11CORSHandlerEEE8validateEvEUlRNS1_8responseES8_E0_EEvOT_EUlRNS1_7requestESF_S8_E_EEENS_5tupleIJDpOT_EEESP_, symObjAddr: 0x1FFD0, symBinAddr: 0x100022BC0, symSize: 0x30 }
  - { offsetInCU: 0x6C133, offset: 0x6C133, size: 0x8, addend: 0x0, symName: __ZNSt3__116forward_as_tupleB7v160006IJNS_9allocatorIZN4crow10TaggedRuleIJNS_12basic_stringIcNS_11char_traitsIcEENS1_IcEEEEEEclIZNS2_4CrowIJNS2_11CORSHandlerEEE8validateEvEUlRNS2_8responseES8_E0_EEvOT_EUlRNS2_7requestESF_S8_E_EEEEENS_5tupleIJDpOT_EEESQ_, symObjAddr: 0x20000, symBinAddr: 0x100022BF0, symSize: 0x30 }
  - { offsetInCU: 0x6C19A, offset: 0x6C19A, size: 0x8, addend: 0x0, symName: __ZNSt3__13getB7v160006ILm0EJOZN4crow10TaggedRuleIJNS_12basic_stringIcNS_11char_traitsIcEENS_9allocatorIcEEEEEEclIZNS1_4CrowIJNS1_11CORSHandlerEEE8validateEvEUlRNS1_8responseES8_E0_EEvOT_EUlRNS1_7requestESF_S8_E_EEERNS_13tuple_elementIXT_ENS_5tupleIJDpT0_EEEE4typeERSR_, symObjAddr: 0x20310, symBinAddr: 0x100022F00, symSize: 0x20 }
  - { offsetInCU: 0x6C1DE, offset: 0x6C1DE, size: 0x8, addend: 0x0, symName: __ZNSt3__13getB7v160006ILm0EJONS_9allocatorIZN4crow10TaggedRuleIJNS_12basic_stringIcNS_11char_traitsIcEENS1_IcEEEEEEclIZNS2_4CrowIJNS2_11CORSHandlerEEE8validateEvEUlRNS2_8responseES8_E0_EEvOT_EUlRNS2_7requestESF_S8_E_EEEEERNS_13tuple_elementIXT_ENS_5tupleIJDpT0_EEEE4typeERSS_, symObjAddr: 0x20350, symBinAddr: 0x100022F40, symSize: 0x20 }
  - { offsetInCU: 0x6C3AE, offset: 0x6C3AE, size: 0x8, addend: 0x0, symName: __ZNSt3__116forward_as_tupleB7v160006IJRKZN4crow10TaggedRuleIJNS_12basic_stringIcNS_11char_traitsIcEENS_9allocatorIcEEEEEEclIZNS1_4CrowIJNS1_11CORSHandlerEEE8validateEvEUlRNS1_8responseES8_E0_EEvOT_EUlRNS1_7requestESF_S8_E_EEENS_5tupleIJDpOT_EEESR_, symObjAddr: 0x20750, symBinAddr: 0x100023340, symSize: 0x30 }
  - { offsetInCU: 0x6C3FE, offset: 0x6C3FE, size: 0x8, addend: 0x0, symName: __ZNSt3__13getB7v160006ILm0EJRKZN4crow10TaggedRuleIJNS_12basic_stringIcNS_11char_traitsIcEENS_9allocatorIcEEEEEEclIZNS1_4CrowIJNS1_11CORSHandlerEEE8validateEvEUlRNS1_8responseES8_E0_EEvOT_EUlRNS1_7requestESF_S8_E_EEERNS_13tuple_elementIXT_ENS_5tupleIJDpT0_EEEE4typeERSS_, symObjAddr: 0x20920, symBinAddr: 0x100023510, symSize: 0x20 }
  - { offsetInCU: 0x6C442, offset: 0x6C442, size: 0x8, addend: 0x0, symName: __ZNSt3__116forward_as_tupleB7v160006IJRKNS_9allocatorIZN4crow10TaggedRuleIJNS_12basic_stringIcNS_11char_traitsIcEENS1_IcEEEEEEclIZNS2_4CrowIJNS2_11CORSHandlerEEE8validateEvEUlRNS2_8responseES8_E0_EEvOT_EUlRNS2_7requestESF_S8_E_EEEEENS_5tupleIJDpOT_EEESS_, symObjAddr: 0x20CD0, symBinAddr: 0x1000238C0, symSize: 0x30 }
  - { offsetInCU: 0x6C492, offset: 0x6C492, size: 0x8, addend: 0x0, symName: __ZNSt3__13getB7v160006ILm0EJRKNS_9allocatorIZN4crow10TaggedRuleIJNS_12basic_stringIcNS_11char_traitsIcEENS1_IcEEEEEEclIZNS2_4CrowIJNS2_11CORSHandlerEEE8validateEvEUlRNS2_8responseES8_E0_EEvOT_EUlRNS2_7requestESF_S8_E_EEEEERNS_13tuple_elementIXT_ENS_5tupleIJDpT0_EEEE4typeERST_, symObjAddr: 0x20EA0, symBinAddr: 0x100023A90, symSize: 0x20 }
  - { offsetInCU: 0x6C4D7, offset: 0x6C4D7, size: 0x8, addend: 0x0, symName: __ZNSt3__18__invokeB7v160006IRZN4crow10TaggedRuleIJNS_12basic_stringIcNS_11char_traitsIcEENS_9allocatorIcEEEEEEclIZNS1_4CrowIJNS1_11CORSHandlerEEE8validateEvEUlRNS1_8responseES8_E0_EEvOT_EUlRNS1_7requestESF_S8_E_JSK_SF_S8_EEEDTclclsr3stdE7declvalISH_EEspclsr3stdE7declvalIT0_EEEESI_DpOSN_, symObjAddr: 0x20FA0, symBinAddr: 0x100023B90, symSize: 0x90 }
  - { offsetInCU: 0x6C556, offset: 0x6C556, size: 0x8, addend: 0x0, symName: __ZNSt3__1neB7v160006IPNS_10unique_ptrIN4crow8BaseRuleENS_14default_deleteIS3_EEEEEEbRKNS_11__wrap_iterIT_EESC_, symObjAddr: 0x21780, symBinAddr: 0x100024370, symSize: 0x30 }
  - { offsetInCU: 0x6C59A, offset: 0x6C59A, size: 0x8, addend: 0x0, symName: __ZNSt3__1eqB7v160006IcNS_11char_traitsIcEENS_9allocatorIcEEEEbRKNS_12basic_stringIT_T0_T1_EEPKS6_, symObjAddr: 0x21B90, symBinAddr: 0x100024780, symSize: 0x90 }
  - { offsetInCU: 0x6C602, offset: 0x6C602, size: 0x8, addend: 0x0, symName: __ZNSt3__1neB7v160006IPN4crow10HTTPMethodEEEbRKNS_11__wrap_iterIT_EES8_, symObjAddr: 0x21E30, symBinAddr: 0x100024A20, symSize: 0x30 }
  - { offsetInCU: 0x6C647, offset: 0x6C647, size: 0x8, addend: 0x0, symName: __ZNSt3__119__debug_db_insert_cB7v160006INS_6vectorIN4crow10HTTPMethodENS_9allocatorIS3_EEEEEEvPT_, symObjAddr: 0x22740, symBinAddr: 0x100025330, symSize: 0x10 }
  - { offsetInCU: 0x6C67C, offset: 0x6C67C, size: 0x8, addend: 0x0, symName: __ZNSt3__112__to_addressB7v160006IN4crow10HTTPMethodEEEPT_S4_, symObjAddr: 0x22B40, symBinAddr: 0x100025730, symSize: 0x10 }
  - { offsetInCU: 0x6C6B2, offset: 0x6C6B2, size: 0x8, addend: 0x0, symName: __ZNSt3__119__allocate_at_leastB7v160006INS_9allocatorIN4crow10HTTPMethodEEEEENS_19__allocation_resultINS_16allocator_traitsIT_E7pointerEEERS7_m, symObjAddr: 0x230F0, symBinAddr: 0x100025CE0, symSize: 0x40 }
  - { offsetInCU: 0x6C6FA, offset: 0x6C6FA, size: 0x8, addend: 0x0, symName: __ZNSt3__142__uninitialized_allocator_move_if_noexceptB7v160006INS_9allocatorIN4crow10HTTPMethodEEENS_16reverse_iteratorIPS3_EES7_S3_vEET1_RT_T0_SB_S8_, symObjAddr: 0x23320, symBinAddr: 0x100025F10, symSize: 0x70 }
  - { offsetInCU: 0x6C777, offset: 0x6C777, size: 0x8, addend: 0x0, symName: __ZNSt3__14swapB7v160006IPN4crow10HTTPMethodEEENS_9enable_ifIXaasr21is_move_constructibleIT_EE5valuesr18is_move_assignableIS5_EE5valueEvE4typeERS5_S8_, symObjAddr: 0x233E0, symBinAddr: 0x100025FD0, symSize: 0x40 }
  - { offsetInCU: 0x6C7D0, offset: 0x6C7D0, size: 0x8, addend: 0x0, symName: __ZNSt3__125__debug_db_invalidate_allB7v160006INS_6vectorIN4crow10HTTPMethodENS_9allocatorIS3_EEEEEEvPT_, symObjAddr: 0x234C0, symBinAddr: 0x1000260B0, symSize: 0x10 }
  - { offsetInCU: 0x6C805, offset: 0x6C805, size: 0x8, addend: 0x0, symName: __ZNSt3__14moveB7v160006INS_16reverse_iteratorIPN4crow10HTTPMethodEEES5_EET0_T_S7_S6_, symObjAddr: 0x23510, symBinAddr: 0x100026100, symSize: 0x80 }
  - { offsetInCU: 0x6C867, offset: 0x6C867, size: 0x8, addend: 0x0, symName: __ZNSt3__16__moveB7v160006INS_17_ClassicAlgPolicyENS_16reverse_iteratorIPN4crow10HTTPMethodEEES6_S6_EENS_4pairIT0_T2_EES8_T1_S9_, symObjAddr: 0x23590, symBinAddr: 0x100026180, symSize: 0x90 }
  - { offsetInCU: 0x6C8DB, offset: 0x6C8DB, size: 0x8, addend: 0x0, symName: __ZNSt3__123__dispatch_copy_or_moveB7v160006INS_17_ClassicAlgPolicyENS_11__move_loopIS1_EENS_14__move_trivialENS_16reverse_iteratorIPN4crow10HTTPMethodEEES9_S9_EENS_4pairIT2_T4_EESB_T3_SC_, symObjAddr: 0x23620, symBinAddr: 0x100026210, symSize: 0x90 }
  - { offsetInCU: 0x6C961, offset: 0x6C961, size: 0x8, addend: 0x0, symName: __ZNSt3__121__unwrap_and_dispatchB7v160006INS_10__overloadINS_11__move_loopINS_17_ClassicAlgPolicyEEENS_14__move_trivialEEENS_16reverse_iteratorIPN4crow10HTTPMethodEEESB_SB_Li0EEENS_4pairIT0_T2_EESD_T1_SE_, symObjAddr: 0x236B0, symBinAddr: 0x1000262A0, symSize: 0x210 }
  - { offsetInCU: 0x6C9FD, offset: 0x6C9FD, size: 0x8, addend: 0x0, symName: __ZNSt3__114__unwrap_rangeB7v160006INS_16reverse_iteratorIPN4crow10HTTPMethodEEES5_EENS_4pairIT0_S7_EET_S9_, symObjAddr: 0x238C0, symBinAddr: 0x1000264B0, symSize: 0x90 }
  - { offsetInCU: 0x6CE90, offset: 0x6CE90, size: 0x8, addend: 0x0, symName: __ZNSt3__113__unwrap_iterB7v160006INS_16reverse_iteratorIPN4crow10HTTPMethodEEENS_18__unwrap_iter_implIS5_Lb0EEELi0EEEDTclsrT0_8__unwrapclsr3stdE7declvalIT_EEEES9_, symObjAddr: 0x239F0, symBinAddr: 0x1000265E0, symSize: 0x40 }
  - { offsetInCU: 0x6CED8, offset: 0x6CED8, size: 0x8, addend: 0x0, symName: __ZNSt3__19make_pairB7v160006INS_16reverse_iteratorIPN4crow10HTTPMethodEEES5_EENS_4pairINS_18__unwrap_ref_decayIT_E4typeENS7_IT0_E4typeEEEOS8_OSB_, symObjAddr: 0x23A30, symBinAddr: 0x100026620, symSize: 0x30 }
  - { offsetInCU: 0x6CF28, offset: 0x6CF28, size: 0x8, addend: 0x0, symName: __ZNSt3__114__rewrap_rangeB7v160006INS_16reverse_iteratorIPN4crow10HTTPMethodEEES5_EET_S6_T0_, symObjAddr: 0x23A60, symBinAddr: 0x100026650, symSize: 0x60 }
  - { offsetInCU: 0x6CF7A, offset: 0x6CF7A, size: 0x8, addend: 0x0, symName: __ZNSt3__113__rewrap_iterB7v160006INS_16reverse_iteratorIPN4crow10HTTPMethodEEES5_NS_18__unwrap_iter_implIS5_Lb0EEEEET_S8_T0_, symObjAddr: 0x23AC0, symBinAddr: 0x1000266B0, symSize: 0x70 }
  - { offsetInCU: 0x6CFD5, offset: 0x6CFD5, size: 0x8, addend: 0x0, symName: __ZNSt3__1neB7v160006IPN4crow10HTTPMethodES3_EEbRKNS_16reverse_iteratorIT_EERKNS4_IT0_EE, symObjAddr: 0x23B30, symBinAddr: 0x100026720, symSize: 0x40 }
  - { offsetInCU: 0x6D3D1, offset: 0x6D3D1, size: 0x8, addend: 0x0, symName: __ZNSt3__1eqB7v160006IPN4crow10HTTPMethodEEEbRKNS_11__wrap_iterIT_EES8_, symObjAddr: 0x23FE0, symBinAddr: 0x100026BD0, symSize: 0x40 }
  - { offsetInCU: 0x6D416, offset: 0x6D416, size: 0x8, addend: 0x0, symName: __ZNSt3__14findB7v160006INS_11__wrap_iterIPN4crow10HTTPMethodEEES3_EET_S6_S6_RKT0_, symObjAddr: 0x24020, symBinAddr: 0x100026C10, symSize: 0x70 }
  - { offsetInCU: 0x6D478, offset: 0x6D478, size: 0x8, addend: 0x0, symName: __ZNSt3__1neB7v160006IPN4crow4Trie4NodeEEEbRKNS_11__wrap_iterIT_EES9_, symObjAddr: 0x24440, symBinAddr: 0x100027030, symSize: 0x30 }
  - { offsetInCU: 0x6D4BD, offset: 0x6D4BD, size: 0x8, addend: 0x0, symName: __ZNSt3__1eqB7v160006IPN4crow4Trie4NodeEEEbRKNS_11__wrap_iterIT_EES9_, symObjAddr: 0x24580, symBinAddr: 0x100027170, symSize: 0x40 }
  - { offsetInCU: 0x6D502, offset: 0x6D502, size: 0x8, addend: 0x0, symName: __ZNSt3__119__allocate_at_leastB7v160006INS_9allocatorIN4crow4Trie4NodeEEEEENS_19__allocation_resultINS_16allocator_traitsIT_E7pointerEEERS8_m, symObjAddr: 0x24D70, symBinAddr: 0x100027960, symSize: 0x40 }
  - { offsetInCU: 0x6D54A, offset: 0x6D54A, size: 0x8, addend: 0x0, symName: __ZNSt3__142__uninitialized_allocator_move_if_noexceptB7v160006INS_9allocatorIN4crow4Trie4NodeEEENS_16reverse_iteratorIPS4_EES8_S8_EET2_RT_T0_T1_S9_, symObjAddr: 0x24F00, symBinAddr: 0x100027AF0, symSize: 0x180 }
  - { offsetInCU: 0x6D5EA, offset: 0x6D5EA, size: 0x8, addend: 0x0, symName: __ZNSt3__14swapB7v160006IPN4crow4Trie4NodeEEENS_9enable_ifIXaasr21is_move_constructibleIT_EE5valuesr18is_move_assignableIS6_EE5valueEvE4typeERS6_S9_, symObjAddr: 0x250D0, symBinAddr: 0x100027CC0, symSize: 0x40 }
  - { offsetInCU: 0x6D643, offset: 0x6D643, size: 0x8, addend: 0x0, symName: __ZNSt3__125__debug_db_invalidate_allB7v160006INS_6vectorIN4crow4Trie4NodeENS_9allocatorIS4_EEEEEEvPT_, symObjAddr: 0x251C0, symBinAddr: 0x100027DB0, symSize: 0x10 }
  - { offsetInCU: 0x6D678, offset: 0x6D678, size: 0x8, addend: 0x0, symName: __ZNSt3__122__make_exception_guardB7v160006INS_29_AllocatorDestroyRangeReverseINS_9allocatorIN4crow4Trie4NodeEEENS_16reverse_iteratorIPS5_EEEEEENS_28__exception_guard_exceptionsIT_EESC_, symObjAddr: 0x251D0, symBinAddr: 0x100027DC0, symSize: 0x60 }
  - { offsetInCU: 0x6D6AE, offset: 0x6D6AE, size: 0x8, addend: 0x0, symName: __ZNSt3__1neB7v160006IPN4crow4Trie4NodeES4_EEbRKNS_16reverse_iteratorIT_EERKNS5_IT0_EE, symObjAddr: 0x25270, symBinAddr: 0x100027E60, symSize: 0x40 }
  - { offsetInCU: 0x6D6FC, offset: 0x6D6FC, size: 0x8, addend: 0x0, symName: __ZNSt3__112__to_addressB7v160006INS_16reverse_iteratorIPN4crow4Trie4NodeEEEvEENS_5decayIDTclsr19__to_address_helperIT_EE6__callclsr3stdE7declvalIRKS8_EEEEE4typeESA_, symObjAddr: 0x252E0, symBinAddr: 0x100027ED0, symSize: 0x20 }
  - { offsetInCU: 0x6D733, offset: 0x6D733, size: 0x8, addend: 0x0, symName: __ZNSt3__115__debug_db_swapB7v160006INS_6vectorIN4crow4Trie4NodeENS_9allocatorIS4_EEEEEEvPT_S9_, symObjAddr: 0x25640, symBinAddr: 0x100028230, symSize: 0x10 }
  - { offsetInCU: 0x6D7A1, offset: 0x6D7A1, size: 0x8, addend: 0x0, symName: __ZNSt3__119__allocator_destroyB7v160006INS_9allocatorIN4crow4Trie4NodeEEENS_16reverse_iteratorINS6_IPS4_EEEES9_EEvRT_T0_T1_, symObjAddr: 0x25830, symBinAddr: 0x100028420, symSize: 0x70 }
  - { offsetInCU: 0x6D805, offset: 0x6D805, size: 0x8, addend: 0x0, symName: __ZNSt3__1neB7v160006INS_16reverse_iteratorIPN4crow4Trie4NodeEEES6_EEbRKNS1_IT_EERKNS1_IT0_EE, symObjAddr: 0x258D0, symBinAddr: 0x1000284C0, symSize: 0x50 }
  - { offsetInCU: 0x6D853, offset: 0x6D853, size: 0x8, addend: 0x0, symName: __ZNSt3__112__to_addressB7v160006INS_16reverse_iteratorINS1_IPN4crow4Trie4NodeEEEEEvEENS_5decayIDTclsr19__to_address_helperIT_EE6__callclsr3stdE7declvalIRKS9_EEEEE4typeESB_, symObjAddr: 0x25920, symBinAddr: 0x100028510, symSize: 0x20 }
  - { offsetInCU: 0x6D8B4, offset: 0x6D8B4, size: 0x8, addend: 0x0, symName: __ZNSt3__118__debug_db_erase_cB7v160006INS_6vectorIN4crow10HTTPMethodENS_9allocatorIS3_EEEEEEvPT_, symObjAddr: 0x25D90, symBinAddr: 0x100028980, symSize: 0x10 }
  - { offsetInCU: 0x6D8E9, offset: 0x6D8E9, size: 0x8, addend: 0x0, symName: __ZNSt3__1miB7v160006IPKiPiEEDTmicldtfp_4baseEcldtfp0_4baseEERKNS_11__wrap_iterIT_EERKNS5_IT0_EE, symObjAddr: 0x261D0, symBinAddr: 0x100028DC0, symSize: 0x40 }
  - { offsetInCU: 0x6D937, offset: 0x6D937, size: 0x8, addend: 0x0, symName: __ZNSt3__18distanceB7v160006INS_11__wrap_iterIPKiEEEENS_15iterator_traitsIT_E15difference_typeES6_S6_, symObjAddr: 0x26210, symBinAddr: 0x100028E00, symSize: 0x40 }
  - { offsetInCU: 0x6D980, offset: 0x6D980, size: 0x8, addend: 0x0, symName: __ZNSt3__14copyB7v160006INS_11__wrap_iterIPKiEEPiEET0_T_S7_S6_, symObjAddr: 0x26470, symBinAddr: 0x100029060, symSize: 0x50 }
  - { offsetInCU: 0x6D9E2, offset: 0x6D9E2, size: 0x8, addend: 0x0, symName: __ZNSt3__110__distanceB7v160006INS_11__wrap_iterIPKiEEEENS_15iterator_traitsIT_E15difference_typeES6_S6_NS_26random_access_iterator_tagE, symObjAddr: 0x26890, symBinAddr: 0x100029480, symSize: 0x30 }
  - { offsetInCU: 0x6DA37, offset: 0x6DA37, size: 0x8, addend: 0x0, symName: __ZNSt3__1miB7v160006IPKiS2_EEDTmicldtfp_4baseEcldtfp0_4baseEERKNS_11__wrap_iterIT_EERKNS4_IT0_EE, symObjAddr: 0x268C0, symBinAddr: 0x1000294B0, symSize: 0x40 }
  - { offsetInCU: 0x6DA85, offset: 0x6DA85, size: 0x8, addend: 0x0, symName: __ZNSt3__121__convert_to_integralB7v160006El, symObjAddr: 0x26900, symBinAddr: 0x1000294F0, symSize: 0x10 }
  - { offsetInCU: 0x6DAB5, offset: 0x6DAB5, size: 0x8, addend: 0x0, symName: __ZNSt3__19__advanceB7v160006INS_11__wrap_iterIPKiEEEEvRT_NS_15iterator_traitsIS5_E15difference_typeENS_26random_access_iterator_tagE, symObjAddr: 0x26910, symBinAddr: 0x100029500, symSize: 0x30 }
  - { offsetInCU: 0x6DB01, offset: 0x6DB01, size: 0x8, addend: 0x0, symName: __ZNSt3__130__uninitialized_allocator_copyB7v160006INS_9allocatorIiEENS_11__wrap_iterIPKiEES6_PiEET2_RT_T0_T1_S8_, symObjAddr: 0x26960, symBinAddr: 0x100029550, symSize: 0x120 }
  - { offsetInCU: 0x6DBA0, offset: 0x6DBA0, size: 0x8, addend: 0x0, symName: __ZNSt3__122__make_exception_guardB7v160006INS_29_AllocatorDestroyRangeReverseINS_9allocatorIiEEPiEEEENS_28__exception_guard_exceptionsIT_EES7_, symObjAddr: 0x26A80, symBinAddr: 0x100029670, symSize: 0x60 }
  - { offsetInCU: 0x6DBD6, offset: 0x6DBD6, size: 0x8, addend: 0x0, symName: __ZNSt3__1neB7v160006IPKiEEbRKNS_11__wrap_iterIT_EES7_, symObjAddr: 0x26B20, symBinAddr: 0x100029710, symSize: 0x30 }
  - { offsetInCU: 0x6DC1B, offset: 0x6DC1B, size: 0x8, addend: 0x0, symName: __ZNSt3__1eqB7v160006IPKiEEbRKNS_11__wrap_iterIT_EES7_, symObjAddr: 0x26CB0, symBinAddr: 0x1000298A0, symSize: 0x40 }
  - { offsetInCU: 0x6DC5F, offset: 0x6DC5F, size: 0x8, addend: 0x0, symName: __ZNSt3__119__allocator_destroyB7v160006INS_9allocatorIiEENS_16reverse_iteratorIPiEES5_EEvRT_T0_T1_, symObjAddr: 0x26DB0, symBinAddr: 0x1000299A0, symSize: 0x70 }
  - { offsetInCU: 0x6DCC3, offset: 0x6DCC3, size: 0x8, addend: 0x0, symName: __ZNSt3__1neB7v160006IPiS1_EEbRKNS_16reverse_iteratorIT_EERKNS2_IT0_EE, symObjAddr: 0x26E50, symBinAddr: 0x100029A40, symSize: 0x40 }
  - { offsetInCU: 0x6DD11, offset: 0x6DD11, size: 0x8, addend: 0x0, symName: __ZNSt3__112__to_addressB7v160006INS_16reverse_iteratorIPiEEvEENS_5decayIDTclsr19__to_address_helperIT_EE6__callclsr3stdE7declvalIRKS5_EEEEE4typeES7_, symObjAddr: 0x26E90, symBinAddr: 0x100029A80, symSize: 0x20 }
  - { offsetInCU: 0x6DD72, offset: 0x6DD72, size: 0x8, addend: 0x0, symName: __ZNSt3__113move_backwardB7v160006IPiS1_EET0_T_S3_S2_, symObjAddr: 0x26FE0, symBinAddr: 0x100029BD0, symSize: 0x40 }
  - { offsetInCU: 0x6DDD4, offset: 0x6DDD4, size: 0x8, addend: 0x0, symName: __ZNSt3__115__move_backwardB7v160006INS_17_ClassicAlgPolicyEPiS2_S2_EENS_4pairIT0_T2_EES4_T1_S5_, symObjAddr: 0x27040, symBinAddr: 0x100029C30, symSize: 0x40 }
  - { offsetInCU: 0x6DE48, offset: 0x6DE48, size: 0x8, addend: 0x0, symName: __ZNSt3__123__dispatch_copy_or_moveB7v160006INS_17_ClassicAlgPolicyENS_20__move_backward_loopIS1_EENS_23__move_backward_trivialEPiS5_S5_EENS_4pairIT2_T4_EES7_T3_S8_, symObjAddr: 0x27080, symBinAddr: 0x100029C70, symSize: 0x40 }
  - { offsetInCU: 0x6DECE, offset: 0x6DECE, size: 0x8, addend: 0x0, symName: __ZNSt3__121__unwrap_and_dispatchB7v160006INS_10__overloadINS_20__move_backward_loopINS_17_ClassicAlgPolicyEEENS_23__move_backward_trivialEEEPiS7_S7_Li0EEENS_4pairIT0_T2_EES9_T1_SA_, symObjAddr: 0x270C0, symBinAddr: 0x100029CB0, symSize: 0xB0 }
  - { offsetInCU: 0x6DF6A, offset: 0x6DF6A, size: 0x8, addend: 0x0, symName: __ZNSt3__114__unwrap_rangeB7v160006IPiS1_EENS_4pairIT0_S3_EET_S5_, symObjAddr: 0x27170, symBinAddr: 0x100029D60, symSize: 0x50 }
  - { offsetInCU: 0x6E138, offset: 0x6E138, size: 0x8, addend: 0x0, symName: __ZNSt3__19make_pairB7v160006IPiS1_EENS_4pairINS_18__unwrap_ref_decayIT_E4typeENS3_IT0_E4typeEEEOS4_OS7_, symObjAddr: 0x27200, symBinAddr: 0x100029DF0, symSize: 0x30 }
  - { offsetInCU: 0x6E188, offset: 0x6E188, size: 0x8, addend: 0x0, symName: __ZNSt3__114__rewrap_rangeB7v160006IPiS1_EET_S2_T0_, symObjAddr: 0x27230, symBinAddr: 0x100029E20, symSize: 0x30 }
  - { offsetInCU: 0x6E1DA, offset: 0x6E1DA, size: 0x8, addend: 0x0, symName: __ZNSt3__128__copy_backward_trivial_implB7v160006IiiEENS_4pairIPT_PT0_EES3_S3_S5_, symObjAddr: 0x27260, symBinAddr: 0x100029E50, symSize: 0x80 }
  - { offsetInCU: 0x6E24B, offset: 0x6E24B, size: 0x8, addend: 0x0, symName: __ZNSt3__19make_pairB7v160006IRPiS2_EENS_4pairINS_18__unwrap_ref_decayIT_E4typeENS4_IT0_E4typeEEEOS5_OS8_, symObjAddr: 0x272E0, symBinAddr: 0x100029ED0, symSize: 0x30 }
  - { offsetInCU: 0x6E29B, offset: 0x6E29B, size: 0x8, addend: 0x0, symName: __ZNSt3__16__copyB7v160006INS_17_ClassicAlgPolicyENS_11__wrap_iterIPKiEES5_PiEENS_4pairIT0_T2_EES8_T1_S9_, symObjAddr: 0x273D0, symBinAddr: 0x100029FC0, symSize: 0x50 }
  - { offsetInCU: 0x6E30F, offset: 0x6E30F, size: 0x8, addend: 0x0, symName: __ZNSt3__123__dispatch_copy_or_moveB7v160006INS_17_ClassicAlgPolicyENS_11__copy_loopIS1_EENS_14__copy_trivialENS_11__wrap_iterIPKiEES8_PiEENS_4pairIT2_T4_EESB_T3_SC_, symObjAddr: 0x27420, symBinAddr: 0x10002A010, symSize: 0x50 }
  - { offsetInCU: 0x6E395, offset: 0x6E395, size: 0x8, addend: 0x0, symName: __ZNSt3__121__unwrap_and_dispatchB7v160006INS_10__overloadINS_11__copy_loopINS_17_ClassicAlgPolicyEEENS_14__copy_trivialEEENS_11__wrap_iterIPKiEESA_PiLi0EEENS_4pairIT0_T2_EESD_T1_SE_, symObjAddr: 0x27470, symBinAddr: 0x10002A060, symSize: 0xD0 }
  - { offsetInCU: 0x6E431, offset: 0x6E431, size: 0x8, addend: 0x0, symName: __ZNSt3__114__unwrap_rangeB7v160006INS_11__wrap_iterIPKiEES3_EENS_4pairIT0_S6_EET_S8_, symObjAddr: 0x27540, symBinAddr: 0x10002A130, symSize: 0x60 }
  - { offsetInCU: 0x6E482, offset: 0x6E482, size: 0x8, addend: 0x0, symName: __ZNSt3__19make_pairB7v160006INS_11__wrap_iterIPKiEEPiEENS_4pairINS_18__unwrap_ref_decayIT_E4typeENS7_IT0_E4typeEEEOS8_OSB_, symObjAddr: 0x275A0, symBinAddr: 0x10002A190, symSize: 0x30 }
  - { offsetInCU: 0x6E4D2, offset: 0x6E4D2, size: 0x8, addend: 0x0, symName: __ZNSt3__114__rewrap_rangeB7v160006INS_11__wrap_iterIPKiEES3_EET_S5_T0_, symObjAddr: 0x275D0, symBinAddr: 0x10002A1C0, symSize: 0x40 }
  - { offsetInCU: 0x6E524, offset: 0x6E524, size: 0x8, addend: 0x0, symName: __ZNSt3__113__unwrap_iterB7v160006INS_11__wrap_iterIPKiEENS_18__unwrap_iter_implIS4_Lb1EEELi0EEEDTclsrT0_8__unwrapclsr3stdE7declvalIT_EEEES8_, symObjAddr: 0x27610, symBinAddr: 0x10002A200, symSize: 0x30 }
  - { offsetInCU: 0x6E5C8, offset: 0x6E5C8, size: 0x8, addend: 0x0, symName: __ZNSt3__112__to_addressB7v160006INS_11__wrap_iterIPKiEEvEENS_5decayIDTclsr19__to_address_helperIT_EE6__callclsr3stdE7declvalIRKS6_EEEEE4typeES8_, symObjAddr: 0x27660, symBinAddr: 0x10002A250, symSize: 0x20 }
  - { offsetInCU: 0x6E77D, offset: 0x6E77D, size: 0x8, addend: 0x0, symName: __ZNSt3__113__rewrap_iterB7v160006INS_11__wrap_iterIPKiEES3_NS_18__unwrap_iter_implIS4_Lb1EEEEET_S7_T0_, symObjAddr: 0x27740, symBinAddr: 0x10002A330, symSize: 0x50 }
  - { offsetInCU: 0x6E7D7, offset: 0x6E7D7, size: 0x8, addend: 0x0, symName: __ZNSt3__142__uninitialized_allocator_move_if_noexceptB7v160006INS_9allocatorIiEENS_16reverse_iteratorIPiEES5_ivEET1_RT_T0_S9_S6_, symObjAddr: 0x27AD0, symBinAddr: 0x10002A6C0, symSize: 0x70 }
  - { offsetInCU: 0x6E853, offset: 0x6E853, size: 0x8, addend: 0x0, symName: __ZNSt3__142__uninitialized_allocator_move_if_noexceptB7v160006INS_9allocatorIiEEPiS3_ivEET1_RT_T0_S7_S4_, symObjAddr: 0x27B40, symBinAddr: 0x10002A730, symSize: 0x30 }
  - { offsetInCU: 0x6E8D0, offset: 0x6E8D0, size: 0x8, addend: 0x0, symName: __ZNSt3__14swapB7v160006IPiEENS_9enable_ifIXaasr21is_move_constructibleIT_EE5valuesr18is_move_assignableIS3_EE5valueEvE4typeERS3_S6_, symObjAddr: 0x27B70, symBinAddr: 0x10002A760, symSize: 0x40 }
  - { offsetInCU: 0x6E929, offset: 0x6E929, size: 0x8, addend: 0x0, symName: __ZNSt3__125__debug_db_invalidate_allB7v160006INS_6vectorIiNS_9allocatorIiEEEEEEvPT_, symObjAddr: 0x27BB0, symBinAddr: 0x10002A7A0, symSize: 0x10 }
  - { offsetInCU: 0x6E95E, offset: 0x6E95E, size: 0x8, addend: 0x0, symName: __ZNSt3__14moveB7v160006INS_16reverse_iteratorIPiEES3_EET0_T_S5_S4_, symObjAddr: 0x27BC0, symBinAddr: 0x10002A7B0, symSize: 0x80 }
  - { offsetInCU: 0x6E9C0, offset: 0x6E9C0, size: 0x8, addend: 0x0, symName: __ZNSt3__16__moveB7v160006INS_17_ClassicAlgPolicyENS_16reverse_iteratorIPiEES4_S4_EENS_4pairIT0_T2_EES6_T1_S7_, symObjAddr: 0x27C40, symBinAddr: 0x10002A830, symSize: 0x90 }
  - { offsetInCU: 0x6EA34, offset: 0x6EA34, size: 0x8, addend: 0x0, symName: __ZNSt3__123__dispatch_copy_or_moveB7v160006INS_17_ClassicAlgPolicyENS_11__move_loopIS1_EENS_14__move_trivialENS_16reverse_iteratorIPiEES7_S7_EENS_4pairIT2_T4_EES9_T3_SA_, symObjAddr: 0x27CD0, symBinAddr: 0x10002A8C0, symSize: 0x90 }
  - { offsetInCU: 0x6EABA, offset: 0x6EABA, size: 0x8, addend: 0x0, symName: __ZNSt3__121__unwrap_and_dispatchB7v160006INS_10__overloadINS_11__move_loopINS_17_ClassicAlgPolicyEEENS_14__move_trivialEEENS_16reverse_iteratorIPiEES9_S9_Li0EEENS_4pairIT0_T2_EESB_T1_SC_, symObjAddr: 0x27D60, symBinAddr: 0x10002A950, symSize: 0x210 }
  - { offsetInCU: 0x6EB56, offset: 0x6EB56, size: 0x8, addend: 0x0, symName: __ZNSt3__114__unwrap_rangeB7v160006INS_16reverse_iteratorIPiEES3_EENS_4pairIT0_S5_EET_S7_, symObjAddr: 0x27F70, symBinAddr: 0x10002AB60, symSize: 0x90 }
  - { offsetInCU: 0x6EC7C, offset: 0x6EC7C, size: 0x8, addend: 0x0, symName: __ZNSt3__113__unwrap_iterB7v160006INS_16reverse_iteratorIPiEENS_18__unwrap_iter_implIS3_Lb0EEELi0EEEDTclsrT0_8__unwrapclsr3stdE7declvalIT_EEEES7_, symObjAddr: 0x280A0, symBinAddr: 0x10002AC90, symSize: 0x40 }
  - { offsetInCU: 0x6ECC4, offset: 0x6ECC4, size: 0x8, addend: 0x0, symName: __ZNSt3__19make_pairB7v160006INS_16reverse_iteratorIPiEES3_EENS_4pairINS_18__unwrap_ref_decayIT_E4typeENS5_IT0_E4typeEEEOS6_OS9_, symObjAddr: 0x280E0, symBinAddr: 0x10002ACD0, symSize: 0x30 }
  - { offsetInCU: 0x6ED14, offset: 0x6ED14, size: 0x8, addend: 0x0, symName: __ZNSt3__114__rewrap_rangeB7v160006INS_16reverse_iteratorIPiEES3_EET_S4_T0_, symObjAddr: 0x28110, symBinAddr: 0x10002AD00, symSize: 0x60 }
  - { offsetInCU: 0x6ED66, offset: 0x6ED66, size: 0x8, addend: 0x0, symName: __ZNSt3__113__rewrap_iterB7v160006INS_16reverse_iteratorIPiEES3_NS_18__unwrap_iter_implIS3_Lb0EEEEET_S6_T0_, symObjAddr: 0x28170, symBinAddr: 0x10002AD60, symSize: 0x70 }
  - { offsetInCU: 0x6EE33, offset: 0x6EE33, size: 0x8, addend: 0x0, symName: __ZNSt3__14moveB7v160006IPiS1_EET0_T_S3_S2_, symObjAddr: 0x282D0, symBinAddr: 0x10002AEC0, symSize: 0x40 }
  - { offsetInCU: 0x6EE95, offset: 0x6EE95, size: 0x8, addend: 0x0, symName: __ZNSt3__16__moveB7v160006INS_17_ClassicAlgPolicyEPiS2_S2_EENS_4pairIT0_T2_EES4_T1_S5_, symObjAddr: 0x28310, symBinAddr: 0x10002AF00, symSize: 0x40 }
  - { offsetInCU: 0x6EF09, offset: 0x6EF09, size: 0x8, addend: 0x0, symName: __ZNSt3__123__dispatch_copy_or_moveB7v160006INS_17_ClassicAlgPolicyENS_11__move_loopIS1_EENS_14__move_trivialEPiS5_S5_EENS_4pairIT2_T4_EES7_T3_S8_, symObjAddr: 0x28350, symBinAddr: 0x10002AF40, symSize: 0x40 }
  - { offsetInCU: 0x6EF8F, offset: 0x6EF8F, size: 0x8, addend: 0x0, symName: __ZNSt3__121__unwrap_and_dispatchB7v160006INS_10__overloadINS_11__move_loopINS_17_ClassicAlgPolicyEEENS_14__move_trivialEEEPiS7_S7_Li0EEENS_4pairIT0_T2_EES9_T1_SA_, symObjAddr: 0x28390, symBinAddr: 0x10002AF80, symSize: 0xB0 }
  - { offsetInCU: 0x6F076, offset: 0x6F076, size: 0x8, addend: 0x0, symName: __ZNSt3__119__copy_trivial_implB7v160006IiiEENS_4pairIPT_PT0_EES3_S3_S5_, symObjAddr: 0x28480, symBinAddr: 0x10002B070, symSize: 0x70 }
  - { offsetInCU: 0x6F0E7, offset: 0x6F0E7, size: 0x8, addend: 0x0, symName: __ZNSt3__19make_pairB7v160006IRPiS1_EENS_4pairINS_18__unwrap_ref_decayIT_E4typeENS4_IT0_E4typeEEEOS5_OS8_, symObjAddr: 0x284F0, symBinAddr: 0x10002B0E0, symSize: 0x30 }
  - { offsetInCU: 0x6F137, offset: 0x6F137, size: 0x8, addend: 0x0, symName: __ZNSt3__122__make_exception_guardB7v160006INS_6vectorIPN4crow9BlueprintENS_9allocatorIS4_EEE16__destroy_vectorEEENS_28__exception_guard_exceptionsIT_EESA_, symObjAddr: 0x28F90, symBinAddr: 0x10002BB80, symSize: 0x40 }
  - { offsetInCU: 0x6F16D, offset: 0x6F16D, size: 0x8, addend: 0x0, symName: __ZNSt3__119__allocate_at_leastB7v160006INS_9allocatorIPN4crow9BlueprintEEEEENS_19__allocation_resultINS_16allocator_traitsIT_E7pointerEEERS8_m, symObjAddr: 0x29290, symBinAddr: 0x10002BE80, symSize: 0x40 }
  - { offsetInCU: 0x6F1B5, offset: 0x6F1B5, size: 0x8, addend: 0x0, symName: __ZNSt3__130__uninitialized_allocator_copyB7v160006INS_9allocatorIPN4crow9BlueprintEEEPS4_S6_S6_EET2_RT_T0_T1_S7_, symObjAddr: 0x29490, symBinAddr: 0x10002C080, symSize: 0x100 }
  - { offsetInCU: 0x6F254, offset: 0x6F254, size: 0x8, addend: 0x0, symName: __ZNSt3__122__make_exception_guardB7v160006INS_29_AllocatorDestroyRangeReverseINS_9allocatorIPN4crow9BlueprintEEEPS5_EEEENS_28__exception_guard_exceptionsIT_EESA_, symObjAddr: 0x295F0, symBinAddr: 0x10002C1E0, symSize: 0x60 }
  - { offsetInCU: 0x6F289, offset: 0x6F289, size: 0x8, addend: 0x0, symName: __ZNSt3__119__allocator_destroyB7v160006INS_9allocatorIPN4crow9BlueprintEEENS_16reverse_iteratorIPS4_EES8_EEvRT_T0_T1_, symObjAddr: 0x29870, symBinAddr: 0x10002C460, symSize: 0x70 }
  - { offsetInCU: 0x6F2ED, offset: 0x6F2ED, size: 0x8, addend: 0x0, symName: __ZNSt3__1neB7v160006IPPN4crow9BlueprintES4_EEbRKNS_16reverse_iteratorIT_EERKNS5_IT0_EE, symObjAddr: 0x29910, symBinAddr: 0x10002C500, symSize: 0x40 }
  - { offsetInCU: 0x6F33B, offset: 0x6F33B, size: 0x8, addend: 0x0, symName: __ZNSt3__112__to_addressB7v160006INS_16reverse_iteratorIPPN4crow9BlueprintEEEvEENS_5decayIDTclsr19__to_address_helperIT_EE6__callclsr3stdE7declvalIRKS8_EEEEE4typeESA_, symObjAddr: 0x29950, symBinAddr: 0x10002C540, symSize: 0x20 }
  - { offsetInCU: 0x6F39C, offset: 0x6F39C, size: 0x8, addend: 0x0, symName: __ZNSt3__1eqB7v160006IPNS_10unique_ptrIN4crow8BaseRuleENS_14default_deleteIS3_EEEEEEbRKNS_11__wrap_iterIT_EESC_, symObjAddr: 0x29B50, symBinAddr: 0x10002C740, symSize: 0x40 }
  - { offsetInCU: 0x6F3E1, offset: 0x6F3E1, size: 0x8, addend: 0x0, symName: __ZNSt3__14sortB7v160006INS_11__wrap_iterIPiEEEEvT_S4_, symObjAddr: 0x29E80, symBinAddr: 0x10002CA70, symSize: 0x40 }
  - { offsetInCU: 0x6F429, offset: 0x6F429, size: 0x8, addend: 0x0, symName: __ZNSt3__16uniqueB7v160006INS_11__wrap_iterIPiEEEET_S4_S4_, symObjAddr: 0x29FA0, symBinAddr: 0x10002CB90, symSize: 0x40 }
  - { offsetInCU: 0x6F472, offset: 0x6F472, size: 0x8, addend: 0x0, symName: __ZNSt3__14sortB7v160006INS_11__wrap_iterIPiEENS_6__lessIiiEEEEvT_S6_T0_, symObjAddr: 0x29FE0, symBinAddr: 0x10002CBD0, symSize: 0x40 }
  - { offsetInCU: 0x6F4D4, offset: 0x6F4D4, size: 0x8, addend: 0x0, symName: __ZNSt3__111__sort_implB7v160006INS_17_ClassicAlgPolicyENS_11__wrap_iterIPiEENS_6__lessIiiEEEEvT0_S7_RT1_, symObjAddr: 0x2A020, symBinAddr: 0x10002CC10, symSize: 0x80 }
  - { offsetInCU: 0x6F58B, offset: 0x6F58B, size: 0x8, addend: 0x0, symName: __ZNSt3__123__debug_randomize_rangeB7v160006INS_17_ClassicAlgPolicyENS_11__wrap_iterIPiEES4_EEvT0_T1_, symObjAddr: 0x2A0A0, symBinAddr: 0x10002CC90, symSize: 0x10 }
  - { offsetInCU: 0x6F5E2, offset: 0x6F5E2, size: 0x8, addend: 0x0, symName: __ZNSt3__113__unwrap_iterB7v160006INS_11__wrap_iterIPiEENS_18__unwrap_iter_implIS3_Lb1EEELi0EEEDTclsrT0_8__unwrapclsr3stdE7declvalIT_EEEES7_, symObjAddr: 0x2A0B0, symBinAddr: 0x10002CCA0, symSize: 0x30 }
  - { offsetInCU: 0x6F686, offset: 0x6F686, size: 0x8, addend: 0x0, symName: __ZNSt3__112__to_addressB7v160006INS_11__wrap_iterIPiEEvEENS_5decayIDTclsr19__to_address_helperIT_EE6__callclsr3stdE7declvalIRKS5_EEEEE4typeES7_, symObjAddr: 0x2A100, symBinAddr: 0x10002CCF0, symSize: 0x20 }
  - { offsetInCU: 0x6F767, offset: 0x6F767, size: 0x8, addend: 0x0, symName: __ZNSt3__16uniqueB7v160006INS_11__wrap_iterIPiEENS_10__equal_toEEET_S5_S5_T0_, symObjAddr: 0x2A180, symBinAddr: 0x10002CD70, symSize: 0x50 }
  - { offsetInCU: 0x6F7C9, offset: 0x6F7C9, size: 0x8, addend: 0x0, symName: __ZNSt3__18__uniqueB7v160006INS_17_ClassicAlgPolicyENS_11__wrap_iterIPiEES4_RNS_10__equal_toEEENS_4pairIT0_S8_EES8_T1_OT2_, symObjAddr: 0x2A1D0, symBinAddr: 0x10002CDC0, symSize: 0x130 }
  - { offsetInCU: 0x6F85C, offset: 0x6F85C, size: 0x8, addend: 0x0, symName: __ZNSt3__115__adjacent_findB7v160006INS_11__wrap_iterIPiEES3_RNS_10__equal_toEEET_S6_T0_OT1_, symObjAddr: 0x2A300, symBinAddr: 0x10002CEF0, symSize: 0xD0 }
  - { offsetInCU: 0x6FA19, offset: 0x6FA19, size: 0x8, addend: 0x0, symName: __ZNSt3__1eqB7v160006IPiEEbRKNS_11__wrap_iterIT_EES6_, symObjAddr: 0x2A480, symBinAddr: 0x10002D070, symSize: 0x40 }
  - { offsetInCU: 0x6FA5D, offset: 0x6FA5D, size: 0x8, addend: 0x0, symName: __ZNSt3__142__uninitialized_allocator_move_if_noexceptB7v160006INS_9allocatorIPN4crow8BaseRuleEEENS_16reverse_iteratorIPS4_EES8_S4_vEET1_RT_T0_SC_S9_, symObjAddr: 0x2AE20, symBinAddr: 0x10002DA10, symSize: 0x70 }
  - { offsetInCU: 0x6FADA, offset: 0x6FADA, size: 0x8, addend: 0x0, symName: __ZNSt3__14swapB7v160006IPPN4crow8BaseRuleEEENS_9enable_ifIXaasr21is_move_constructibleIT_EE5valuesr18is_move_assignableIS6_EE5valueEvE4typeERS6_S9_, symObjAddr: 0x2AEE0, symBinAddr: 0x10002DAD0, symSize: 0x40 }
  - { offsetInCU: 0x6FB33, offset: 0x6FB33, size: 0x8, addend: 0x0, symName: __ZNSt3__125__debug_db_invalidate_allB7v160006INS_6vectorIPN4crow8BaseRuleENS_9allocatorIS4_EEEEEEvPT_, symObjAddr: 0x2AF20, symBinAddr: 0x10002DB10, symSize: 0x10 }
  - { offsetInCU: 0x6FB68, offset: 0x6FB68, size: 0x8, addend: 0x0, symName: __ZNSt3__14moveB7v160006INS_16reverse_iteratorIPPN4crow8BaseRuleEEES6_EET0_T_S8_S7_, symObjAddr: 0x2AF30, symBinAddr: 0x10002DB20, symSize: 0x80 }
  - { offsetInCU: 0x6FBCA, offset: 0x6FBCA, size: 0x8, addend: 0x0, symName: __ZNSt3__16__moveB7v160006INS_17_ClassicAlgPolicyENS_16reverse_iteratorIPPN4crow8BaseRuleEEES7_S7_EENS_4pairIT0_T2_EES9_T1_SA_, symObjAddr: 0x2AFB0, symBinAddr: 0x10002DBA0, symSize: 0x90 }
  - { offsetInCU: 0x6FC3E, offset: 0x6FC3E, size: 0x8, addend: 0x0, symName: __ZNSt3__123__dispatch_copy_or_moveB7v160006INS_17_ClassicAlgPolicyENS_11__move_loopIS1_EENS_14__move_trivialENS_16reverse_iteratorIPPN4crow8BaseRuleEEESA_SA_EENS_4pairIT2_T4_EESC_T3_SD_, symObjAddr: 0x2B040, symBinAddr: 0x10002DC30, symSize: 0x90 }
  - { offsetInCU: 0x6FCC4, offset: 0x6FCC4, size: 0x8, addend: 0x0, symName: __ZNSt3__121__unwrap_and_dispatchB7v160006INS_10__overloadINS_11__move_loopINS_17_ClassicAlgPolicyEEENS_14__move_trivialEEENS_16reverse_iteratorIPPN4crow8BaseRuleEEESC_SC_Li0EEENS_4pairIT0_T2_EESE_T1_SF_, symObjAddr: 0x2B0D0, symBinAddr: 0x10002DCC0, symSize: 0x210 }
  - { offsetInCU: 0x6FD60, offset: 0x6FD60, size: 0x8, addend: 0x0, symName: __ZNSt3__114__unwrap_rangeB7v160006INS_16reverse_iteratorIPPN4crow8BaseRuleEEES6_EENS_4pairIT0_S8_EET_SA_, symObjAddr: 0x2B2E0, symBinAddr: 0x10002DED0, symSize: 0x90 }
  - { offsetInCU: 0x6FE86, offset: 0x6FE86, size: 0x8, addend: 0x0, symName: __ZNSt3__113__unwrap_iterB7v160006INS_16reverse_iteratorIPPN4crow8BaseRuleEEENS_18__unwrap_iter_implIS6_Lb0EEELi0EEEDTclsrT0_8__unwrapclsr3stdE7declvalIT_EEEESA_, symObjAddr: 0x2B410, symBinAddr: 0x10002E000, symSize: 0x40 }
  - { offsetInCU: 0x6FECE, offset: 0x6FECE, size: 0x8, addend: 0x0, symName: __ZNSt3__19make_pairB7v160006INS_16reverse_iteratorIPPN4crow8BaseRuleEEES6_EENS_4pairINS_18__unwrap_ref_decayIT_E4typeENS8_IT0_E4typeEEEOS9_OSC_, symObjAddr: 0x2B450, symBinAddr: 0x10002E040, symSize: 0x30 }
  - { offsetInCU: 0x6FF1E, offset: 0x6FF1E, size: 0x8, addend: 0x0, symName: __ZNSt3__114__rewrap_rangeB7v160006INS_16reverse_iteratorIPPN4crow8BaseRuleEEES6_EET_S7_T0_, symObjAddr: 0x2B480, symBinAddr: 0x10002E070, symSize: 0x60 }
  - { offsetInCU: 0x6FF70, offset: 0x6FF70, size: 0x8, addend: 0x0, symName: __ZNSt3__113__rewrap_iterB7v160006INS_16reverse_iteratorIPPN4crow8BaseRuleEEES6_NS_18__unwrap_iter_implIS6_Lb0EEEEET_S9_T0_, symObjAddr: 0x2B4E0, symBinAddr: 0x10002E0D0, symSize: 0x70 }
  - { offsetInCU: 0x6FFCB, offset: 0x6FFCB, size: 0x8, addend: 0x0, symName: __ZNSt3__1neB7v160006IPPN4crow8BaseRuleES4_EEbRKNS_16reverse_iteratorIT_EERKNS5_IT0_EE, symObjAddr: 0x2B550, symBinAddr: 0x10002E140, symSize: 0x40 }
  - { offsetInCU: 0x7008B, offset: 0x7008B, size: 0x8, addend: 0x0, symName: __ZNSt3__16all_ofB7v160006INS_11__wrap_iterIPKN4crow4Trie4NodeEEEZNKS4_12IsSimpleNodeEvEUlRS5_E_EEbT_SA_T0_, symObjAddr: 0x2B9F0, symBinAddr: 0x10002E5E0, symSize: 0x80 }
  - { offsetInCU: 0x700ED, offset: 0x700ED, size: 0x8, addend: 0x0, symName: __ZNSt3__15beginB7v160006INS_6vectorIN4crow4Trie4NodeENS_9allocatorIS4_EEEEEEDTcldtfp_5beginEERKT_, symObjAddr: 0x2BA70, symBinAddr: 0x10002E660, symSize: 0x30 }
  - { offsetInCU: 0x70126, offset: 0x70126, size: 0x8, addend: 0x0, symName: __ZNSt3__13endB7v160006INS_6vectorIN4crow4Trie4NodeENS_9allocatorIS4_EEEEEEDTcldtfp_3endEERKT_, symObjAddr: 0x2BAA0, symBinAddr: 0x10002E690, symSize: 0x30 }
  - { offsetInCU: 0x7015F, offset: 0x7015F, size: 0x8, addend: 0x0, symName: __ZNSt3__1neB7v160006IPKN4crow4Trie4NodeEEEbRKNS_11__wrap_iterIT_EESA_, symObjAddr: 0x2BAD0, symBinAddr: 0x10002E6C0, symSize: 0x30 }
  - { offsetInCU: 0x701A4, offset: 0x701A4, size: 0x8, addend: 0x0, symName: __ZNSt3__1eqB7v160006IPKN4crow4Trie4NodeEEEbRKNS_11__wrap_iterIT_EESA_, symObjAddr: 0x2BB60, symBinAddr: 0x10002E750, symSize: 0x40 }
  - { offsetInCU: 0x70230, offset: 0x70230, size: 0x8, addend: 0x0, symName: __ZNSt3__122__cxx_atomic_fetch_addB7v160006IlEET_PNS_22__cxx_atomic_base_implIS1_EES1_NS_12memory_orderE, symObjAddr: 0x2FE00, symBinAddr: 0x1000329F0, symSize: 0xD0 }
  - { offsetInCU: 0x70286, offset: 0x70286, size: 0x8, addend: 0x0, symName: __ZNSt3__119__debug_db_insert_cB7v160006INS_6vectorINS_10unique_ptrIN4asio10io_contextENS_14default_deleteIS4_EEEENS_9allocatorIS7_EEEEEEvPT_, symObjAddr: 0x315C0, symBinAddr: 0x1000341B0, symSize: 0x10 }
  - { offsetInCU: 0x702BB, offset: 0x702BB, size: 0x8, addend: 0x0, symName: __ZNSt3__119__debug_db_insert_cB7v160006INS_6vectorIPN4crow6detail10task_timerENS_9allocatorIS5_EEEEEEvPT_, symObjAddr: 0x31710, symBinAddr: 0x100034300, symSize: 0x10 }
  - { offsetInCU: 0x702F0, offset: 0x702F0, size: 0x8, addend: 0x0, symName: __ZNSt3__119__debug_db_insert_cB7v160006INS_6vectorINS_8functionIFNS_12basic_stringIcNS_11char_traitsIcEENS_9allocatorIcEEEEvEEENS6_ISA_EEEEEEvPT_, symObjAddr: 0x31860, symBinAddr: 0x100034450, symSize: 0x10 }
  - { offsetInCU: 0x70324, offset: 0x70324, size: 0x8, addend: 0x0, symName: __ZNSt3__1eqB7v160006IvvEEbRKNS_9allocatorIT_EERKNS1_IT0_EE, symObjAddr: 0x33B10, symBinAddr: 0x100036700, symSize: 0x20 }
  - { offsetInCU: 0x70363, offset: 0x70363, size: 0x8, addend: 0x0, symName: __ZNSt3__119atomic_thread_fenceB7v160006ENS_12memory_orderE, symObjAddr: 0x340D0, symBinAddr: 0x100036CC0, symSize: 0x20 }
  - { offsetInCU: 0x7038D, offset: 0x7038D, size: 0x8, addend: 0x0, symName: __ZNSt3__125__cxx_atomic_thread_fenceB7v160006ENS_12memory_orderE, symObjAddr: 0x340F0, symBinAddr: 0x100036CE0, symSize: 0x60 }
  - { offsetInCU: 0x704FC, offset: 0x704FC, size: 0x8, addend: 0x0, symName: __ZNSt3__119__debug_db_insert_cB7v160006INS_6vectorIN4asio6detail11timer_queueINS3_18chrono_time_traitsINS_6chrono12steady_clockENS2_11wait_traitsIS7_EEEEE10heap_entryENS_9allocatorISC_EEEEEEvPT_, symObjAddr: 0x3D2D0, symBinAddr: 0x10003FEC0, symSize: 0x10 }
  - { offsetInCU: 0x7071D, offset: 0x7071D, size: 0x8, addend: 0x0, symName: __ZNSt3__125__debug_db_invalidate_allB7v160006INS_6vectorIN4asio6detail11timer_queueINS3_18chrono_time_traitsINS_6chrono12steady_clockENS2_11wait_traitsIS7_EEEEE10heap_entryENS_9allocatorISC_EEEEEEvPT_, symObjAddr: 0x3DE90, symBinAddr: 0x100040A80, symSize: 0x10 }
  - { offsetInCU: 0x70752, offset: 0x70752, size: 0x8, addend: 0x0, symName: __ZNSt3__118__debug_db_erase_cB7v160006INS_6vectorIN4asio6detail11timer_queueINS3_18chrono_time_traitsINS_6chrono12steady_clockENS2_11wait_traitsIS7_EEEEE10heap_entryENS_9allocatorISC_EEEEEEvPT_, symObjAddr: 0x3E190, symBinAddr: 0x100040D80, symSize: 0x10 }
  - { offsetInCU: 0x70787, offset: 0x70787, size: 0x8, addend: 0x0, symName: __ZNSt3__122__make_exception_guardB7v160006INS_6vectorINS_6atomicIjEENS_9allocatorIS3_EEE16__destroy_vectorEEENS_28__exception_guard_exceptionsIT_EES9_, symObjAddr: 0x3E600, symBinAddr: 0x1000411F0, symSize: 0x40 }
  - { offsetInCU: 0x707BD, offset: 0x707BD, size: 0x8, addend: 0x0, symName: __ZNSt3__119__debug_db_insert_cB7v160006INS_6vectorINS_6atomicIjEENS_9allocatorIS3_EEEEEEvPT_, symObjAddr: 0x3E640, symBinAddr: 0x100041230, symSize: 0x10 }
  - { offsetInCU: 0x707F2, offset: 0x707F2, size: 0x8, addend: 0x0, symName: __ZNSt3__119__allocate_at_leastB7v160006INS_9allocatorINS_6atomicIjEEEEEENS_19__allocation_resultINS_16allocator_traitsIT_E7pointerEEERS7_m, symObjAddr: 0x3E970, symBinAddr: 0x100041560, symSize: 0x40 }
  - { offsetInCU: 0x7083B, offset: 0x7083B, size: 0x8, addend: 0x0, symName: __ZNSt3__14swapB7v160006IPNS_10__function6__baseIFvvEEEEENS_9enable_ifIXaasr21is_move_constructibleIT_EE5valuesr18is_move_assignableIS7_EE5valueEvE4typeERS7_SA_, symObjAddr: 0x3F210, symBinAddr: 0x100041E00, symSize: 0x40 }
  - { offsetInCU: 0x70899, offset: 0x70899, size: 0x8, addend: 0x0, symName: __ZNSt3__111this_thread5yieldB7v160006Ev, symObjAddr: 0x40260, symBinAddr: 0x100042E50, symSize: 0x20 }
  - { offsetInCU: 0x708B5, offset: 0x708B5, size: 0x8, addend: 0x0, symName: __ZNSt3__119__allocate_at_leastB7v160006INS_9allocatorINS_10unique_ptrIN4asio10io_contextENS_14default_deleteIS4_EEEEEEEENS_19__allocation_resultINS_16allocator_traitsIT_E7pointerEEERSB_m, symObjAddr: 0x40E80, symBinAddr: 0x100043A70, symSize: 0x40 }
  - { offsetInCU: 0x708FD, offset: 0x708FD, size: 0x8, addend: 0x0, symName: __ZNSt3__142__uninitialized_allocator_move_if_noexceptB7v160006INS_9allocatorINS_10unique_ptrIN4asio10io_contextENS_14default_deleteIS4_EEEEEENS_16reverse_iteratorIPS7_EESB_SB_EET2_RT_T0_T1_SC_, symObjAddr: 0x41010, symBinAddr: 0x100043C00, symSize: 0x180 }
  - { offsetInCU: 0x7099D, offset: 0x7099D, size: 0x8, addend: 0x0, symName: __ZNSt3__14swapB7v160006IPNS_10unique_ptrIN4asio10io_contextENS_14default_deleteIS3_EEEEEENS_9enable_ifIXaasr21is_move_constructibleIT_EE5valuesr18is_move_assignableIS9_EE5valueEvE4typeERS9_SC_, symObjAddr: 0x411E0, symBinAddr: 0x100043DD0, symSize: 0x40 }
  - { offsetInCU: 0x709F6, offset: 0x709F6, size: 0x8, addend: 0x0, symName: __ZNSt3__125__debug_db_invalidate_allB7v160006INS_6vectorINS_10unique_ptrIN4asio10io_contextENS_14default_deleteIS4_EEEENS_9allocatorIS7_EEEEEEvPT_, symObjAddr: 0x412D0, symBinAddr: 0x100043EC0, symSize: 0x10 }
  - { offsetInCU: 0x70A2B, offset: 0x70A2B, size: 0x8, addend: 0x0, symName: __ZNSt3__122__make_exception_guardB7v160006INS_29_AllocatorDestroyRangeReverseINS_9allocatorINS_10unique_ptrIN4asio10io_contextENS_14default_deleteIS5_EEEEEENS_16reverse_iteratorIPS8_EEEEEENS_28__exception_guard_exceptionsIT_EESF_, symObjAddr: 0x412E0, symBinAddr: 0x100043ED0, symSize: 0x60 }
  - { offsetInCU: 0x70A61, offset: 0x70A61, size: 0x8, addend: 0x0, symName: __ZNSt3__1neB7v160006IPNS_10unique_ptrIN4asio10io_contextENS_14default_deleteIS3_EEEES7_EEbRKNS_16reverse_iteratorIT_EERKNS8_IT0_EE, symObjAddr: 0x41380, symBinAddr: 0x100043F70, symSize: 0x40 }
  - { offsetInCU: 0x70AAF, offset: 0x70AAF, size: 0x8, addend: 0x0, symName: __ZNSt3__112__to_addressB7v160006INS_16reverse_iteratorIPNS_10unique_ptrIN4asio10io_contextENS_14default_deleteIS4_EEEEEEvEENS_5decayIDTclsr19__to_address_helperIT_EE6__callclsr3stdE7declvalIRKSB_EEEEE4typeESD_, symObjAddr: 0x413F0, symBinAddr: 0x100043FE0, symSize: 0x20 }
  - { offsetInCU: 0x70B0F, offset: 0x70B0F, size: 0x8, addend: 0x0, symName: __ZNSt3__119__allocator_destroyB7v160006INS_9allocatorINS_10unique_ptrIN4asio10io_contextENS_14default_deleteIS4_EEEEEENS_16reverse_iteratorINS9_IPS7_EEEESC_EEvRT_T0_T1_, symObjAddr: 0x418A0, symBinAddr: 0x100044490, symSize: 0x70 }
  - { offsetInCU: 0x70B73, offset: 0x70B73, size: 0x8, addend: 0x0, symName: __ZNSt3__1neB7v160006INS_16reverse_iteratorIPNS_10unique_ptrIN4asio10io_contextENS_14default_deleteIS4_EEEEEES9_EEbRKNS1_IT_EERKNS1_IT0_EE, symObjAddr: 0x41940, symBinAddr: 0x100044530, symSize: 0x50 }
  - { offsetInCU: 0x70BC1, offset: 0x70BC1, size: 0x8, addend: 0x0, symName: __ZNSt3__112__to_addressB7v160006INS_16reverse_iteratorINS1_IPNS_10unique_ptrIN4asio10io_contextENS_14default_deleteIS4_EEEEEEEEvEENS_5decayIDTclsr19__to_address_helperIT_EE6__callclsr3stdE7declvalIRKSC_EEEEE4typeESE_, symObjAddr: 0x41990, symBinAddr: 0x100044580, symSize: 0x20 }
  - { offsetInCU: 0x70C22, offset: 0x70C22, size: 0x8, addend: 0x0, symName: __ZNSt3__119__allocate_at_leastB7v160006INS_9allocatorINS_8functionIFNS_12basic_stringIcNS_11char_traitsIcEENS1_IcEEEEvEEEEEEENS_19__allocation_resultINS_16allocator_traitsIT_E7pointerEEERSD_m, symObjAddr: 0x425B0, symBinAddr: 0x1000451A0, symSize: 0x40 }
  - { offsetInCU: 0x70C6A, offset: 0x70C6A, size: 0x8, addend: 0x0, symName: __ZNSt3__142__uninitialized_allocator_move_if_noexceptB7v160006INS_9allocatorINS_8functionIFNS_12basic_stringIcNS_11char_traitsIcEENS1_IcEEEEvEEEEENS_16reverse_iteratorIPS9_EESD_SD_EET2_RT_T0_T1_SE_, symObjAddr: 0x427F0, symBinAddr: 0x1000453E0, symSize: 0x180 }
  - { offsetInCU: 0x70D0A, offset: 0x70D0A, size: 0x8, addend: 0x0, symName: __ZNSt3__14swapB7v160006IPNS_8functionIFNS_12basic_stringIcNS_11char_traitsIcEENS_9allocatorIcEEEEvEEEEENS_9enable_ifIXaasr21is_move_constructibleIT_EE5valuesr18is_move_assignableISC_EE5valueEvE4typeERSC_SF_, symObjAddr: 0x429C0, symBinAddr: 0x1000455B0, symSize: 0x40 }
  - { offsetInCU: 0x70D63, offset: 0x70D63, size: 0x8, addend: 0x0, symName: __ZNSt3__125__debug_db_invalidate_allB7v160006INS_6vectorINS_8functionIFNS_12basic_stringIcNS_11char_traitsIcEENS_9allocatorIcEEEEvEEENS6_ISA_EEEEEEvPT_, symObjAddr: 0x42AA0, symBinAddr: 0x100045690, symSize: 0x10 }
  - { offsetInCU: 0x70D98, offset: 0x70D98, size: 0x8, addend: 0x0, symName: __ZNSt3__122__make_exception_guardB7v160006INS_29_AllocatorDestroyRangeReverseINS_9allocatorINS_8functionIFNS_12basic_stringIcNS_11char_traitsIcEENS2_IcEEEEvEEEEENS_16reverse_iteratorIPSA_EEEEEENS_28__exception_guard_exceptionsIT_EESH_, symObjAddr: 0x42AB0, symBinAddr: 0x1000456A0, symSize: 0x60 }
  - { offsetInCU: 0x70DCE, offset: 0x70DCE, size: 0x8, addend: 0x0, symName: __ZNSt3__1neB7v160006IPNS_8functionIFNS_12basic_stringIcNS_11char_traitsIcEENS_9allocatorIcEEEEvEEESA_EEbRKNS_16reverse_iteratorIT_EERKNSB_IT0_EE, symObjAddr: 0x42B50, symBinAddr: 0x100045740, symSize: 0x40 }
  - { offsetInCU: 0x70E1C, offset: 0x70E1C, size: 0x8, addend: 0x0, symName: __ZNSt3__112__to_addressB7v160006INS_16reverse_iteratorIPNS_8functionIFNS_12basic_stringIcNS_11char_traitsIcEENS_9allocatorIcEEEEvEEEEEvEENS_5decayIDTclsr19__to_address_helperIT_EE6__callclsr3stdE7declvalIRKSE_EEEEE4typeESG_, symObjAddr: 0x42BC0, symBinAddr: 0x1000457B0, symSize: 0x20 }
  - { offsetInCU: 0x70E7C, offset: 0x70E7C, size: 0x8, addend: 0x0, symName: __ZNSt3__119__allocator_destroyB7v160006INS_9allocatorINS_8functionIFNS_12basic_stringIcNS_11char_traitsIcEENS1_IcEEEEvEEEEENS_16reverse_iteratorINSB_IPS9_EEEESE_EEvRT_T0_T1_, symObjAddr: 0x43040, symBinAddr: 0x100045C30, symSize: 0x70 }
  - { offsetInCU: 0x70EE0, offset: 0x70EE0, size: 0x8, addend: 0x0, symName: __ZNSt3__1neB7v160006INS_16reverse_iteratorIPNS_8functionIFNS_12basic_stringIcNS_11char_traitsIcEENS_9allocatorIcEEEEvEEEEESC_EEbRKNS1_IT_EERKNS1_IT0_EE, symObjAddr: 0x430E0, symBinAddr: 0x100045CD0, symSize: 0x50 }
  - { offsetInCU: 0x70F2E, offset: 0x70F2E, size: 0x8, addend: 0x0, symName: __ZNSt3__112__to_addressB7v160006INS_16reverse_iteratorINS1_IPNS_8functionIFNS_12basic_stringIcNS_11char_traitsIcEENS_9allocatorIcEEEEvEEEEEEEvEENS_5decayIDTclsr19__to_address_helperIT_EE6__callclsr3stdE7declvalIRKSF_EEEEE4typeESH_, symObjAddr: 0x43130, symBinAddr: 0x100045D20, symSize: 0x20 }
  - { offsetInCU: 0x70F8F, offset: 0x70F8F, size: 0x8, addend: 0x0, symName: __ZNSt3__119__allocate_at_leastB7v160006INS_9allocatorIPN4crow6detail10task_timerEEEEENS_19__allocation_resultINS_16allocator_traitsIT_E7pointerEEERS9_m, symObjAddr: 0x43DA0, symBinAddr: 0x100046990, symSize: 0x40 }
  - { offsetInCU: 0x70FD7, offset: 0x70FD7, size: 0x8, addend: 0x0, symName: __ZNSt3__142__uninitialized_allocator_move_if_noexceptB7v160006INS_9allocatorIPN4crow6detail10task_timerEEENS_16reverse_iteratorIPS5_EES9_S5_vEET1_RT_T0_SD_SA_, symObjAddr: 0x43FE0, symBinAddr: 0x100046BD0, symSize: 0x70 }
  - { offsetInCU: 0x71054, offset: 0x71054, size: 0x8, addend: 0x0, symName: __ZNSt3__14swapB7v160006IPPN4crow6detail10task_timerEEENS_9enable_ifIXaasr21is_move_constructibleIT_EE5valuesr18is_move_assignableIS7_EE5valueEvE4typeERS7_SA_, symObjAddr: 0x440A0, symBinAddr: 0x100046C90, symSize: 0x40 }
  - { offsetInCU: 0x710AD, offset: 0x710AD, size: 0x8, addend: 0x0, symName: __ZNSt3__125__debug_db_invalidate_allB7v160006INS_6vectorIPN4crow6detail10task_timerENS_9allocatorIS5_EEEEEEvPT_, symObjAddr: 0x44190, symBinAddr: 0x100046D80, symSize: 0x10 }
  - { offsetInCU: 0x710E2, offset: 0x710E2, size: 0x8, addend: 0x0, symName: __ZNSt3__14moveB7v160006INS_16reverse_iteratorIPPN4crow6detail10task_timerEEES7_EET0_T_S9_S8_, symObjAddr: 0x441A0, symBinAddr: 0x100046D90, symSize: 0x80 }
  - { offsetInCU: 0x71144, offset: 0x71144, size: 0x8, addend: 0x0, symName: __ZNSt3__16__moveB7v160006INS_17_ClassicAlgPolicyENS_16reverse_iteratorIPPN4crow6detail10task_timerEEES8_S8_EENS_4pairIT0_T2_EESA_T1_SB_, symObjAddr: 0x44220, symBinAddr: 0x100046E10, symSize: 0x90 }
  - { offsetInCU: 0x711B8, offset: 0x711B8, size: 0x8, addend: 0x0, symName: __ZNSt3__123__dispatch_copy_or_moveB7v160006INS_17_ClassicAlgPolicyENS_11__move_loopIS1_EENS_14__move_trivialENS_16reverse_iteratorIPPN4crow6detail10task_timerEEESB_SB_EENS_4pairIT2_T4_EESD_T3_SE_, symObjAddr: 0x442B0, symBinAddr: 0x100046EA0, symSize: 0x90 }
  - { offsetInCU: 0x7123E, offset: 0x7123E, size: 0x8, addend: 0x0, symName: __ZNSt3__121__unwrap_and_dispatchB7v160006INS_10__overloadINS_11__move_loopINS_17_ClassicAlgPolicyEEENS_14__move_trivialEEENS_16reverse_iteratorIPPN4crow6detail10task_timerEEESD_SD_Li0EEENS_4pairIT0_T2_EESF_T1_SG_, symObjAddr: 0x44340, symBinAddr: 0x100046F30, symSize: 0x210 }
  - { offsetInCU: 0x712DA, offset: 0x712DA, size: 0x8, addend: 0x0, symName: __ZNSt3__114__unwrap_rangeB7v160006INS_16reverse_iteratorIPPN4crow6detail10task_timerEEES7_EENS_4pairIT0_S9_EET_SB_, symObjAddr: 0x44550, symBinAddr: 0x100047140, symSize: 0x90 }
  - { offsetInCU: 0x71400, offset: 0x71400, size: 0x8, addend: 0x0, symName: __ZNSt3__113__unwrap_iterB7v160006INS_16reverse_iteratorIPPN4crow6detail10task_timerEEENS_18__unwrap_iter_implIS7_Lb0EEELi0EEEDTclsrT0_8__unwrapclsr3stdE7declvalIT_EEEESB_, symObjAddr: 0x44680, symBinAddr: 0x100047270, symSize: 0x40 }
  - { offsetInCU: 0x71448, offset: 0x71448, size: 0x8, addend: 0x0, symName: __ZNSt3__19make_pairB7v160006INS_16reverse_iteratorIPPN4crow6detail10task_timerEEES7_EENS_4pairINS_18__unwrap_ref_decayIT_E4typeENS9_IT0_E4typeEEEOSA_OSD_, symObjAddr: 0x446C0, symBinAddr: 0x1000472B0, symSize: 0x30 }
  - { offsetInCU: 0x71498, offset: 0x71498, size: 0x8, addend: 0x0, symName: __ZNSt3__114__rewrap_rangeB7v160006INS_16reverse_iteratorIPPN4crow6detail10task_timerEEES7_EET_S8_T0_, symObjAddr: 0x446F0, symBinAddr: 0x1000472E0, symSize: 0x60 }
  - { offsetInCU: 0x714EA, offset: 0x714EA, size: 0x8, addend: 0x0, symName: __ZNSt3__113__rewrap_iterB7v160006INS_16reverse_iteratorIPPN4crow6detail10task_timerEEES7_NS_18__unwrap_iter_implIS7_Lb0EEEEET_SA_T0_, symObjAddr: 0x44750, symBinAddr: 0x100047340, symSize: 0x70 }
  - { offsetInCU: 0x71545, offset: 0x71545, size: 0x8, addend: 0x0, symName: __ZNSt3__1neB7v160006IPPN4crow6detail10task_timerES5_EEbRKNS_16reverse_iteratorIT_EERKNS6_IT0_EE, symObjAddr: 0x447C0, symBinAddr: 0x1000473B0, symSize: 0x40 }
  - { offsetInCU: 0x71605, offset: 0x71605, size: 0x8, addend: 0x0, symName: __ZNSt3__119__debug_db_insert_cB7v160006INS_6vectorINS_6futureIvEENS_9allocatorIS3_EEEEEEvPT_, symObjAddr: 0x44C60, symBinAddr: 0x100047850, symSize: 0x10 }
  - { offsetInCU: 0x7163A, offset: 0x7163A, size: 0x8, addend: 0x0, symName: __ZNSt3__112__to_addressB7v160006INS_6futureIvEEEEPT_S4_, symObjAddr: 0x44F50, symBinAddr: 0x100047B40, symSize: 0x10 }
  - { offsetInCU: 0x71670, offset: 0x71670, size: 0x8, addend: 0x0, symName: __ZNSt3__119__allocate_at_leastB7v160006INS_9allocatorINS_6futureIvEEEEEENS_19__allocation_resultINS_16allocator_traitsIT_E7pointerEEERS7_m, symObjAddr: 0x45580, symBinAddr: 0x100048170, symSize: 0x40 }
  - { offsetInCU: 0x716B8, offset: 0x716B8, size: 0x8, addend: 0x0, symName: __ZNSt3__142__uninitialized_allocator_move_if_noexceptB7v160006INS_9allocatorINS_6futureIvEEEENS_16reverse_iteratorIPS3_EES7_S7_EET2_RT_T0_T1_S8_, symObjAddr: 0x457C0, symBinAddr: 0x1000483B0, symSize: 0x180 }
  - { offsetInCU: 0x71758, offset: 0x71758, size: 0x8, addend: 0x0, symName: __ZNSt3__14swapB7v160006IPNS_6futureIvEEEENS_9enable_ifIXaasr21is_move_constructibleIT_EE5valuesr18is_move_assignableIS5_EE5valueEvE4typeERS5_S8_, symObjAddr: 0x45990, symBinAddr: 0x100048580, symSize: 0x40 }
  - { offsetInCU: 0x717B1, offset: 0x717B1, size: 0x8, addend: 0x0, symName: __ZNSt3__125__debug_db_invalidate_allB7v160006INS_6vectorINS_6futureIvEENS_9allocatorIS3_EEEEEEvPT_, symObjAddr: 0x45A80, symBinAddr: 0x100048670, symSize: 0x10 }
  - { offsetInCU: 0x717E6, offset: 0x717E6, size: 0x8, addend: 0x0, symName: __ZNSt3__122__make_exception_guardB7v160006INS_29_AllocatorDestroyRangeReverseINS_9allocatorINS_6futureIvEEEENS_16reverse_iteratorIPS4_EEEEEENS_28__exception_guard_exceptionsIT_EESB_, symObjAddr: 0x45AD0, symBinAddr: 0x1000486C0, symSize: 0x60 }
  - { offsetInCU: 0x7181C, offset: 0x7181C, size: 0x8, addend: 0x0, symName: __ZNSt3__1neB7v160006IPNS_6futureIvEES3_EEbRKNS_16reverse_iteratorIT_EERKNS4_IT0_EE, symObjAddr: 0x45B70, symBinAddr: 0x100048760, symSize: 0x40 }
  - { offsetInCU: 0x7186A, offset: 0x7186A, size: 0x8, addend: 0x0, symName: __ZNSt3__112__to_addressB7v160006INS_16reverse_iteratorIPNS_6futureIvEEEEvEENS_5decayIDTclsr19__to_address_helperIT_EE6__callclsr3stdE7declvalIRKS7_EEEEE4typeES9_, symObjAddr: 0x45BB0, symBinAddr: 0x1000487A0, symSize: 0x20 }
  - { offsetInCU: 0x718CA, offset: 0x718CA, size: 0x8, addend: 0x0, symName: __ZNSt3__119__allocator_destroyB7v160006INS_9allocatorINS_6futureIvEEEENS_16reverse_iteratorINS5_IPS3_EEEES8_EEvRT_T0_T1_, symObjAddr: 0x45EA0, symBinAddr: 0x100048A90, symSize: 0x70 }
  - { offsetInCU: 0x7192E, offset: 0x7192E, size: 0x8, addend: 0x0, symName: __ZNSt3__1neB7v160006INS_16reverse_iteratorIPNS_6futureIvEEEES5_EEbRKNS1_IT_EERKNS1_IT0_EE, symObjAddr: 0x45F40, symBinAddr: 0x100048B30, symSize: 0x50 }
  - { offsetInCU: 0x7197C, offset: 0x7197C, size: 0x8, addend: 0x0, symName: __ZNSt3__112__to_addressB7v160006INS_16reverse_iteratorINS1_IPNS_6futureIvEEEEEEvEENS_5decayIDTclsr19__to_address_helperIT_EE6__callclsr3stdE7declvalIRKS8_EEEEE4typeESA_, symObjAddr: 0x45FC0, symBinAddr: 0x100048BB0, symSize: 0x20 }
  - { offsetInCU: 0x719DC, offset: 0x719DC, size: 0x8, addend: 0x0, symName: __ZNSt3__121__does_policy_containB7v160006ENS_6launchES0_, symObjAddr: 0x463A0, symBinAddr: 0x100048F90, symSize: 0x20 }
  - { offsetInCU: 0x71A19, offset: 0x71A19, size: 0x8, addend: 0x0, symName: __ZNSt3__124__make_async_assoc_stateB7v160006IvNS_12__async_funcIZN4crow6ServerINS2_4CrowIJNS2_11CORSHandlerEEEENS2_13SocketAdaptorEJS5_EE3runEvEUlvE_JEEEEENS_6futureIT_EEOT0_, symObjAddr: 0x463C0, symBinAddr: 0x100048FB0, symSize: 0x120 }
  - { offsetInCU: 0x71A64, offset: 0x71A64, size: 0x8, addend: 0x0, symName: __ZNSt3__127__make_deferred_assoc_stateB7v160006IvNS_12__async_funcIZN4crow6ServerINS2_4CrowIJNS2_11CORSHandlerEEEENS2_13SocketAdaptorEJS5_EE3runEvEUlvE_JEEEEENS_6futureIT_EEOT0_, symObjAddr: 0x46510, symBinAddr: 0x100049100, symSize: 0xC0 }
  - { offsetInCU: 0x71E99, offset: 0x71E99, size: 0x8, addend: 0x0, symName: __ZNSt3__18__invokeB7v160006IZN4crow6ServerINS1_4CrowIJNS1_11CORSHandlerEEEENS1_13SocketAdaptorEJS4_EE3runEvEUlvE_JEEEDTclclsr3stdE7declvalIT_EEspclsr3stdE7declvalIT0_EEEEOS9_DpOSA_, symObjAddr: 0x46A50, symBinAddr: 0x100049640, symSize: 0x20 }
  - { offsetInCU: 0x71ED4, offset: 0x71ED4, size: 0x8, addend: 0x0, symName: __ZNSt3__13getB7v160006ILm0EJZN4crow6ServerINS1_4CrowIJNS1_11CORSHandlerEEEENS1_13SocketAdaptorEJS4_EE3runEvEUlvE_EEERNS_13tuple_elementIXT_ENS_5tupleIJDpT0_EEEE4typeERSD_, symObjAddr: 0x46A70, symBinAddr: 0x100049660, symSize: 0x20 }
  - { offsetInCU: 0x7207A, offset: 0x7207A, size: 0x8, addend: 0x0, symName: __ZNSt3__116forward_as_tupleB7v160006IJZZN4crow6ServerINS1_4CrowIJNS1_11CORSHandlerEEEENS1_13SocketAdaptorEJS4_EE3runEvENKUlvE_clEvEUlvE0_EEENS_5tupleIJDpOT_EEESD_, symObjAddr: 0x47890, symBinAddr: 0x10004A480, symSize: 0x30 }
  - { offsetInCU: 0x720B3, offset: 0x720B3, size: 0x8, addend: 0x0, symName: __ZNSt3__116forward_as_tupleB7v160006IJNS_9allocatorIZZN4crow6ServerINS2_4CrowIJNS2_11CORSHandlerEEEENS2_13SocketAdaptorEJS5_EE3runEvENKUlvE_clEvEUlvE0_EEEEENS_5tupleIJDpOT_EEESF_, symObjAddr: 0x478C0, symBinAddr: 0x10004A4B0, symSize: 0x30 }
  - { offsetInCU: 0x7211A, offset: 0x7211A, size: 0x8, addend: 0x0, symName: __ZNSt3__13getB7v160006ILm0EJOZZN4crow6ServerINS1_4CrowIJNS1_11CORSHandlerEEEENS1_13SocketAdaptorEJS4_EE3runEvENKUlvE_clEvEUlvE0_EEERNS_13tuple_elementIXT_ENS_5tupleIJDpT0_EEEE4typeERSF_, symObjAddr: 0x47BA0, symBinAddr: 0x10004A790, symSize: 0x20 }
  - { offsetInCU: 0x7215E, offset: 0x7215E, size: 0x8, addend: 0x0, symName: __ZNSt3__13getB7v160006ILm0EJONS_9allocatorIZZN4crow6ServerINS2_4CrowIJNS2_11CORSHandlerEEEENS2_13SocketAdaptorEJS5_EE3runEvENKUlvE_clEvEUlvE0_EEEEERNS_13tuple_elementIXT_ENS_5tupleIJDpT0_EEEE4typeERSH_, symObjAddr: 0x47BE0, symBinAddr: 0x10004A7D0, symSize: 0x20 }
  - { offsetInCU: 0x72690, offset: 0x72690, size: 0x8, addend: 0x0, symName: __ZNSt3__116forward_as_tupleB7v160006IJRKZZN4crow6ServerINS1_4CrowIJNS1_11CORSHandlerEEEENS1_13SocketAdaptorEJS4_EE3runEvENKUlvE_clEvEUlvE0_EEENS_5tupleIJDpOT_EEESF_, symObjAddr: 0x480D0, symBinAddr: 0x10004ACC0, symSize: 0x30 }
  - { offsetInCU: 0x726E0, offset: 0x726E0, size: 0x8, addend: 0x0, symName: __ZNSt3__13getB7v160006ILm0EJRKZZN4crow6ServerINS1_4CrowIJNS1_11CORSHandlerEEEENS1_13SocketAdaptorEJS4_EE3runEvENKUlvE_clEvEUlvE0_EEERNS_13tuple_elementIXT_ENS_5tupleIJDpT0_EEEE4typeERSG_, symObjAddr: 0x482B0, symBinAddr: 0x10004AEA0, symSize: 0x20 }
  - { offsetInCU: 0x72724, offset: 0x72724, size: 0x8, addend: 0x0, symName: __ZNSt3__116forward_as_tupleB7v160006IJRKNS_9allocatorIZZN4crow6ServerINS2_4CrowIJNS2_11CORSHandlerEEEENS2_13SocketAdaptorEJS5_EE3runEvENKUlvE_clEvEUlvE0_EEEEENS_5tupleIJDpOT_EEESH_, symObjAddr: 0x485A0, symBinAddr: 0x10004B190, symSize: 0x30 }
  - { offsetInCU: 0x72774, offset: 0x72774, size: 0x8, addend: 0x0, symName: __ZNSt3__13getB7v160006ILm0EJRKNS_9allocatorIZZN4crow6ServerINS2_4CrowIJNS2_11CORSHandlerEEEENS2_13SocketAdaptorEJS5_EE3runEvENKUlvE_clEvEUlvE0_EEEEERNS_13tuple_elementIXT_ENS_5tupleIJDpT0_EEEE4typeERSI_, symObjAddr: 0x48750, symBinAddr: 0x10004B340, symSize: 0x20 }
  - { offsetInCU: 0x727F8, offset: 0x727F8, size: 0x8, addend: 0x0, symName: __ZNSt3__18__invokeB7v160006IRZZN4crow6ServerINS1_4CrowIJNS1_11CORSHandlerEEEENS1_13SocketAdaptorEJS4_EE3runEvENKUlvE_clEvEUlvE0_JEEEDTclclsr3stdE7declvalIT_EEspclsr3stdE7declvalIT0_EEEEOSB_DpOSC_, symObjAddr: 0x48830, symBinAddr: 0x10004B420, symSize: 0x30 }
  - { offsetInCU: 0x72838, offset: 0x72838, size: 0x8, addend: 0x0, symName: __ZNSt3__14swapB7v160006IPNS_10__function6__baseIFNS_12basic_stringIcNS_11char_traitsIcEENS_9allocatorIcEEEEvEEEEENS_9enable_ifIXaasr21is_move_constructibleIT_EE5valuesr18is_move_assignableISD_EE5valueEvE4typeERSD_SG_, symObjAddr: 0x48DD0, symBinAddr: 0x10004B9C0, symSize: 0x40 }
  - { offsetInCU: 0x72890, offset: 0x72890, size: 0x8, addend: 0x0, symName: __ZNSt3__14bindB7v160006IMN4crow6detail10task_timerEFvRKNS_10error_codeEEJPS3_RKNS_12placeholders4__phILi1EEEEEENS_6__bindIT_JDpT0_EEEOSG_DpOSH_, symObjAddr: 0x48FE0, symBinAddr: 0x10004BBD0, symSize: 0x40 }
  - { offsetInCU: 0x7292B, offset: 0x7292B, size: 0x8, addend: 0x0, symName: __ZNSt3__115__apply_functorB7v160006IMN4crow6detail10task_timerEFvRKNS_10error_codeEENS_5tupleIJPS3_NS_12placeholders4__phILi1EEEEEEJLm0ELm1EENS9_IJS6_EEEEENS_13__bind_returnIT_T0_T2_Xsr22__is_valid_bind_returnISH_SI_SJ_EE5valueEE4typeERSH_RSI_NS_15__tuple_indicesIJXspT1_EEEEOSJ_, symObjAddr: 0x4A440, symBinAddr: 0x10004D030, symSize: 0x60 }
  - { offsetInCU: 0x729B0, offset: 0x729B0, size: 0x8, addend: 0x0, symName: __ZNSt3__18__invokeB7v160006IRMN4crow6detail10task_timerEFvRKNS_10error_codeEERPS3_JS6_EvEEDTcldsdeclsr3stdE7declvalIT0_EEclsr3stdE7declvalIT_EEspclsr3stdE7declvalIT1_EEEEOSD_OSC_DpOSE_, symObjAddr: 0x4A4D0, symBinAddr: 0x10004D0C0, symSize: 0x80 }
  - { offsetInCU: 0x72A1E, offset: 0x72A1E, size: 0x8, addend: 0x0, symName: __ZNSt3__14__muB7v160006IPN4crow6detail10task_timerENS_5tupleIJRKNS_10error_codeEEEEEENS_9enable_ifIXaaaantsr18is_bind_expressionIT_EE5valueeqsr14is_placeholderISB_EE5valueLi0Entsr22__is_reference_wrapperISB_EE5valueERSB_E4typeESC_RT0_, symObjAddr: 0x4A550, symBinAddr: 0x10004D140, symSize: 0x20 }
  - { offsetInCU: 0x72A67, offset: 0x72A67, size: 0x8, addend: 0x0, symName: __ZNSt3__13getB7v160006ILm0EJPN4crow6detail10task_timerENS_12placeholders4__phILi1EEEEEERNS_13tuple_elementIXT_ENS_5tupleIJDpT0_EEEE4typeERSC_, symObjAddr: 0x4A570, symBinAddr: 0x10004D160, symSize: 0x20 }
  - { offsetInCU: 0x72AB0, offset: 0x72AB0, size: 0x8, addend: 0x0, symName: __ZNSt3__14__muB7v160006INS_12placeholders4__phILi1EEENS_5tupleIJRKNS_10error_codeEEEEEENS_9enable_ifIXltLi0Esr14is_placeholderIT_EE5valueENS_12__mu_return2IXltLi0Esr14is_placeholderISA_EE5valueESA_T0_E4typeEE4typeERSA_RSC_, symObjAddr: 0x4A590, symBinAddr: 0x10004D180, symSize: 0x30 }
  - { offsetInCU: 0x72B08, offset: 0x72B08, size: 0x8, addend: 0x0, symName: __ZNSt3__13getB7v160006ILm1EJPN4crow6detail10task_timerENS_12placeholders4__phILi1EEEEEERNS_13tuple_elementIXT_ENS_5tupleIJDpT0_EEEE4typeERSC_, symObjAddr: 0x4A5C0, symBinAddr: 0x10004D1B0, symSize: 0x20 }
  - { offsetInCU: 0x72B50, offset: 0x72B50, size: 0x8, addend: 0x0, symName: __ZNSt3__13getB7v160006ILm0EJRKNS_10error_codeEEEERNS_13tuple_elementIXT_ENS_5tupleIJDpT0_EEEE4typeERS8_, symObjAddr: 0x4A5F0, symBinAddr: 0x10004D1E0, symSize: 0x20 }
  - { offsetInCU: 0x72BCF, offset: 0x72BCF, size: 0x8, addend: 0x0, symName: __ZNSt3__119__allocate_at_leastB7v160006INS_9allocatorIN4asio6detail11timer_queueINS3_18chrono_time_traitsINS_6chrono12steady_clockENS2_11wait_traitsIS7_EEEEE10heap_entryEEEEENS_19__allocation_resultINS_16allocator_traitsIT_E7pointerEEERSG_m, symObjAddr: 0x4C840, symBinAddr: 0x10004F430, symSize: 0x40 }
  - { offsetInCU: 0x72C17, offset: 0x72C17, size: 0x8, addend: 0x0, symName: __ZNSt3__142__uninitialized_allocator_move_if_noexceptB7v160006INS_9allocatorIN4asio6detail11timer_queueINS3_18chrono_time_traitsINS_6chrono12steady_clockENS2_11wait_traitsIS7_EEEEE10heap_entryEEENS_16reverse_iteratorIPSC_EESG_SC_vEET1_RT_T0_SK_SH_, symObjAddr: 0x4C9D0, symBinAddr: 0x10004F5C0, symSize: 0x70 }
  - { offsetInCU: 0x72C94, offset: 0x72C94, size: 0x8, addend: 0x0, symName: __ZNSt3__14swapB7v160006IPN4asio6detail11timer_queueINS2_18chrono_time_traitsINS_6chrono12steady_clockENS1_11wait_traitsIS6_EEEEE10heap_entryEEENS_9enable_ifIXaasr21is_move_constructibleIT_EE5valuesr18is_move_assignableISE_EE5valueEvE4typeERSE_SH_, symObjAddr: 0x4CA90, symBinAddr: 0x10004F680, symSize: 0x40 }
  - { offsetInCU: 0x72CED, offset: 0x72CED, size: 0x8, addend: 0x0, symName: __ZNSt3__14moveB7v160006INS_16reverse_iteratorIPN4asio6detail11timer_queueINS3_18chrono_time_traitsINS_6chrono12steady_clockENS2_11wait_traitsIS7_EEEEE10heap_entryEEESE_EET0_T_SG_SF_, symObjAddr: 0x4CB80, symBinAddr: 0x10004F770, symSize: 0x80 }
  - { offsetInCU: 0x72D4F, offset: 0x72D4F, size: 0x8, addend: 0x0, symName: __ZNSt3__16__moveB7v160006INS_17_ClassicAlgPolicyENS_16reverse_iteratorIPN4asio6detail11timer_queueINS4_18chrono_time_traitsINS_6chrono12steady_clockENS3_11wait_traitsIS8_EEEEE10heap_entryEEESF_SF_EENS_4pairIT0_T2_EESH_T1_SI_, symObjAddr: 0x4CC00, symBinAddr: 0x10004F7F0, symSize: 0x90 }
  - { offsetInCU: 0x72DC3, offset: 0x72DC3, size: 0x8, addend: 0x0, symName: __ZNSt3__123__dispatch_copy_or_moveB7v160006INS_17_ClassicAlgPolicyENS_11__move_loopIS1_EENS_14__move_trivialENS_16reverse_iteratorIPN4asio6detail11timer_queueINS7_18chrono_time_traitsINS_6chrono12steady_clockENS6_11wait_traitsISB_EEEEE10heap_entryEEESI_SI_EENS_4pairIT2_T4_EESK_T3_SL_, symObjAddr: 0x4CC90, symBinAddr: 0x10004F880, symSize: 0x90 }
  - { offsetInCU: 0x72E49, offset: 0x72E49, size: 0x8, addend: 0x0, symName: __ZNSt3__121__unwrap_and_dispatchB7v160006INS_10__overloadINS_11__move_loopINS_17_ClassicAlgPolicyEEENS_14__move_trivialEEENS_16reverse_iteratorIPN4asio6detail11timer_queueINS9_18chrono_time_traitsINS_6chrono12steady_clockENS8_11wait_traitsISD_EEEEE10heap_entryEEESK_SK_Li0EEENS_4pairIT0_T2_EESM_T1_SN_, symObjAddr: 0x4CD20, symBinAddr: 0x10004F910, symSize: 0x210 }
  - { offsetInCU: 0x72EE5, offset: 0x72EE5, size: 0x8, addend: 0x0, symName: __ZNSt3__114__unwrap_rangeB7v160006INS_16reverse_iteratorIPN4asio6detail11timer_queueINS3_18chrono_time_traitsINS_6chrono12steady_clockENS2_11wait_traitsIS7_EEEEE10heap_entryEEESE_EENS_4pairIT0_SG_EET_SI_, symObjAddr: 0x4CF30, symBinAddr: 0x10004FB20, symSize: 0x90 }
  - { offsetInCU: 0x7300B, offset: 0x7300B, size: 0x8, addend: 0x0, symName: __ZNSt3__113__unwrap_iterB7v160006INS_16reverse_iteratorIPN4asio6detail11timer_queueINS3_18chrono_time_traitsINS_6chrono12steady_clockENS2_11wait_traitsIS7_EEEEE10heap_entryEEENS_18__unwrap_iter_implISE_Lb0EEELi0EEEDTclsrT0_8__unwrapclsr3stdE7declvalIT_EEEESI_, symObjAddr: 0x4D060, symBinAddr: 0x10004FC50, symSize: 0x40 }
  - { offsetInCU: 0x73053, offset: 0x73053, size: 0x8, addend: 0x0, symName: __ZNSt3__19make_pairB7v160006INS_16reverse_iteratorIPN4asio6detail11timer_queueINS3_18chrono_time_traitsINS_6chrono12steady_clockENS2_11wait_traitsIS7_EEEEE10heap_entryEEESE_EENS_4pairINS_18__unwrap_ref_decayIT_E4typeENSG_IT0_E4typeEEEOSH_OSK_, symObjAddr: 0x4D0A0, symBinAddr: 0x10004FC90, symSize: 0x30 }
  - { offsetInCU: 0x730A3, offset: 0x730A3, size: 0x8, addend: 0x0, symName: __ZNSt3__114__rewrap_rangeB7v160006INS_16reverse_iteratorIPN4asio6detail11timer_queueINS3_18chrono_time_traitsINS_6chrono12steady_clockENS2_11wait_traitsIS7_EEEEE10heap_entryEEESE_EET_SF_T0_, symObjAddr: 0x4D0D0, symBinAddr: 0x10004FCC0, symSize: 0x60 }
  - { offsetInCU: 0x730F5, offset: 0x730F5, size: 0x8, addend: 0x0, symName: __ZNSt3__113__rewrap_iterB7v160006INS_16reverse_iteratorIPN4asio6detail11timer_queueINS3_18chrono_time_traitsINS_6chrono12steady_clockENS2_11wait_traitsIS7_EEEEE10heap_entryEEESE_NS_18__unwrap_iter_implISE_Lb0EEEEET_SH_T0_, symObjAddr: 0x4D130, symBinAddr: 0x10004FD20, symSize: 0x70 }
  - { offsetInCU: 0x73150, offset: 0x73150, size: 0x8, addend: 0x0, symName: __ZNSt3__1neB7v160006IPN4asio6detail11timer_queueINS2_18chrono_time_traitsINS_6chrono12steady_clockENS1_11wait_traitsIS6_EEEEE10heap_entryESC_EEbRKNS_16reverse_iteratorIT_EERKNSD_IT0_EE, symObjAddr: 0x4D1A0, symBinAddr: 0x10004FD90, symSize: 0x40 }
  - { offsetInCU: 0x7322B, offset: 0x7322B, size: 0x8, addend: 0x0, symName: __ZNSt3__1neB7v160006ERKNS_14__map_iteratorINS_15__tree_iteratorINS_12__value_typeImNS_4pairINS_6chrono10time_pointINS4_12steady_clockENS4_8durationIxNS_5ratioILl1ELl1000000000EEEEEEENS_8functionIFvvEEEEEEEPNS_11__tree_nodeISG_PvEElEEEESO_, symObjAddr: 0x4DA50, symBinAddr: 0x100050640, symSize: 0x30 }
  - { offsetInCU: 0x73269, offset: 0x73269, size: 0x8, addend: 0x0, symName: __ZNSt3__1neB7v160006IPmEEbRKNS_11__wrap_iterIT_EES6_, symObjAddr: 0x4DCE0, symBinAddr: 0x1000508D0, symSize: 0x30 }
  - { offsetInCU: 0x732AE, offset: 0x732AE, size: 0x8, addend: 0x0, symName: __ZNSt3__119__debug_db_insert_cB7v160006INS_6vectorImNS_9allocatorImEEEEEEvPT_, symObjAddr: 0x4DE60, symBinAddr: 0x100050A50, symSize: 0x10 }
  - { offsetInCU: 0x732E2, offset: 0x732E2, size: 0x8, addend: 0x0, symName: __ZNSt3__1neB7v160006ERKNS_15__tree_iteratorINS_12__value_typeImNS_4pairINS_6chrono10time_pointINS3_12steady_clockENS3_8durationIxNS_5ratioILl1ELl1000000000EEEEEEENS_8functionIFvvEEEEEEEPNS_11__tree_nodeISF_PvEElEESM_, symObjAddr: 0x4E020, symBinAddr: 0x100050C10, symSize: 0x30 }
  - { offsetInCU: 0x7331F, offset: 0x7331F, size: 0x8, addend: 0x0, symName: __ZNSt3__1eqB7v160006ERKNS_15__tree_iteratorINS_12__value_typeImNS_4pairINS_6chrono10time_pointINS3_12steady_clockENS3_8durationIxNS_5ratioILl1ELl1000000000EEEEEEENS_8functionIFvvEEEEEEEPNS_11__tree_nodeISF_PvEElEESM_, symObjAddr: 0x4E050, symBinAddr: 0x100050C40, symSize: 0x30 }
  - { offsetInCU: 0x7338F, offset: 0x7338F, size: 0x8, addend: 0x0, symName: __ZNSt3__17launderB7v160006INS_4pairIKmNS1_INS_6chrono10time_pointINS3_12steady_clockENS3_8durationIxNS_5ratioILl1ELl1000000000EEEEEEENS_8functionIFvvEEEEEEEEEPT_SH_, symObjAddr: 0x4E100, symBinAddr: 0x100050CF0, symSize: 0x20 }
  - { offsetInCU: 0x733C6, offset: 0x733C6, size: 0x8, addend: 0x0, symName: __ZNSt3__19__launderB7v160006INS_4pairIKmNS1_INS_6chrono10time_pointINS3_12steady_clockENS3_8durationIxNS_5ratioILl1ELl1000000000EEEEEEENS_8functionIFvvEEEEEEEEEPT_SH_, symObjAddr: 0x4E120, symBinAddr: 0x100050D10, symSize: 0x10 }
  - { offsetInCU: 0x733FE, offset: 0x733FE, size: 0x8, addend: 0x0, symName: __ZNSt3__112__to_addressB7v160006ImEEPT_S2_, symObjAddr: 0x4E360, symBinAddr: 0x100050F50, symSize: 0x10 }
  - { offsetInCU: 0x73434, offset: 0x73434, size: 0x8, addend: 0x0, symName: __ZNSt3__119__allocate_at_leastB7v160006INS_9allocatorImEEEENS_19__allocation_resultINS_16allocator_traitsIT_E7pointerEEERS5_m, symObjAddr: 0x4E920, symBinAddr: 0x100051510, symSize: 0x40 }
  - { offsetInCU: 0x7347C, offset: 0x7347C, size: 0x8, addend: 0x0, symName: __ZNSt3__142__uninitialized_allocator_move_if_noexceptB7v160006INS_9allocatorImEENS_16reverse_iteratorIPmEES5_mvEET1_RT_T0_S9_S6_, symObjAddr: 0x4EB60, symBinAddr: 0x100051750, symSize: 0x70 }
  - { offsetInCU: 0x734F9, offset: 0x734F9, size: 0x8, addend: 0x0, symName: __ZNSt3__14swapB7v160006IPmEENS_9enable_ifIXaasr21is_move_constructibleIT_EE5valuesr18is_move_assignableIS3_EE5valueEvE4typeERS3_S6_, symObjAddr: 0x4EC20, symBinAddr: 0x100051810, symSize: 0x40 }
  - { offsetInCU: 0x73552, offset: 0x73552, size: 0x8, addend: 0x0, symName: __ZNSt3__125__debug_db_invalidate_allB7v160006INS_6vectorImNS_9allocatorImEEEEEEvPT_, symObjAddr: 0x4ED10, symBinAddr: 0x100051900, symSize: 0x10 }
  - { offsetInCU: 0x73587, offset: 0x73587, size: 0x8, addend: 0x0, symName: __ZNSt3__14moveB7v160006INS_16reverse_iteratorIPmEES3_EET0_T_S5_S4_, symObjAddr: 0x4ED60, symBinAddr: 0x100051950, symSize: 0x80 }
  - { offsetInCU: 0x735E9, offset: 0x735E9, size: 0x8, addend: 0x0, symName: __ZNSt3__16__moveB7v160006INS_17_ClassicAlgPolicyENS_16reverse_iteratorIPmEES4_S4_EENS_4pairIT0_T2_EES6_T1_S7_, symObjAddr: 0x4EDE0, symBinAddr: 0x1000519D0, symSize: 0x90 }
  - { offsetInCU: 0x7365D, offset: 0x7365D, size: 0x8, addend: 0x0, symName: __ZNSt3__123__dispatch_copy_or_moveB7v160006INS_17_ClassicAlgPolicyENS_11__move_loopIS1_EENS_14__move_trivialENS_16reverse_iteratorIPmEES7_S7_EENS_4pairIT2_T4_EES9_T3_SA_, symObjAddr: 0x4EE70, symBinAddr: 0x100051A60, symSize: 0x90 }
  - { offsetInCU: 0x736E3, offset: 0x736E3, size: 0x8, addend: 0x0, symName: __ZNSt3__121__unwrap_and_dispatchB7v160006INS_10__overloadINS_11__move_loopINS_17_ClassicAlgPolicyEEENS_14__move_trivialEEENS_16reverse_iteratorIPmEES9_S9_Li0EEENS_4pairIT0_T2_EESB_T1_SC_, symObjAddr: 0x4EF00, symBinAddr: 0x100051AF0, symSize: 0x210 }
  - { offsetInCU: 0x7377F, offset: 0x7377F, size: 0x8, addend: 0x0, symName: __ZNSt3__114__unwrap_rangeB7v160006INS_16reverse_iteratorIPmEES3_EENS_4pairIT0_S5_EET_S7_, symObjAddr: 0x4F110, symBinAddr: 0x100051D00, symSize: 0x90 }
  - { offsetInCU: 0x738A5, offset: 0x738A5, size: 0x8, addend: 0x0, symName: __ZNSt3__113__unwrap_iterB7v160006INS_16reverse_iteratorIPmEENS_18__unwrap_iter_implIS3_Lb0EEELi0EEEDTclsrT0_8__unwrapclsr3stdE7declvalIT_EEEES7_, symObjAddr: 0x4F240, symBinAddr: 0x100051E30, symSize: 0x40 }
  - { offsetInCU: 0x738ED, offset: 0x738ED, size: 0x8, addend: 0x0, symName: __ZNSt3__19make_pairB7v160006INS_16reverse_iteratorIPmEES3_EENS_4pairINS_18__unwrap_ref_decayIT_E4typeENS5_IT0_E4typeEEEOS6_OS9_, symObjAddr: 0x4F280, symBinAddr: 0x100051E70, symSize: 0x30 }
  - { offsetInCU: 0x7393D, offset: 0x7393D, size: 0x8, addend: 0x0, symName: __ZNSt3__114__rewrap_rangeB7v160006INS_16reverse_iteratorIPmEES3_EET_S4_T0_, symObjAddr: 0x4F2B0, symBinAddr: 0x100051EA0, symSize: 0x60 }
  - { offsetInCU: 0x7398F, offset: 0x7398F, size: 0x8, addend: 0x0, symName: __ZNSt3__113__rewrap_iterB7v160006INS_16reverse_iteratorIPmEES3_NS_18__unwrap_iter_implIS3_Lb0EEEEET_S6_T0_, symObjAddr: 0x4F310, symBinAddr: 0x100051F00, symSize: 0x70 }
  - { offsetInCU: 0x739EA, offset: 0x739EA, size: 0x8, addend: 0x0, symName: __ZNSt3__1neB7v160006IPmS1_EEbRKNS_16reverse_iteratorIT_EERKNS2_IT0_EE, symObjAddr: 0x4F380, symBinAddr: 0x100051F70, symSize: 0x40 }
  - { offsetInCU: 0x73AA9, offset: 0x73AA9, size: 0x8, addend: 0x0, symName: __ZNSt3__1lsB7v160006INS_11char_traitsIcEEEERNS_13basic_ostreamIcT_EES6_c, symObjAddr: 0x4F790, symBinAddr: 0x100052380, symSize: 0x30 }
  - { offsetInCU: 0x73AF0, offset: 0x73AF0, size: 0x8, addend: 0x0, symName: __ZNSt3__116__tree_next_iterB7v160006IPNS_15__tree_end_nodeIPNS_16__tree_node_baseIPvEEEES5_EET_T0_, symObjAddr: 0x4F7F0, symBinAddr: 0x1000523E0, symSize: 0x90 }
  - { offsetInCU: 0x73B2F, offset: 0x73B2F, size: 0x8, addend: 0x0, symName: __ZNSt3__110__tree_minB7v160006IPNS_16__tree_node_baseIPvEEEET_S5_, symObjAddr: 0x4F880, symBinAddr: 0x100052470, symSize: 0x30 }
  - { offsetInCU: 0x73B65, offset: 0x73B65, size: 0x8, addend: 0x0, symName: __ZNSt3__120__tree_is_left_childB7v160006IPNS_16__tree_node_baseIPvEEEEbT_, symObjAddr: 0x4F8B0, symBinAddr: 0x1000524A0, symSize: 0x30 }
  - { offsetInCU: 0x73B9B, offset: 0x73B9B, size: 0x8, addend: 0x0, symName: __ZNSt3__1eqB7v160006IPmEEbRKNS_11__wrap_iterIT_EES6_, symObjAddr: 0x4F980, symBinAddr: 0x100052570, symSize: 0x40 }
  - { offsetInCU: 0x73BDF, offset: 0x73BDF, size: 0x8, addend: 0x0, symName: __ZNSt3__17launderB7v160006IKNS_4pairIKmNS1_INS_6chrono10time_pointINS3_12steady_clockENS3_8durationIxNS_5ratioILl1ELl1000000000EEEEEEENS_8functionIFvvEEEEEEEEEPT_SI_, symObjAddr: 0x4FDF0, symBinAddr: 0x1000529E0, symSize: 0x20 }
  - { offsetInCU: 0x73C16, offset: 0x73C16, size: 0x8, addend: 0x0, symName: __ZNSt3__19__launderB7v160006IKNS_4pairIKmNS1_INS_6chrono10time_pointINS3_12steady_clockENS3_8durationIxNS_5ratioILl1ELl1000000000EEEEEEENS_8functionIFvvEEEEEEEEEPT_SI_, symObjAddr: 0x4FE10, symBinAddr: 0x100052A00, symSize: 0x10 }
  - { offsetInCU: 0x73C4D, offset: 0x73C4D, size: 0x8, addend: 0x0, symName: __ZNSt3__113__tree_removeB7v160006IPNS_16__tree_node_baseIPvEEEEvT_S5_, symObjAddr: 0x50050, symBinAddr: 0x100052C40, symSize: 0x5E0 }
  - { offsetInCU: 0x73CCC, offset: 0x73CCC, size: 0x8, addend: 0x0, symName: __ZNSt3__111__tree_nextB7v160006IPNS_16__tree_node_baseIPvEEEET_S5_, symObjAddr: 0x50670, symBinAddr: 0x100053260, symSize: 0x80 }
  - { offsetInCU: 0x73D01, offset: 0x73D01, size: 0x8, addend: 0x0, symName: __ZNSt3__118__tree_left_rotateB7v160006IPNS_16__tree_node_baseIPvEEEEvT_, symObjAddr: 0x50710, symBinAddr: 0x100053300, symSize: 0xC0 }
  - { offsetInCU: 0x73D43, offset: 0x73D43, size: 0x8, addend: 0x0, symName: __ZNSt3__119__tree_right_rotateB7v160006IPNS_16__tree_node_baseIPvEEEEvT_, symObjAddr: 0x507D0, symBinAddr: 0x1000533C0, symSize: 0xC0 }
  - { offsetInCU: 0x73D86, offset: 0x73D86, size: 0x8, addend: 0x0, symName: __ZNSt3__118__debug_db_erase_cB7v160006INS_6vectorImNS_9allocatorImEEEEEEvPT_, symObjAddr: 0x50B00, symBinAddr: 0x1000536F0, symSize: 0x10 }
  - { offsetInCU: 0x73DBA, offset: 0x73DBA, size: 0x8, addend: 0x0, symName: __ZNSt3__118__cxx_atomic_storeB7v160006IjEEvPNS_22__cxx_atomic_base_implIT_EES2_NS_12memory_orderE, symObjAddr: 0x50CE0, symBinAddr: 0x1000538D0, symSize: 0x70 }
  - { offsetInCU: 0x73E0B, offset: 0x73E0B, size: 0x8, addend: 0x0, symName: __ZNSt3__122__cxx_atomic_fetch_addB7v160006IiEET_PNS_22__cxx_atomic_base_implIS1_EES1_NS_12memory_orderE, symObjAddr: 0x50D80, symBinAddr: 0x100053970, symSize: 0xC0 }
  - { offsetInCU: 0x7425D, offset: 0x7425D, size: 0x8, addend: 0x0, symName: __ZNSt3__122__libcpp_thread_createB7v160006EPP17_opaque_pthread_tPFPvS3_ES3_, symObjAddr: 0x51210, symBinAddr: 0x100053E00, symSize: 0x30 }
  - { offsetInCU: 0x742A9, offset: 0x742A9, size: 0x8, addend: 0x0, symName: __ZNSt3__114__thread_proxyB7v160006INS_5tupleIJNS_10unique_ptrINS_15__thread_structENS_14default_deleteIS3_EEEEMNS_19__async_assoc_stateIvNS_12__async_funcIZN4crow6ServerINS9_4CrowIJNS9_11CORSHandlerEEEENS9_13SocketAdaptorEJSC_EE3runEvEUlvE_JEEEEEFvvEPSI_EEEEEPvSN_, symObjAddr: 0x51240, symBinAddr: 0x100053E30, symSize: 0xA0 }
  - { offsetInCU: 0x743F7, offset: 0x743F7, size: 0x8, addend: 0x0, symName: __ZNSt3__13getB7v160006ILm0EJNS_10unique_ptrINS_15__thread_structENS_14default_deleteIS2_EEEEMNS_19__async_assoc_stateIvNS_12__async_funcIZN4crow6ServerINS8_4CrowIJNS8_11CORSHandlerEEEENS8_13SocketAdaptorEJSB_EE3runEvEUlvE_JEEEEEFvvEPSH_EEERNS_13tuple_elementIXT_ENS_5tupleIJDpT0_EEEE4typeERSP_, symObjAddr: 0x518C0, symBinAddr: 0x1000544B0, symSize: 0x20 }
  - { offsetInCU: 0x74444, offset: 0x74444, size: 0x8, addend: 0x0, symName: __ZNSt3__116__thread_executeB7v160006INS_10unique_ptrINS_15__thread_structENS_14default_deleteIS2_EEEEMNS_19__async_assoc_stateIvNS_12__async_funcIZN4crow6ServerINS8_4CrowIJNS8_11CORSHandlerEEEENS8_13SocketAdaptorEJSB_EE3runEvEUlvE_JEEEEEFvvEJPSH_EJLm2EEEEvRNS_5tupleIJT_T0_DpT1_EEENS_15__tuple_indicesIJXspT2_EEEE, symObjAddr: 0x518E0, symBinAddr: 0x1000544D0, symSize: 0x40 }
  - { offsetInCU: 0x744A2, offset: 0x744A2, size: 0x8, addend: 0x0, symName: __ZNSt3__116__libcpp_tls_setB7v160006EmPv, symObjAddr: 0x51920, symBinAddr: 0x100054510, symSize: 0x30 }
  - { offsetInCU: 0x744E0, offset: 0x744E0, size: 0x8, addend: 0x0, symName: __ZNSt3__18__invokeB7v160006IMNS_19__async_assoc_stateIvNS_12__async_funcIZN4crow6ServerINS3_4CrowIJNS3_11CORSHandlerEEEENS3_13SocketAdaptorEJS6_EE3runEvEUlvE_JEEEEEFvvEPSC_JEvEEDTcldsdeclsr3stdE7declvalIT0_EEclsr3stdE7declvalIT_EEspclsr3stdE7declvalIT1_EEEEOSH_OSG_DpOSI_, symObjAddr: 0x51960, symBinAddr: 0x100054550, symSize: 0x70 }
  - { offsetInCU: 0x74536, offset: 0x74536, size: 0x8, addend: 0x0, symName: __ZNSt3__13getB7v160006ILm1EJNS_10unique_ptrINS_15__thread_structENS_14default_deleteIS2_EEEEMNS_19__async_assoc_stateIvNS_12__async_funcIZN4crow6ServerINS8_4CrowIJNS8_11CORSHandlerEEEENS8_13SocketAdaptorEJSB_EE3runEvEUlvE_JEEEEEFvvEPSH_EEERNS_13tuple_elementIXT_ENS_5tupleIJDpT0_EEEE4typeERSP_, symObjAddr: 0x519D0, symBinAddr: 0x1000545C0, symSize: 0x20 }
  - { offsetInCU: 0x74583, offset: 0x74583, size: 0x8, addend: 0x0, symName: __ZNSt3__13getB7v160006ILm2EJNS_10unique_ptrINS_15__thread_structENS_14default_deleteIS2_EEEEMNS_19__async_assoc_stateIvNS_12__async_funcIZN4crow6ServerINS8_4CrowIJNS8_11CORSHandlerEEEENS8_13SocketAdaptorEJSB_EE3runEvEUlvE_JEEEEEFvvEPSH_EEERNS_13tuple_elementIXT_ENS_5tupleIJDpT0_EEEE4typeERSP_, symObjAddr: 0x519F0, symBinAddr: 0x1000545E0, symSize: 0x20 }
  - { offsetInCU: 0x745D1, offset: 0x745D1, size: 0x8, addend: 0x0, symName: __ZNSt3__134__libcpp_atomic_refcount_decrementB7v160006IlEET_RS1_, symObjAddr: 0x51E70, symBinAddr: 0x100054A60, symSize: 0x30 }
  - { offsetInCU: 0x749BA, offset: 0x749BA, size: 0x8, addend: 0x0, symName: __ZNSt3__1neB7v160006IPNS_10unique_ptrIN4asio10io_contextENS_14default_deleteIS3_EEEEEEbRKNS_11__wrap_iterIT_EESC_, symObjAddr: 0x55F70, symBinAddr: 0x100058B60, symSize: 0x30 }
  - { offsetInCU: 0x749FE, offset: 0x749FE, size: 0x8, addend: 0x0, symName: __ZNSt3__1neB7v160006IN4asio10io_contextENS_14default_deleteIS2_EEEEbRKNS_10unique_ptrIT_T0_EEDn, symObjAddr: 0x55FC0, symBinAddr: 0x100058BB0, symSize: 0x30 }
  - { offsetInCU: 0x74A4A, offset: 0x74A4A, size: 0x8, addend: 0x0, symName: __ZNSt3__1eqB7v160006IPNS_10unique_ptrIN4asio10io_contextENS_14default_deleteIS3_EEEEEEbRKNS_11__wrap_iterIT_EESC_, symObjAddr: 0x561A0, symBinAddr: 0x100058D90, symSize: 0x40 }
  - { offsetInCU: 0x74A8F, offset: 0x74A8F, size: 0x8, addend: 0x0, symName: __ZNSt3__121__libcpp_thread_yieldB7v160006Ev, symObjAddr: 0x57060, symBinAddr: 0x100059C50, symSize: 0x10 }
  - { offsetInCU: 0x74AA9, offset: 0x74AA9, size: 0x8, addend: 0x0, symName: __ZNSt3__111make_sharedB7v160006IN4crow10ConnectionINS1_13SocketAdaptorENS1_4CrowIJNS1_11CORSHandlerEEEEJS5_EEEJRN4asio10io_contextERPS6_RNS_12basic_stringIcNS_11char_traitsIcEENS_9allocatorIcEEEERPNS_5tupleIJS5_EEERNS_8functionIFSI_vEEERNS1_6detail10task_timerERPvRNS_6atomicIjEEEvEENS_10shared_ptrIT_EEDpOT0_, symObjAddr: 0x572A0, symBinAddr: 0x100059E90, symSize: 0x90 }
  - { offsetInCU: 0x74B78, offset: 0x74B78, size: 0x8, addend: 0x0, symName: __ZNSt3__122__cxx_atomic_fetch_addB7v160006IjEET_PNS_22__cxx_atomic_base_implIS1_EES1_NS_12memory_orderE, symObjAddr: 0x57520, symBinAddr: 0x10005A110, symSize: 0xC0 }
  - { offsetInCU: 0x74BCD, offset: 0x74BCD, size: 0x8, addend: 0x0, symName: __ZNSt3__115allocate_sharedB7v160006IN4crow10ConnectionINS1_13SocketAdaptorENS1_4CrowIJNS1_11CORSHandlerEEEEJS5_EEENS_9allocatorIS7_EEJRN4asio10io_contextERPS6_RNS_12basic_stringIcNS_11char_traitsIcEENS8_IcEEEERPNS_5tupleIJS5_EEERNS_8functionIFSJ_vEEERNS1_6detail10task_timerERPvRNS_6atomicIjEEEvEENS_10shared_ptrIT_EERKT0_DpOT1_, symObjAddr: 0x575E0, symBinAddr: 0x10005A1D0, symSize: 0x100 }
  - { offsetInCU: 0x74F7E, offset: 0x74F7E, size: 0x8, addend: 0x0, symName: __ZNSt3__119__debug_db_insert_cB7v160006INS_6vectorIPcNS_9allocatorIS2_EEEEEEvPT_, symObjAddr: 0x585C0, symBinAddr: 0x10005B1B0, symSize: 0x10 }
  - { offsetInCU: 0x74FB3, offset: 0x74FB3, size: 0x8, addend: 0x0, symName: __ZNSt3__118__debug_db_erase_cB7v160006INS_6vectorIPcNS_9allocatorIS2_EEEEEEvPT_, symObjAddr: 0x58930, symBinAddr: 0x10005B520, symSize: 0x10 }
  - { offsetInCU: 0x74FE8, offset: 0x74FE8, size: 0x8, addend: 0x0, symName: __ZNSt3__112__to_addressB7v160006IPcEEPT_S3_, symObjAddr: 0x58A40, symBinAddr: 0x10005B630, symSize: 0x10 }
  - { offsetInCU: 0x7501E, offset: 0x7501E, size: 0x8, addend: 0x0, symName: __ZNSt3__119__debug_db_insert_cB7v160006INS_6vectorIN4asio12const_bufferENS_9allocatorIS3_EEEEEEvPT_, symObjAddr: 0x58DE0, symBinAddr: 0x10005B9D0, symSize: 0x10 }
  - { offsetInCU: 0x75053, offset: 0x75053, size: 0x8, addend: 0x0, symName: __ZNSt3__118__debug_db_erase_cB7v160006INS_6vectorIN4asio12const_bufferENS_9allocatorIS3_EEEEEEvPT_, symObjAddr: 0x59070, symBinAddr: 0x10005BC60, symSize: 0x10 }
  - { offsetInCU: 0x75088, offset: 0x75088, size: 0x8, addend: 0x0, symName: __ZNSt3__112__to_addressB7v160006IN4asio12const_bufferEEEPT_S4_, symObjAddr: 0x59180, symBinAddr: 0x10005BD70, symSize: 0x10 }
  - { offsetInCU: 0x750BE, offset: 0x750BE, size: 0x8, addend: 0x0, symName: __ZNSt3__118__debug_db_erase_cB7v160006INS_6vectorINS_12basic_stringIcNS_11char_traitsIcEENS_9allocatorIcEEEENS5_IS7_EEEEEEvPT_, symObjAddr: 0x59770, symBinAddr: 0x10005C360, symSize: 0x10 }
  - { offsetInCU: 0x750F3, offset: 0x750F3, size: 0x8, addend: 0x0, symName: __ZNSt3__112__to_addressB7v160006INS_12basic_stringIcNS_11char_traitsIcEENS_9allocatorIcEEEEEEPT_S8_, symObjAddr: 0x598A0, symBinAddr: 0x10005C490, symSize: 0x10 }
  - { offsetInCU: 0x75129, offset: 0x75129, size: 0x8, addend: 0x0, symName: __ZNSt3__118__debug_db_erase_cB7v160006INS_6vectorIdNS_9allocatorIdEEEEEEvPT_, symObjAddr: 0x59C20, symBinAddr: 0x10005C810, symSize: 0x10 }
  - { offsetInCU: 0x7515E, offset: 0x7515E, size: 0x8, addend: 0x0, symName: __ZNSt3__112__to_addressB7v160006IdEEPT_S2_, symObjAddr: 0x59D30, symBinAddr: 0x10005C920, symSize: 0x10 }
  - { offsetInCU: 0x75194, offset: 0x75194, size: 0x8, addend: 0x0, symName: __ZNSt3__118__debug_db_erase_cB7v160006INS_6vectorIyNS_9allocatorIyEEEEEEvPT_, symObjAddr: 0x5A090, symBinAddr: 0x10005CC80, symSize: 0x10 }
  - { offsetInCU: 0x751C9, offset: 0x751C9, size: 0x8, addend: 0x0, symName: __ZNSt3__112__to_addressB7v160006IyEEPT_S2_, symObjAddr: 0x5A1A0, symBinAddr: 0x10005CD90, symSize: 0x10 }
  - { offsetInCU: 0x751FF, offset: 0x751FF, size: 0x8, addend: 0x0, symName: __ZNSt3__118__debug_db_erase_cB7v160006INS_6vectorIxNS_9allocatorIxEEEEEEvPT_, symObjAddr: 0x5A500, symBinAddr: 0x10005D0F0, symSize: 0x10 }
  - { offsetInCU: 0x75234, offset: 0x75234, size: 0x8, addend: 0x0, symName: __ZNSt3__112__to_addressB7v160006IxEEPT_S2_, symObjAddr: 0x5A610, symBinAddr: 0x10005D200, symSize: 0x10 }
  - { offsetInCU: 0x7526A, offset: 0x7526A, size: 0x8, addend: 0x0, symName: __ZNSt3__118__debug_db_erase_cB7v160006INS_6vectorItNS_9allocatorItEEEEEEvPT_, symObjAddr: 0x5A970, symBinAddr: 0x10005D560, symSize: 0x10 }
  - { offsetInCU: 0x7529F, offset: 0x7529F, size: 0x8, addend: 0x0, symName: __ZNSt3__112__to_addressB7v160006ItEEPT_S2_, symObjAddr: 0x5AA80, symBinAddr: 0x10005D670, symSize: 0x10 }
  - { offsetInCU: 0x7532C, offset: 0x7532C, size: 0x8, addend: 0x0, symName: __ZNSt3__121__libcpp_relaxed_loadB7v160006IlEET_PKS1_, symObjAddr: 0x5B100, symBinAddr: 0x10005DCF0, symSize: 0x20 }
  - { offsetInCU: 0x75362, offset: 0x75362, size: 0x8, addend: 0x0, symName: __ZNSt3__134__libcpp_atomic_refcount_incrementB7v160006IlEET_RS1_, symObjAddr: 0x5B1B0, symBinAddr: 0x10005DDA0, symSize: 0x30 }
  - { offsetInCU: 0x753BC, offset: 0x753BC, size: 0x8, addend: 0x0, symName: __ZNSt3__14swapB7v160006IPN4crow10ConnectionINS1_13SocketAdaptorENS1_4CrowIJNS1_11CORSHandlerEEEEJS5_EEEEENS_9enable_ifIXaasr21is_move_constructibleIT_EE5valuesr18is_move_assignableISA_EE5valueEvE4typeERSA_SD_, symObjAddr: 0x5B2C0, symBinAddr: 0x10005DEB0, symSize: 0x40 }
  - { offsetInCU: 0x75415, offset: 0x75415, size: 0x8, addend: 0x0, symName: __ZNSt3__14swapB7v160006IPNS_19__shared_weak_countEEENS_9enable_ifIXaasr21is_move_constructibleIT_EE5valuesr18is_move_assignableIS4_EE5valueEvE4typeERS4_S7_, symObjAddr: 0x5B300, symBinAddr: 0x10005DEF0, symSize: 0x40 }
  - { offsetInCU: 0x7546E, offset: 0x7546E, size: 0x8, addend: 0x0, symName: __ZNSt3__120__throw_bad_weak_ptrB7v160006Ev, symObjAddr: 0x5D3C0, symBinAddr: 0x10005FFB0, symSize: 0x40 }
  - { offsetInCU: 0x75533, offset: 0x75533, size: 0x8, addend: 0x0, symName: __ZNSt3__127__tree_balance_after_insertB7v160006IPNS_16__tree_node_baseIPvEEEEvT_S5_, symObjAddr: 0x5ECB0, symBinAddr: 0x1000618A0, symSize: 0x240 }
  - { offsetInCU: 0x75712, offset: 0x75712, size: 0x8, addend: 0x0, symName: __ZNSt3__116forward_as_tupleB7v160006IJZN4crow10ConnectionINS1_13SocketAdaptorENS1_4CrowIJNS1_11CORSHandlerEEEEJS5_EE14start_deadlineEvEUlvE_EEENS_5tupleIJDpOT_EEESC_, symObjAddr: 0x5F880, symBinAddr: 0x100062470, symSize: 0x30 }
  - { offsetInCU: 0x7574B, offset: 0x7574B, size: 0x8, addend: 0x0, symName: __ZNSt3__116forward_as_tupleB7v160006IJNS_9allocatorIZN4crow10ConnectionINS2_13SocketAdaptorENS2_4CrowIJNS2_11CORSHandlerEEEEJS6_EE14start_deadlineEvEUlvE_EEEEENS_5tupleIJDpOT_EEESE_, symObjAddr: 0x5F8B0, symBinAddr: 0x1000624A0, symSize: 0x30 }
  - { offsetInCU: 0x757B2, offset: 0x757B2, size: 0x8, addend: 0x0, symName: __ZNSt3__13getB7v160006ILm0EJOZN4crow10ConnectionINS1_13SocketAdaptorENS1_4CrowIJNS1_11CORSHandlerEEEEJS5_EE14start_deadlineEvEUlvE_EEERNS_13tuple_elementIXT_ENS_5tupleIJDpT0_EEEE4typeERSE_, symObjAddr: 0x5FBC0, symBinAddr: 0x1000627B0, symSize: 0x20 }
  - { offsetInCU: 0x757F6, offset: 0x757F6, size: 0x8, addend: 0x0, symName: __ZNSt3__13getB7v160006ILm0EJONS_9allocatorIZN4crow10ConnectionINS2_13SocketAdaptorENS2_4CrowIJNS2_11CORSHandlerEEEEJS6_EE14start_deadlineEvEUlvE_EEEEERNS_13tuple_elementIXT_ENS_5tupleIJDpT0_EEEE4typeERSG_, symObjAddr: 0x5FCD0, symBinAddr: 0x1000628C0, symSize: 0x20 }
  - { offsetInCU: 0x75D28, offset: 0x75D28, size: 0x8, addend: 0x0, symName: __ZNSt3__116forward_as_tupleB7v160006IJRKZN4crow10ConnectionINS1_13SocketAdaptorENS1_4CrowIJNS1_11CORSHandlerEEEEJS5_EE14start_deadlineEvEUlvE_EEENS_5tupleIJDpOT_EEESE_, symObjAddr: 0x60260, symBinAddr: 0x100062E50, symSize: 0x30 }
  - { offsetInCU: 0x75D78, offset: 0x75D78, size: 0x8, addend: 0x0, symName: __ZNSt3__13getB7v160006ILm0EJRKZN4crow10ConnectionINS1_13SocketAdaptorENS1_4CrowIJNS1_11CORSHandlerEEEEJS5_EE14start_deadlineEvEUlvE_EEERNS_13tuple_elementIXT_ENS_5tupleIJDpT0_EEEE4typeERSF_, symObjAddr: 0x60430, symBinAddr: 0x100063020, symSize: 0x20 }
  - { offsetInCU: 0x75DBC, offset: 0x75DBC, size: 0x8, addend: 0x0, symName: __ZNSt3__116forward_as_tupleB7v160006IJRKNS_9allocatorIZN4crow10ConnectionINS2_13SocketAdaptorENS2_4CrowIJNS2_11CORSHandlerEEEEJS6_EE14start_deadlineEvEUlvE_EEEEENS_5tupleIJDpOT_EEESG_, symObjAddr: 0x60790, symBinAddr: 0x100063380, symSize: 0x30 }
  - { offsetInCU: 0x75E0C, offset: 0x75E0C, size: 0x8, addend: 0x0, symName: __ZNSt3__13getB7v160006ILm0EJRKNS_9allocatorIZN4crow10ConnectionINS2_13SocketAdaptorENS2_4CrowIJNS2_11CORSHandlerEEEEJS6_EE14start_deadlineEvEUlvE_EEEEERNS_13tuple_elementIXT_ENS_5tupleIJDpT0_EEEE4typeERSH_, symObjAddr: 0x60960, symBinAddr: 0x100063550, symSize: 0x20 }
  - { offsetInCU: 0x75E51, offset: 0x75E51, size: 0x8, addend: 0x0, symName: __ZNSt3__18__invokeB7v160006IRZN4crow10ConnectionINS1_13SocketAdaptorENS1_4CrowIJNS1_11CORSHandlerEEEEJS5_EE14start_deadlineEvEUlvE_JEEEDTclclsr3stdE7declvalIT_EEspclsr3stdE7declvalIT0_EEEEOSA_DpOSB_, symObjAddr: 0x60A30, symBinAddr: 0x100063620, symSize: 0x20 }
  - { offsetInCU: 0x75E8D, offset: 0x75E8D, size: 0x8, addend: 0x0, symName: __ZNSt3__1neB7v160006IPPcEEbRKNS_11__wrap_iterIT_EES7_, symObjAddr: 0x61040, symBinAddr: 0x100063C30, symSize: 0x30 }
  - { offsetInCU: 0x75ED2, offset: 0x75ED2, size: 0x8, addend: 0x0, symName: __ZNSt3__115__debug_db_swapB7v160006INS_6vectorIPcNS_9allocatorIS2_EEEEEEvPT_S7_, symObjAddr: 0x61230, symBinAddr: 0x100063E20, symSize: 0x10 }
  - { offsetInCU: 0x75F17, offset: 0x75F17, size: 0x8, addend: 0x0, symName: __ZNSt3__125__debug_db_invalidate_allB7v160006INS_6vectorIPcNS_9allocatorIS2_EEEEEEvPT_, symObjAddr: 0x61330, symBinAddr: 0x100063F20, symSize: 0x10 }
  - { offsetInCU: 0x75F4C, offset: 0x75F4C, size: 0x8, addend: 0x0, symName: __ZNSt3__1eqB7v160006IPPcEEbRKNS_11__wrap_iterIT_EES7_, symObjAddr: 0x61420, symBinAddr: 0x100064010, symSize: 0x40 }
  - { offsetInCU: 0x75FB5, offset: 0x75FB5, size: 0x8, addend: 0x0, symName: __ZNSt3__1miB7v160006IPKcPcEEDTmicldtfp_4baseEcldtfp0_4baseEERKNS_11__wrap_iterIT_EERKNS5_IT0_EE, symObjAddr: 0x681D0, symBinAddr: 0x10006ADC0, symSize: 0x40 }
  - { offsetInCU: 0x76003, offset: 0x76003, size: 0x8, addend: 0x0, symName: __ZNSt3__18distanceB7v160006IPKcEENS_15iterator_traitsIT_E15difference_typeES4_S4_, symObjAddr: 0x68210, symBinAddr: 0x10006AE00, symSize: 0x30 }
  - { offsetInCU: 0x7604C, offset: 0x7604C, size: 0x8, addend: 0x0, symName: __ZNSt3__110__distanceB7v160006IPKcEENS_15iterator_traitsIT_E15difference_typeES4_S4_NS_26random_access_iterator_tagE, symObjAddr: 0x68660, symBinAddr: 0x10006B250, symSize: 0x20 }
  - { offsetInCU: 0x760A1, offset: 0x760A1, size: 0x8, addend: 0x0, symName: __ZNSt3__1L18__char_traits_moveB7v160006IcEEPT_S2_PKS1_m, symObjAddr: 0x68730, symBinAddr: 0x10006B320, symSize: 0x40 }
  - { offsetInCU: 0x760F6, offset: 0x760F6, size: 0x8, addend: 0x0, symName: __ZNSt3__119__allocate_at_leastB7v160006INS_9allocatorIPcEEEENS_19__allocation_resultINS_16allocator_traitsIT_E7pointerEEERS6_m, symObjAddr: 0x69510, symBinAddr: 0x10006C100, symSize: 0x40 }
  - { offsetInCU: 0x7613E, offset: 0x7613E, size: 0x8, addend: 0x0, symName: __ZNSt3__142__uninitialized_allocator_move_if_noexceptB7v160006INS_9allocatorIPcEENS_16reverse_iteratorIPS2_EES6_S2_vEET1_RT_T0_SA_S7_, symObjAddr: 0x69750, symBinAddr: 0x10006C340, symSize: 0x70 }
  - { offsetInCU: 0x761BB, offset: 0x761BB, size: 0x8, addend: 0x0, symName: __ZNSt3__14swapB7v160006IPPcEENS_9enable_ifIXaasr21is_move_constructibleIT_EE5valuesr18is_move_assignableIS4_EE5valueEvE4typeERS4_S7_, symObjAddr: 0x69810, symBinAddr: 0x10006C400, symSize: 0x40 }
  - { offsetInCU: 0x76214, offset: 0x76214, size: 0x8, addend: 0x0, symName: __ZNSt3__14moveB7v160006INS_16reverse_iteratorIPPcEES4_EET0_T_S6_S5_, symObjAddr: 0x69900, symBinAddr: 0x10006C4F0, symSize: 0x80 }
  - { offsetInCU: 0x76276, offset: 0x76276, size: 0x8, addend: 0x0, symName: __ZNSt3__16__moveB7v160006INS_17_ClassicAlgPolicyENS_16reverse_iteratorIPPcEES5_S5_EENS_4pairIT0_T2_EES7_T1_S8_, symObjAddr: 0x69980, symBinAddr: 0x10006C570, symSize: 0x90 }
  - { offsetInCU: 0x762EA, offset: 0x762EA, size: 0x8, addend: 0x0, symName: __ZNSt3__123__dispatch_copy_or_moveB7v160006INS_17_ClassicAlgPolicyENS_11__move_loopIS1_EENS_14__move_trivialENS_16reverse_iteratorIPPcEES8_S8_EENS_4pairIT2_T4_EESA_T3_SB_, symObjAddr: 0x69A10, symBinAddr: 0x10006C600, symSize: 0x90 }
  - { offsetInCU: 0x76370, offset: 0x76370, size: 0x8, addend: 0x0, symName: __ZNSt3__121__unwrap_and_dispatchB7v160006INS_10__overloadINS_11__move_loopINS_17_ClassicAlgPolicyEEENS_14__move_trivialEEENS_16reverse_iteratorIPPcEESA_SA_Li0EEENS_4pairIT0_T2_EESC_T1_SD_, symObjAddr: 0x69AA0, symBinAddr: 0x10006C690, symSize: 0x210 }
  - { offsetInCU: 0x7640C, offset: 0x7640C, size: 0x8, addend: 0x0, symName: __ZNSt3__114__unwrap_rangeB7v160006INS_16reverse_iteratorIPPcEES4_EENS_4pairIT0_S6_EET_S8_, symObjAddr: 0x69CB0, symBinAddr: 0x10006C8A0, symSize: 0x90 }
  - { offsetInCU: 0x76532, offset: 0x76532, size: 0x8, addend: 0x0, symName: __ZNSt3__113__unwrap_iterB7v160006INS_16reverse_iteratorIPPcEENS_18__unwrap_iter_implIS4_Lb0EEELi0EEEDTclsrT0_8__unwrapclsr3stdE7declvalIT_EEEES8_, symObjAddr: 0x69DE0, symBinAddr: 0x10006C9D0, symSize: 0x40 }
  - { offsetInCU: 0x7657A, offset: 0x7657A, size: 0x8, addend: 0x0, symName: __ZNSt3__19make_pairB7v160006INS_16reverse_iteratorIPPcEES4_EENS_4pairINS_18__unwrap_ref_decayIT_E4typeENS6_IT0_E4typeEEEOS7_OSA_, symObjAddr: 0x69E20, symBinAddr: 0x10006CA10, symSize: 0x30 }
  - { offsetInCU: 0x765CA, offset: 0x765CA, size: 0x8, addend: 0x0, symName: __ZNSt3__114__rewrap_rangeB7v160006INS_16reverse_iteratorIPPcEES4_EET_S5_T0_, symObjAddr: 0x69E50, symBinAddr: 0x10006CA40, symSize: 0x60 }
  - { offsetInCU: 0x7661C, offset: 0x7661C, size: 0x8, addend: 0x0, symName: __ZNSt3__113__rewrap_iterB7v160006INS_16reverse_iteratorIPPcEES4_NS_18__unwrap_iter_implIS4_Lb0EEEEET_S7_T0_, symObjAddr: 0x69EB0, symBinAddr: 0x10006CAA0, symSize: 0x70 }
  - { offsetInCU: 0x76677, offset: 0x76677, size: 0x8, addend: 0x0, symName: __ZNSt3__1neB7v160006IPPcS2_EEbRKNS_16reverse_iteratorIT_EERKNS3_IT0_EE, symObjAddr: 0x69F20, symBinAddr: 0x10006CB10, symSize: 0x40 }
  - { offsetInCU: 0x76737, offset: 0x76737, size: 0x8, addend: 0x0, symName: __ZNSt3__119__debug_db_insert_cB7v160006INS_6vectorItNS_9allocatorItEEEEEEvPT_, symObjAddr: 0x6C620, symBinAddr: 0x10006F210, symSize: 0x10 }
  - { offsetInCU: 0x7676C, offset: 0x7676C, size: 0x8, addend: 0x0, symName: __ZNSt3__119__debug_db_insert_cB7v160006INS_6vectorIxNS_9allocatorIxEEEEEEvPT_, symObjAddr: 0x6C840, symBinAddr: 0x10006F430, symSize: 0x10 }
  - { offsetInCU: 0x767A1, offset: 0x767A1, size: 0x8, addend: 0x0, symName: __ZNSt3__119__debug_db_insert_cB7v160006INS_6vectorIyNS_9allocatorIyEEEEEEvPT_, symObjAddr: 0x6C990, symBinAddr: 0x10006F580, symSize: 0x10 }
  - { offsetInCU: 0x767D6, offset: 0x767D6, size: 0x8, addend: 0x0, symName: __ZNSt3__119__debug_db_insert_cB7v160006INS_6vectorIdNS_9allocatorIdEEEEEEvPT_, symObjAddr: 0x6CAE0, symBinAddr: 0x10006F6D0, symSize: 0x10 }
  - { offsetInCU: 0x7680B, offset: 0x7680B, size: 0x8, addend: 0x0, symName: __ZNSt3__119__debug_db_insert_cB7v160006INS_6vectorINS_12basic_stringIcNS_11char_traitsIcEENS_9allocatorIcEEEENS5_IS7_EEEEEEvPT_, symObjAddr: 0x6CC30, symBinAddr: 0x10006F820, symSize: 0x10 }
  - { offsetInCU: 0x76840, offset: 0x76840, size: 0x8, addend: 0x0, symName: __ZNSt3__122__make_exception_guardB7v160006INS_6vectorItNS_9allocatorItEEE16__destroy_vectorEEENS_28__exception_guard_exceptionsIT_EES7_, symObjAddr: 0x6CF50, symBinAddr: 0x10006FB40, symSize: 0x40 }
  - { offsetInCU: 0x76876, offset: 0x76876, size: 0x8, addend: 0x0, symName: __ZNSt3__119__allocate_at_leastB7v160006INS_9allocatorItEEEENS_19__allocation_resultINS_16allocator_traitsIT_E7pointerEEERS5_m, symObjAddr: 0x6D250, symBinAddr: 0x10006FE40, symSize: 0x40 }
  - { offsetInCU: 0x768BE, offset: 0x768BE, size: 0x8, addend: 0x0, symName: __ZNSt3__130__uninitialized_allocator_copyB7v160006INS_9allocatorItEEPtS3_S3_EET2_RT_T0_T1_S4_, symObjAddr: 0x6D450, symBinAddr: 0x100070040, symSize: 0x100 }
  - { offsetInCU: 0x7695D, offset: 0x7695D, size: 0x8, addend: 0x0, symName: __ZNSt3__122__make_exception_guardB7v160006INS_29_AllocatorDestroyRangeReverseINS_9allocatorItEEPtEEEENS_28__exception_guard_exceptionsIT_EES7_, symObjAddr: 0x6D5B0, symBinAddr: 0x1000701A0, symSize: 0x60 }
  - { offsetInCU: 0x76992, offset: 0x76992, size: 0x8, addend: 0x0, symName: __ZNSt3__119__allocator_destroyB7v160006INS_9allocatorItEENS_16reverse_iteratorIPtEES5_EEvRT_T0_T1_, symObjAddr: 0x6D830, symBinAddr: 0x100070420, symSize: 0x70 }
  - { offsetInCU: 0x769F6, offset: 0x769F6, size: 0x8, addend: 0x0, symName: __ZNSt3__1neB7v160006IPtS1_EEbRKNS_16reverse_iteratorIT_EERKNS2_IT0_EE, symObjAddr: 0x6D8D0, symBinAddr: 0x1000704C0, symSize: 0x40 }
  - { offsetInCU: 0x76A44, offset: 0x76A44, size: 0x8, addend: 0x0, symName: __ZNSt3__112__to_addressB7v160006INS_16reverse_iteratorIPtEEvEENS_5decayIDTclsr19__to_address_helperIT_EE6__callclsr3stdE7declvalIRKS5_EEEEE4typeES7_, symObjAddr: 0x6D910, symBinAddr: 0x100070500, symSize: 0x20 }
  - { offsetInCU: 0x76AA5, offset: 0x76AA5, size: 0x8, addend: 0x0, symName: __ZNSt3__122__make_exception_guardB7v160006INS_6vectorIxNS_9allocatorIxEEE16__destroy_vectorEEENS_28__exception_guard_exceptionsIT_EES7_, symObjAddr: 0x6DDA0, symBinAddr: 0x100070990, symSize: 0x40 }
  - { offsetInCU: 0x76ADB, offset: 0x76ADB, size: 0x8, addend: 0x0, symName: __ZNSt3__119__allocate_at_leastB7v160006INS_9allocatorIxEEEENS_19__allocation_resultINS_16allocator_traitsIT_E7pointerEEERS5_m, symObjAddr: 0x6E0A0, symBinAddr: 0x100070C90, symSize: 0x40 }
  - { offsetInCU: 0x76B23, offset: 0x76B23, size: 0x8, addend: 0x0, symName: __ZNSt3__130__uninitialized_allocator_copyB7v160006INS_9allocatorIxEEPxS3_S3_EET2_RT_T0_T1_S4_, symObjAddr: 0x6E2A0, symBinAddr: 0x100070E90, symSize: 0x100 }
  - { offsetInCU: 0x76BC2, offset: 0x76BC2, size: 0x8, addend: 0x0, symName: __ZNSt3__122__make_exception_guardB7v160006INS_29_AllocatorDestroyRangeReverseINS_9allocatorIxEEPxEEEENS_28__exception_guard_exceptionsIT_EES7_, symObjAddr: 0x6E400, symBinAddr: 0x100070FF0, symSize: 0x60 }
  - { offsetInCU: 0x76BF7, offset: 0x76BF7, size: 0x8, addend: 0x0, symName: __ZNSt3__119__allocator_destroyB7v160006INS_9allocatorIxEENS_16reverse_iteratorIPxEES5_EEvRT_T0_T1_, symObjAddr: 0x6E680, symBinAddr: 0x100071270, symSize: 0x70 }
  - { offsetInCU: 0x76C5B, offset: 0x76C5B, size: 0x8, addend: 0x0, symName: __ZNSt3__1neB7v160006IPxS1_EEbRKNS_16reverse_iteratorIT_EERKNS2_IT0_EE, symObjAddr: 0x6E720, symBinAddr: 0x100071310, symSize: 0x40 }
  - { offsetInCU: 0x76CA9, offset: 0x76CA9, size: 0x8, addend: 0x0, symName: __ZNSt3__112__to_addressB7v160006INS_16reverse_iteratorIPxEEvEENS_5decayIDTclsr19__to_address_helperIT_EE6__callclsr3stdE7declvalIRKS5_EEEEE4typeES7_, symObjAddr: 0x6E760, symBinAddr: 0x100071350, symSize: 0x20 }
  - { offsetInCU: 0x76D0A, offset: 0x76D0A, size: 0x8, addend: 0x0, symName: __ZNSt3__122__make_exception_guardB7v160006INS_6vectorIyNS_9allocatorIyEEE16__destroy_vectorEEENS_28__exception_guard_exceptionsIT_EES7_, symObjAddr: 0x6EA50, symBinAddr: 0x100071640, symSize: 0x40 }
  - { offsetInCU: 0x76D40, offset: 0x76D40, size: 0x8, addend: 0x0, symName: __ZNSt3__119__allocate_at_leastB7v160006INS_9allocatorIyEEEENS_19__allocation_resultINS_16allocator_traitsIT_E7pointerEEERS5_m, symObjAddr: 0x6ED50, symBinAddr: 0x100071940, symSize: 0x40 }
  - { offsetInCU: 0x76D88, offset: 0x76D88, size: 0x8, addend: 0x0, symName: __ZNSt3__130__uninitialized_allocator_copyB7v160006INS_9allocatorIyEEPyS3_S3_EET2_RT_T0_T1_S4_, symObjAddr: 0x6EF50, symBinAddr: 0x100071B40, symSize: 0x100 }
  - { offsetInCU: 0x76E27, offset: 0x76E27, size: 0x8, addend: 0x0, symName: __ZNSt3__122__make_exception_guardB7v160006INS_29_AllocatorDestroyRangeReverseINS_9allocatorIyEEPyEEEENS_28__exception_guard_exceptionsIT_EES7_, symObjAddr: 0x6F0B0, symBinAddr: 0x100071CA0, symSize: 0x60 }
  - { offsetInCU: 0x76E5C, offset: 0x76E5C, size: 0x8, addend: 0x0, symName: __ZNSt3__119__allocator_destroyB7v160006INS_9allocatorIyEENS_16reverse_iteratorIPyEES5_EEvRT_T0_T1_, symObjAddr: 0x6F330, symBinAddr: 0x100071F20, symSize: 0x70 }
  - { offsetInCU: 0x76EC0, offset: 0x76EC0, size: 0x8, addend: 0x0, symName: __ZNSt3__1neB7v160006IPyS1_EEbRKNS_16reverse_iteratorIT_EERKNS2_IT0_EE, symObjAddr: 0x6F3D0, symBinAddr: 0x100071FC0, symSize: 0x40 }
  - { offsetInCU: 0x76F0E, offset: 0x76F0E, size: 0x8, addend: 0x0, symName: __ZNSt3__112__to_addressB7v160006INS_16reverse_iteratorIPyEEvEENS_5decayIDTclsr19__to_address_helperIT_EE6__callclsr3stdE7declvalIRKS5_EEEEE4typeES7_, symObjAddr: 0x6F410, symBinAddr: 0x100072000, symSize: 0x20 }
  - { offsetInCU: 0x76F6F, offset: 0x76F6F, size: 0x8, addend: 0x0, symName: __ZNSt3__122__make_exception_guardB7v160006INS_6vectorIdNS_9allocatorIdEEE16__destroy_vectorEEENS_28__exception_guard_exceptionsIT_EES7_, symObjAddr: 0x6F700, symBinAddr: 0x1000722F0, symSize: 0x40 }
  - { offsetInCU: 0x76FA5, offset: 0x76FA5, size: 0x8, addend: 0x0, symName: __ZNSt3__119__allocate_at_leastB7v160006INS_9allocatorIdEEEENS_19__allocation_resultINS_16allocator_traitsIT_E7pointerEEERS5_m, symObjAddr: 0x6FA00, symBinAddr: 0x1000725F0, symSize: 0x40 }
  - { offsetInCU: 0x76FED, offset: 0x76FED, size: 0x8, addend: 0x0, symName: __ZNSt3__130__uninitialized_allocator_copyB7v160006INS_9allocatorIdEEPdS3_S3_EET2_RT_T0_T1_S4_, symObjAddr: 0x6FC00, symBinAddr: 0x1000727F0, symSize: 0x100 }
  - { offsetInCU: 0x7708C, offset: 0x7708C, size: 0x8, addend: 0x0, symName: __ZNSt3__122__make_exception_guardB7v160006INS_29_AllocatorDestroyRangeReverseINS_9allocatorIdEEPdEEEENS_28__exception_guard_exceptionsIT_EES7_, symObjAddr: 0x6FD60, symBinAddr: 0x100072950, symSize: 0x60 }
  - { offsetInCU: 0x770C1, offset: 0x770C1, size: 0x8, addend: 0x0, symName: __ZNSt3__119__allocator_destroyB7v160006INS_9allocatorIdEENS_16reverse_iteratorIPdEES5_EEvRT_T0_T1_, symObjAddr: 0x6FFF0, symBinAddr: 0x100072BE0, symSize: 0x70 }
  - { offsetInCU: 0x77125, offset: 0x77125, size: 0x8, addend: 0x0, symName: __ZNSt3__1neB7v160006IPdS1_EEbRKNS_16reverse_iteratorIT_EERKNS2_IT0_EE, symObjAddr: 0x70090, symBinAddr: 0x100072C80, symSize: 0x40 }
  - { offsetInCU: 0x77173, offset: 0x77173, size: 0x8, addend: 0x0, symName: __ZNSt3__112__to_addressB7v160006INS_16reverse_iteratorIPdEEvEENS_5decayIDTclsr19__to_address_helperIT_EE6__callclsr3stdE7declvalIRKS5_EEEEE4typeES7_, symObjAddr: 0x700D0, symBinAddr: 0x100072CC0, symSize: 0x20 }
  - { offsetInCU: 0x771D4, offset: 0x771D4, size: 0x8, addend: 0x0, symName: __ZNSt3__122__make_exception_guardB7v160006INS_6vectorINS_12basic_stringIcNS_11char_traitsIcEENS_9allocatorIcEEEENS5_IS7_EEE16__destroy_vectorEEENS_28__exception_guard_exceptionsIT_EESC_, symObjAddr: 0x703C0, symBinAddr: 0x100072FB0, symSize: 0x40 }
  - { offsetInCU: 0x7720A, offset: 0x7720A, size: 0x8, addend: 0x0, symName: __ZNSt3__119__allocate_at_leastB7v160006INS_9allocatorINS_12basic_stringIcNS_11char_traitsIcEENS1_IcEEEEEEEENS_19__allocation_resultINS_16allocator_traitsIT_E7pointerEEERSA_m, symObjAddr: 0x706C0, symBinAddr: 0x1000732B0, symSize: 0x40 }
  - { offsetInCU: 0x77252, offset: 0x77252, size: 0x8, addend: 0x0, symName: __ZNSt3__130__uninitialized_allocator_copyB7v160006INS_9allocatorINS_12basic_stringIcNS_11char_traitsIcEENS1_IcEEEEEEPS6_S8_S8_EET2_RT_T0_T1_S9_, symObjAddr: 0x708B0, symBinAddr: 0x1000734A0, symSize: 0x100 }
  - { offsetInCU: 0x772F1, offset: 0x772F1, size: 0x8, addend: 0x0, symName: __ZNSt3__122__make_exception_guardB7v160006INS_29_AllocatorDestroyRangeReverseINS_9allocatorINS_12basic_stringIcNS_11char_traitsIcEENS2_IcEEEEEEPS7_EEEENS_28__exception_guard_exceptionsIT_EESC_, symObjAddr: 0x70A10, symBinAddr: 0x100073600, symSize: 0x60 }
  - { offsetInCU: 0x77326, offset: 0x77326, size: 0x8, addend: 0x0, symName: __ZNSt3__119__allocator_destroyB7v160006INS_9allocatorINS_12basic_stringIcNS_11char_traitsIcEENS1_IcEEEEEENS_16reverse_iteratorIPS6_EESA_EEvRT_T0_T1_, symObjAddr: 0x70CA0, symBinAddr: 0x100073890, symSize: 0x70 }
  - { offsetInCU: 0x7738A, offset: 0x7738A, size: 0x8, addend: 0x0, symName: __ZNSt3__1neB7v160006IPNS_12basic_stringIcNS_11char_traitsIcEENS_9allocatorIcEEEES7_EEbRKNS_16reverse_iteratorIT_EERKNS8_IT0_EE, symObjAddr: 0x70D40, symBinAddr: 0x100073930, symSize: 0x40 }
  - { offsetInCU: 0x773D8, offset: 0x773D8, size: 0x8, addend: 0x0, symName: __ZNSt3__112__to_addressB7v160006INS_16reverse_iteratorIPNS_12basic_stringIcNS_11char_traitsIcEENS_9allocatorIcEEEEEEvEENS_5decayIDTclsr19__to_address_helperIT_EE6__callclsr3stdE7declvalIRKSB_EEEEE4typeESD_, symObjAddr: 0x70D80, symBinAddr: 0x100073970, symSize: 0x20 }
  - { offsetInCU: 0x77439, offset: 0x77439, size: 0x8, addend: 0x0, symName: __ZNSt3__115__debug_db_swapB7v160006INS_6vectorItNS_9allocatorItEEEEEEvPT_S6_, symObjAddr: 0x72540, symBinAddr: 0x100075130, symSize: 0x10 }
  - { offsetInCU: 0x7747E, offset: 0x7747E, size: 0x8, addend: 0x0, symName: __ZNSt3__125__debug_db_invalidate_allB7v160006INS_6vectorItNS_9allocatorItEEEEEEvPT_, symObjAddr: 0x72640, symBinAddr: 0x100075230, symSize: 0x10 }
  - { offsetInCU: 0x774B2, offset: 0x774B2, size: 0x8, addend: 0x0, symName: __ZNSt3__142__uninitialized_allocator_move_if_noexceptB7v160006INS_9allocatorIxEENS_16reverse_iteratorIPxEES5_xvEET1_RT_T0_S9_S6_, symObjAddr: 0x72CE0, symBinAddr: 0x1000758D0, symSize: 0x70 }
  - { offsetInCU: 0x7752F, offset: 0x7752F, size: 0x8, addend: 0x0, symName: __ZNSt3__14swapB7v160006IPxEENS_9enable_ifIXaasr21is_move_constructibleIT_EE5valuesr18is_move_assignableIS3_EE5valueEvE4typeERS3_S6_, symObjAddr: 0x72D50, symBinAddr: 0x100075940, symSize: 0x40 }
  - { offsetInCU: 0x77588, offset: 0x77588, size: 0x8, addend: 0x0, symName: __ZNSt3__125__debug_db_invalidate_allB7v160006INS_6vectorIxNS_9allocatorIxEEEEEEvPT_, symObjAddr: 0x72D90, symBinAddr: 0x100075980, symSize: 0x10 }
  - { offsetInCU: 0x775BD, offset: 0x775BD, size: 0x8, addend: 0x0, symName: __ZNSt3__14moveB7v160006INS_16reverse_iteratorIPxEES3_EET0_T_S5_S4_, symObjAddr: 0x72DA0, symBinAddr: 0x100075990, symSize: 0x80 }
  - { offsetInCU: 0x7761F, offset: 0x7761F, size: 0x8, addend: 0x0, symName: __ZNSt3__16__moveB7v160006INS_17_ClassicAlgPolicyENS_16reverse_iteratorIPxEES4_S4_EENS_4pairIT0_T2_EES6_T1_S7_, symObjAddr: 0x72E20, symBinAddr: 0x100075A10, symSize: 0x90 }
  - { offsetInCU: 0x77693, offset: 0x77693, size: 0x8, addend: 0x0, symName: __ZNSt3__123__dispatch_copy_or_moveB7v160006INS_17_ClassicAlgPolicyENS_11__move_loopIS1_EENS_14__move_trivialENS_16reverse_iteratorIPxEES7_S7_EENS_4pairIT2_T4_EES9_T3_SA_, symObjAddr: 0x72EB0, symBinAddr: 0x100075AA0, symSize: 0x90 }
  - { offsetInCU: 0x77719, offset: 0x77719, size: 0x8, addend: 0x0, symName: __ZNSt3__121__unwrap_and_dispatchB7v160006INS_10__overloadINS_11__move_loopINS_17_ClassicAlgPolicyEEENS_14__move_trivialEEENS_16reverse_iteratorIPxEES9_S9_Li0EEENS_4pairIT0_T2_EESB_T1_SC_, symObjAddr: 0x72F40, symBinAddr: 0x100075B30, symSize: 0x210 }
  - { offsetInCU: 0x777B5, offset: 0x777B5, size: 0x8, addend: 0x0, symName: __ZNSt3__114__unwrap_rangeB7v160006INS_16reverse_iteratorIPxEES3_EENS_4pairIT0_S5_EET_S7_, symObjAddr: 0x73150, symBinAddr: 0x100075D40, symSize: 0x90 }
  - { offsetInCU: 0x778DB, offset: 0x778DB, size: 0x8, addend: 0x0, symName: __ZNSt3__113__unwrap_iterB7v160006INS_16reverse_iteratorIPxEENS_18__unwrap_iter_implIS3_Lb0EEELi0EEEDTclsrT0_8__unwrapclsr3stdE7declvalIT_EEEES7_, symObjAddr: 0x73280, symBinAddr: 0x100075E70, symSize: 0x40 }
  - { offsetInCU: 0x77923, offset: 0x77923, size: 0x8, addend: 0x0, symName: __ZNSt3__19make_pairB7v160006INS_16reverse_iteratorIPxEES3_EENS_4pairINS_18__unwrap_ref_decayIT_E4typeENS5_IT0_E4typeEEEOS6_OS9_, symObjAddr: 0x732C0, symBinAddr: 0x100075EB0, symSize: 0x30 }
  - { offsetInCU: 0x77973, offset: 0x77973, size: 0x8, addend: 0x0, symName: __ZNSt3__114__rewrap_rangeB7v160006INS_16reverse_iteratorIPxEES3_EET_S4_T0_, symObjAddr: 0x732F0, symBinAddr: 0x100075EE0, symSize: 0x60 }
  - { offsetInCU: 0x779C5, offset: 0x779C5, size: 0x8, addend: 0x0, symName: __ZNSt3__113__rewrap_iterB7v160006INS_16reverse_iteratorIPxEES3_NS_18__unwrap_iter_implIS3_Lb0EEEEET_S6_T0_, symObjAddr: 0x73350, symBinAddr: 0x100075F40, symSize: 0x70 }
  - { offsetInCU: 0x77A91, offset: 0x77A91, size: 0x8, addend: 0x0, symName: __ZNSt3__142__uninitialized_allocator_move_if_noexceptB7v160006INS_9allocatorItEENS_16reverse_iteratorIPtEES5_tvEET1_RT_T0_S9_S6_, symObjAddr: 0x73C40, symBinAddr: 0x100076830, symSize: 0x70 }
  - { offsetInCU: 0x77B0E, offset: 0x77B0E, size: 0x8, addend: 0x0, symName: __ZNSt3__14swapB7v160006IPtEENS_9enable_ifIXaasr21is_move_constructibleIT_EE5valuesr18is_move_assignableIS3_EE5valueEvE4typeERS3_S6_, symObjAddr: 0x73CB0, symBinAddr: 0x1000768A0, symSize: 0x40 }
  - { offsetInCU: 0x77B67, offset: 0x77B67, size: 0x8, addend: 0x0, symName: __ZNSt3__14moveB7v160006INS_16reverse_iteratorIPtEES3_EET0_T_S5_S4_, symObjAddr: 0x73CF0, symBinAddr: 0x1000768E0, symSize: 0x80 }
  - { offsetInCU: 0x77BC9, offset: 0x77BC9, size: 0x8, addend: 0x0, symName: __ZNSt3__16__moveB7v160006INS_17_ClassicAlgPolicyENS_16reverse_iteratorIPtEES4_S4_EENS_4pairIT0_T2_EES6_T1_S7_, symObjAddr: 0x73D70, symBinAddr: 0x100076960, symSize: 0x90 }
  - { offsetInCU: 0x77C3D, offset: 0x77C3D, size: 0x8, addend: 0x0, symName: __ZNSt3__123__dispatch_copy_or_moveB7v160006INS_17_ClassicAlgPolicyENS_11__move_loopIS1_EENS_14__move_trivialENS_16reverse_iteratorIPtEES7_S7_EENS_4pairIT2_T4_EES9_T3_SA_, symObjAddr: 0x73E00, symBinAddr: 0x1000769F0, symSize: 0x90 }
  - { offsetInCU: 0x77CC3, offset: 0x77CC3, size: 0x8, addend: 0x0, symName: __ZNSt3__121__unwrap_and_dispatchB7v160006INS_10__overloadINS_11__move_loopINS_17_ClassicAlgPolicyEEENS_14__move_trivialEEENS_16reverse_iteratorIPtEES9_S9_Li0EEENS_4pairIT0_T2_EESB_T1_SC_, symObjAddr: 0x73E90, symBinAddr: 0x100076A80, symSize: 0x210 }
  - { offsetInCU: 0x77D5F, offset: 0x77D5F, size: 0x8, addend: 0x0, symName: __ZNSt3__114__unwrap_rangeB7v160006INS_16reverse_iteratorIPtEES3_EENS_4pairIT0_S5_EET_S7_, symObjAddr: 0x740A0, symBinAddr: 0x100076C90, symSize: 0x90 }
  - { offsetInCU: 0x77E85, offset: 0x77E85, size: 0x8, addend: 0x0, symName: __ZNSt3__113__unwrap_iterB7v160006INS_16reverse_iteratorIPtEENS_18__unwrap_iter_implIS3_Lb0EEELi0EEEDTclsrT0_8__unwrapclsr3stdE7declvalIT_EEEES7_, symObjAddr: 0x741D0, symBinAddr: 0x100076DC0, symSize: 0x40 }
  - { offsetInCU: 0x77ECD, offset: 0x77ECD, size: 0x8, addend: 0x0, symName: __ZNSt3__19make_pairB7v160006INS_16reverse_iteratorIPtEES3_EENS_4pairINS_18__unwrap_ref_decayIT_E4typeENS5_IT0_E4typeEEEOS6_OS9_, symObjAddr: 0x74210, symBinAddr: 0x100076E00, symSize: 0x30 }
  - { offsetInCU: 0x77F1D, offset: 0x77F1D, size: 0x8, addend: 0x0, symName: __ZNSt3__114__rewrap_rangeB7v160006INS_16reverse_iteratorIPtEES3_EET_S4_T0_, symObjAddr: 0x74240, symBinAddr: 0x100076E30, symSize: 0x60 }
  - { offsetInCU: 0x77F6F, offset: 0x77F6F, size: 0x8, addend: 0x0, symName: __ZNSt3__113__rewrap_iterB7v160006INS_16reverse_iteratorIPtEES3_NS_18__unwrap_iter_implIS3_Lb0EEEEET_S6_T0_, symObjAddr: 0x742A0, symBinAddr: 0x100076E90, symSize: 0x70 }
  - { offsetInCU: 0x7803C, offset: 0x7803C, size: 0x8, addend: 0x0, symName: __ZNSt3__115__debug_db_swapB7v160006INS_6vectorIxNS_9allocatorIxEEEEEEvPT_S6_, symObjAddr: 0x74840, symBinAddr: 0x100077430, symSize: 0x10 }
  - { offsetInCU: 0x78081, offset: 0x78081, size: 0x8, addend: 0x0, symName: __ZNSt3__115__debug_db_swapB7v160006INS_6vectorIyNS_9allocatorIyEEEEEEvPT_S6_, symObjAddr: 0x74AD0, symBinAddr: 0x1000776C0, symSize: 0x10 }
  - { offsetInCU: 0x780C6, offset: 0x780C6, size: 0x8, addend: 0x0, symName: __ZNSt3__125__debug_db_invalidate_allB7v160006INS_6vectorIyNS_9allocatorIyEEEEEEvPT_, symObjAddr: 0x74BD0, symBinAddr: 0x1000777C0, symSize: 0x10 }
  - { offsetInCU: 0x780FB, offset: 0x780FB, size: 0x8, addend: 0x0, symName: __ZNSt3__115__debug_db_swapB7v160006INS_6vectorIdNS_9allocatorIdEEEEEEvPT_S6_, symObjAddr: 0x74D70, symBinAddr: 0x100077960, symSize: 0x10 }
  - { offsetInCU: 0x78140, offset: 0x78140, size: 0x8, addend: 0x0, symName: __ZNSt3__125__debug_db_invalidate_allB7v160006INS_6vectorIdNS_9allocatorIdEEEEEEvPT_, symObjAddr: 0x74E70, symBinAddr: 0x100077A60, symSize: 0x10 }
  - { offsetInCU: 0x78175, offset: 0x78175, size: 0x8, addend: 0x0, symName: __ZNSt3__115__debug_db_swapB7v160006INS_6vectorINS_12basic_stringIcNS_11char_traitsIcEENS_9allocatorIcEEEENS5_IS7_EEEEEEvPT_SB_, symObjAddr: 0x75010, symBinAddr: 0x100077C00, symSize: 0x10 }
  - { offsetInCU: 0x781BA, offset: 0x781BA, size: 0x8, addend: 0x0, symName: __ZNSt3__125__debug_db_invalidate_allB7v160006INS_6vectorINS_12basic_stringIcNS_11char_traitsIcEENS_9allocatorIcEEEENS5_IS7_EEEEEEvPT_, symObjAddr: 0x75110, symBinAddr: 0x100077D00, symSize: 0x10 }
  - { offsetInCU: 0x781EE, offset: 0x781EE, size: 0x8, addend: 0x0, symName: __ZNSt3__142__uninitialized_allocator_move_if_noexceptB7v160006INS_9allocatorIyEENS_16reverse_iteratorIPyEES5_yvEET1_RT_T0_S9_S6_, symObjAddr: 0x75810, symBinAddr: 0x100078400, symSize: 0x70 }
  - { offsetInCU: 0x7826B, offset: 0x7826B, size: 0x8, addend: 0x0, symName: __ZNSt3__14swapB7v160006IPyEENS_9enable_ifIXaasr21is_move_constructibleIT_EE5valuesr18is_move_assignableIS3_EE5valueEvE4typeERS3_S6_, symObjAddr: 0x75880, symBinAddr: 0x100078470, symSize: 0x40 }
  - { offsetInCU: 0x782C4, offset: 0x782C4, size: 0x8, addend: 0x0, symName: __ZNSt3__14moveB7v160006INS_16reverse_iteratorIPyEES3_EET0_T_S5_S4_, symObjAddr: 0x758C0, symBinAddr: 0x1000784B0, symSize: 0x80 }
  - { offsetInCU: 0x78326, offset: 0x78326, size: 0x8, addend: 0x0, symName: __ZNSt3__16__moveB7v160006INS_17_ClassicAlgPolicyENS_16reverse_iteratorIPyEES4_S4_EENS_4pairIT0_T2_EES6_T1_S7_, symObjAddr: 0x75940, symBinAddr: 0x100078530, symSize: 0x90 }
  - { offsetInCU: 0x7839A, offset: 0x7839A, size: 0x8, addend: 0x0, symName: __ZNSt3__123__dispatch_copy_or_moveB7v160006INS_17_ClassicAlgPolicyENS_11__move_loopIS1_EENS_14__move_trivialENS_16reverse_iteratorIPyEES7_S7_EENS_4pairIT2_T4_EES9_T3_SA_, symObjAddr: 0x759D0, symBinAddr: 0x1000785C0, symSize: 0x90 }
  - { offsetInCU: 0x78420, offset: 0x78420, size: 0x8, addend: 0x0, symName: __ZNSt3__121__unwrap_and_dispatchB7v160006INS_10__overloadINS_11__move_loopINS_17_ClassicAlgPolicyEEENS_14__move_trivialEEENS_16reverse_iteratorIPyEES9_S9_Li0EEENS_4pairIT0_T2_EESB_T1_SC_, symObjAddr: 0x75A60, symBinAddr: 0x100078650, symSize: 0x210 }
  - { offsetInCU: 0x784BC, offset: 0x784BC, size: 0x8, addend: 0x0, symName: __ZNSt3__114__unwrap_rangeB7v160006INS_16reverse_iteratorIPyEES3_EENS_4pairIT0_S5_EET_S7_, symObjAddr: 0x75C70, symBinAddr: 0x100078860, symSize: 0x90 }
  - { offsetInCU: 0x785E2, offset: 0x785E2, size: 0x8, addend: 0x0, symName: __ZNSt3__113__unwrap_iterB7v160006INS_16reverse_iteratorIPyEENS_18__unwrap_iter_implIS3_Lb0EEELi0EEEDTclsrT0_8__unwrapclsr3stdE7declvalIT_EEEES7_, symObjAddr: 0x75DA0, symBinAddr: 0x100078990, symSize: 0x40 }
  - { offsetInCU: 0x7862A, offset: 0x7862A, size: 0x8, addend: 0x0, symName: __ZNSt3__19make_pairB7v160006INS_16reverse_iteratorIPyEES3_EENS_4pairINS_18__unwrap_ref_decayIT_E4typeENS5_IT0_E4typeEEEOS6_OS9_, symObjAddr: 0x75DE0, symBinAddr: 0x1000789D0, symSize: 0x30 }
  - { offsetInCU: 0x7867A, offset: 0x7867A, size: 0x8, addend: 0x0, symName: __ZNSt3__114__rewrap_rangeB7v160006INS_16reverse_iteratorIPyEES3_EET_S4_T0_, symObjAddr: 0x75E10, symBinAddr: 0x100078A00, symSize: 0x60 }
  - { offsetInCU: 0x786CC, offset: 0x786CC, size: 0x8, addend: 0x0, symName: __ZNSt3__113__rewrap_iterB7v160006INS_16reverse_iteratorIPyEES3_NS_18__unwrap_iter_implIS3_Lb0EEEEET_S6_T0_, symObjAddr: 0x75E70, symBinAddr: 0x100078A60, symSize: 0x70 }
  - { offsetInCU: 0x78798, offset: 0x78798, size: 0x8, addend: 0x0, symName: __ZNSt3__142__uninitialized_allocator_move_if_noexceptB7v160006INS_9allocatorIdEENS_16reverse_iteratorIPdEES5_dvEET1_RT_T0_S9_S6_, symObjAddr: 0x767E0, symBinAddr: 0x1000793D0, symSize: 0x70 }
  - { offsetInCU: 0x78815, offset: 0x78815, size: 0x8, addend: 0x0, symName: __ZNSt3__14swapB7v160006IPdEENS_9enable_ifIXaasr21is_move_constructibleIT_EE5valuesr18is_move_assignableIS3_EE5valueEvE4typeERS3_S6_, symObjAddr: 0x76850, symBinAddr: 0x100079440, symSize: 0x40 }
  - { offsetInCU: 0x7886E, offset: 0x7886E, size: 0x8, addend: 0x0, symName: __ZNSt3__14moveB7v160006INS_16reverse_iteratorIPdEES3_EET0_T_S5_S4_, symObjAddr: 0x76890, symBinAddr: 0x100079480, symSize: 0x80 }
  - { offsetInCU: 0x788D0, offset: 0x788D0, size: 0x8, addend: 0x0, symName: __ZNSt3__16__moveB7v160006INS_17_ClassicAlgPolicyENS_16reverse_iteratorIPdEES4_S4_EENS_4pairIT0_T2_EES6_T1_S7_, symObjAddr: 0x76910, symBinAddr: 0x100079500, symSize: 0x90 }
  - { offsetInCU: 0x78944, offset: 0x78944, size: 0x8, addend: 0x0, symName: __ZNSt3__123__dispatch_copy_or_moveB7v160006INS_17_ClassicAlgPolicyENS_11__move_loopIS1_EENS_14__move_trivialENS_16reverse_iteratorIPdEES7_S7_EENS_4pairIT2_T4_EES9_T3_SA_, symObjAddr: 0x769A0, symBinAddr: 0x100079590, symSize: 0x90 }
  - { offsetInCU: 0x789CA, offset: 0x789CA, size: 0x8, addend: 0x0, symName: __ZNSt3__121__unwrap_and_dispatchB7v160006INS_10__overloadINS_11__move_loopINS_17_ClassicAlgPolicyEEENS_14__move_trivialEEENS_16reverse_iteratorIPdEES9_S9_Li0EEENS_4pairIT0_T2_EESB_T1_SC_, symObjAddr: 0x76A30, symBinAddr: 0x100079620, symSize: 0x210 }
  - { offsetInCU: 0x78A66, offset: 0x78A66, size: 0x8, addend: 0x0, symName: __ZNSt3__114__unwrap_rangeB7v160006INS_16reverse_iteratorIPdEES3_EENS_4pairIT0_S5_EET_S7_, symObjAddr: 0x76C40, symBinAddr: 0x100079830, symSize: 0x90 }
  - { offsetInCU: 0x78B8C, offset: 0x78B8C, size: 0x8, addend: 0x0, symName: __ZNSt3__113__unwrap_iterB7v160006INS_16reverse_iteratorIPdEENS_18__unwrap_iter_implIS3_Lb0EEELi0EEEDTclsrT0_8__unwrapclsr3stdE7declvalIT_EEEES7_, symObjAddr: 0x76D70, symBinAddr: 0x100079960, symSize: 0x40 }
  - { offsetInCU: 0x78BD4, offset: 0x78BD4, size: 0x8, addend: 0x0, symName: __ZNSt3__19make_pairB7v160006INS_16reverse_iteratorIPdEES3_EENS_4pairINS_18__unwrap_ref_decayIT_E4typeENS5_IT0_E4typeEEEOS6_OS9_, symObjAddr: 0x76DB0, symBinAddr: 0x1000799A0, symSize: 0x30 }
  - { offsetInCU: 0x78C24, offset: 0x78C24, size: 0x8, addend: 0x0, symName: __ZNSt3__114__rewrap_rangeB7v160006INS_16reverse_iteratorIPdEES3_EET_S4_T0_, symObjAddr: 0x76DE0, symBinAddr: 0x1000799D0, symSize: 0x60 }
  - { offsetInCU: 0x78C76, offset: 0x78C76, size: 0x8, addend: 0x0, symName: __ZNSt3__113__rewrap_iterB7v160006INS_16reverse_iteratorIPdEES3_NS_18__unwrap_iter_implIS3_Lb0EEEEET_S6_T0_, symObjAddr: 0x76E40, symBinAddr: 0x100079A30, symSize: 0x70 }
  - { offsetInCU: 0x78D42, offset: 0x78D42, size: 0x8, addend: 0x0, symName: __ZNSt3__142__uninitialized_allocator_move_if_noexceptB7v160006INS_9allocatorINS_12basic_stringIcNS_11char_traitsIcEENS1_IcEEEEEENS_16reverse_iteratorIPS6_EESA_SA_EET2_RT_T0_T1_SB_, symObjAddr: 0x777A0, symBinAddr: 0x10007A390, symSize: 0x170 }
  - { offsetInCU: 0x78DE2, offset: 0x78DE2, size: 0x8, addend: 0x0, symName: __ZNSt3__14swapB7v160006IPNS_12basic_stringIcNS_11char_traitsIcEENS_9allocatorIcEEEEEENS_9enable_ifIXaasr21is_move_constructibleIT_EE5valuesr18is_move_assignableIS9_EE5valueEvE4typeERS9_SC_, symObjAddr: 0x77910, symBinAddr: 0x10007A500, symSize: 0x40 }
  - { offsetInCU: 0x78E3B, offset: 0x78E3B, size: 0x8, addend: 0x0, symName: __ZNSt3__122__make_exception_guardB7v160006INS_29_AllocatorDestroyRangeReverseINS_9allocatorINS_12basic_stringIcNS_11char_traitsIcEENS2_IcEEEEEENS_16reverse_iteratorIPS7_EEEEEENS_28__exception_guard_exceptionsIT_EESE_, symObjAddr: 0x77950, symBinAddr: 0x10007A540, symSize: 0x60 }
  - { offsetInCU: 0x78E70, offset: 0x78E70, size: 0x8, addend: 0x0, symName: __ZNSt3__119__allocator_destroyB7v160006INS_9allocatorINS_12basic_stringIcNS_11char_traitsIcEENS1_IcEEEEEENS_16reverse_iteratorINS8_IPS6_EEEESB_EEvRT_T0_T1_, symObjAddr: 0x77C10, symBinAddr: 0x10007A800, symSize: 0x70 }
  - { offsetInCU: 0x78ED4, offset: 0x78ED4, size: 0x8, addend: 0x0, symName: __ZNSt3__1neB7v160006INS_16reverse_iteratorIPNS_12basic_stringIcNS_11char_traitsIcEENS_9allocatorIcEEEEEES9_EEbRKNS1_IT_EERKNS1_IT0_EE, symObjAddr: 0x77CB0, symBinAddr: 0x10007A8A0, symSize: 0x50 }
  - { offsetInCU: 0x78F22, offset: 0x78F22, size: 0x8, addend: 0x0, symName: __ZNSt3__112__to_addressB7v160006INS_16reverse_iteratorINS1_IPNS_12basic_stringIcNS_11char_traitsIcEENS_9allocatorIcEEEEEEEEvEENS_5decayIDTclsr19__to_address_helperIT_EE6__callclsr3stdE7declvalIRKSC_EEEEE4typeESE_, symObjAddr: 0x77D00, symBinAddr: 0x10007A8F0, symSize: 0x20 }
  - { offsetInCU: 0x78F82, offset: 0x78F82, size: 0x8, addend: 0x0, symName: __ZNSt3__1plB7v160006IcNS_11char_traitsIcEENS_9allocatorIcEEEENS_12basic_stringIT_T0_T1_EEOS9_S6_, symObjAddr: 0x787F0, symBinAddr: 0x10007B3E0, symSize: 0x50 }
  - { offsetInCU: 0x78FDA, offset: 0x78FDA, size: 0x8, addend: 0x0, symName: __ZNSt3__142__uninitialized_allocator_move_if_noexceptB7v160006INS_9allocatorIPN4crow9BlueprintEEENS_16reverse_iteratorIPS4_EES8_S4_vEET1_RT_T0_SC_S9_, symObjAddr: 0x79020, symBinAddr: 0x10007BC10, symSize: 0x70 }
  - { offsetInCU: 0x79057, offset: 0x79057, size: 0x8, addend: 0x0, symName: __ZNSt3__14swapB7v160006IPPN4crow9BlueprintEEENS_9enable_ifIXaasr21is_move_constructibleIT_EE5valuesr18is_move_assignableIS6_EE5valueEvE4typeERS6_S9_, symObjAddr: 0x79090, symBinAddr: 0x10007BC80, symSize: 0x40 }
  - { offsetInCU: 0x790B0, offset: 0x790B0, size: 0x8, addend: 0x0, symName: __ZNSt3__125__debug_db_invalidate_allB7v160006INS_6vectorIPN4crow9BlueprintENS_9allocatorIS4_EEEEEEvPT_, symObjAddr: 0x790D0, symBinAddr: 0x10007BCC0, symSize: 0x10 }
  - { offsetInCU: 0x790E5, offset: 0x790E5, size: 0x8, addend: 0x0, symName: __ZNSt3__14moveB7v160006INS_16reverse_iteratorIPPN4crow9BlueprintEEES6_EET0_T_S8_S7_, symObjAddr: 0x790E0, symBinAddr: 0x10007BCD0, symSize: 0x80 }
  - { offsetInCU: 0x79147, offset: 0x79147, size: 0x8, addend: 0x0, symName: __ZNSt3__16__moveB7v160006INS_17_ClassicAlgPolicyENS_16reverse_iteratorIPPN4crow9BlueprintEEES7_S7_EENS_4pairIT0_T2_EES9_T1_SA_, symObjAddr: 0x79160, symBinAddr: 0x10007BD50, symSize: 0x90 }
  - { offsetInCU: 0x791BB, offset: 0x791BB, size: 0x8, addend: 0x0, symName: __ZNSt3__123__dispatch_copy_or_moveB7v160006INS_17_ClassicAlgPolicyENS_11__move_loopIS1_EENS_14__move_trivialENS_16reverse_iteratorIPPN4crow9BlueprintEEESA_SA_EENS_4pairIT2_T4_EESC_T3_SD_, symObjAddr: 0x791F0, symBinAddr: 0x10007BDE0, symSize: 0x90 }
  - { offsetInCU: 0x79241, offset: 0x79241, size: 0x8, addend: 0x0, symName: __ZNSt3__121__unwrap_and_dispatchB7v160006INS_10__overloadINS_11__move_loopINS_17_ClassicAlgPolicyEEENS_14__move_trivialEEENS_16reverse_iteratorIPPN4crow9BlueprintEEESC_SC_Li0EEENS_4pairIT0_T2_EESE_T1_SF_, symObjAddr: 0x79280, symBinAddr: 0x10007BE70, symSize: 0x210 }
  - { offsetInCU: 0x792DD, offset: 0x792DD, size: 0x8, addend: 0x0, symName: __ZNSt3__114__unwrap_rangeB7v160006INS_16reverse_iteratorIPPN4crow9BlueprintEEES6_EENS_4pairIT0_S8_EET_SA_, symObjAddr: 0x79490, symBinAddr: 0x10007C080, symSize: 0x90 }
  - { offsetInCU: 0x79403, offset: 0x79403, size: 0x8, addend: 0x0, symName: __ZNSt3__113__unwrap_iterB7v160006INS_16reverse_iteratorIPPN4crow9BlueprintEEENS_18__unwrap_iter_implIS6_Lb0EEELi0EEEDTclsrT0_8__unwrapclsr3stdE7declvalIT_EEEESA_, symObjAddr: 0x795C0, symBinAddr: 0x10007C1B0, symSize: 0x40 }
  - { offsetInCU: 0x7944B, offset: 0x7944B, size: 0x8, addend: 0x0, symName: __ZNSt3__19make_pairB7v160006INS_16reverse_iteratorIPPN4crow9BlueprintEEES6_EENS_4pairINS_18__unwrap_ref_decayIT_E4typeENS8_IT0_E4typeEEEOS9_OSC_, symObjAddr: 0x79600, symBinAddr: 0x10007C1F0, symSize: 0x30 }
  - { offsetInCU: 0x7949B, offset: 0x7949B, size: 0x8, addend: 0x0, symName: __ZNSt3__114__rewrap_rangeB7v160006INS_16reverse_iteratorIPPN4crow9BlueprintEEES6_EET_S7_T0_, symObjAddr: 0x79630, symBinAddr: 0x10007C220, symSize: 0x60 }
  - { offsetInCU: 0x794ED, offset: 0x794ED, size: 0x8, addend: 0x0, symName: __ZNSt3__113__rewrap_iterB7v160006INS_16reverse_iteratorIPPN4crow9BlueprintEEES6_NS_18__unwrap_iter_implIS6_Lb0EEEEET_S9_T0_, symObjAddr: 0x79690, symBinAddr: 0x10007C280, symSize: 0x70 }
  - { offsetInCU: 0x795B9, offset: 0x795B9, size: 0x8, addend: 0x0, symName: __ZNSt3__1neB7v160006IvJRKN4crow7requestERNS1_8responseEEEEbRKNS_8functionIFT_DpT0_EEEDn, symObjAddr: 0x79AB0, symBinAddr: 0x10007C6A0, symSize: 0x30 }
  - { offsetInCU: 0x79607, offset: 0x79607, size: 0x8, addend: 0x0, symName: __ZNSt3__13getB7v160006ILm0EJN4crow11CORSHandlerEEEERNS_13tuple_elementIXT_ENS_5tupleIJDpT0_EEEE4typeERS7_, symObjAddr: 0x7C100, symBinAddr: 0x10007ECF0, symSize: 0x20 }
  - { offsetInCU: 0x7964B, offset: 0x7964B, size: 0x8, addend: 0x0, symName: __ZNSt3__1neB7v160006IPNS_4pairINS_12basic_stringIcNS_11char_traitsIcEENS_9allocatorIcEEEEN4crow9CORSRulesEEEEEbRKNS_11__wrap_iterIT_EESG_, symObjAddr: 0x7C500, symBinAddr: 0x10007F0F0, symSize: 0x30 }
  - { offsetInCU: 0x79690, offset: 0x79690, size: 0x8, addend: 0x0, symName: __ZNSt3__1eqB7v160006IPNS_4pairINS_12basic_stringIcNS_11char_traitsIcEENS_9allocatorIcEEEEN4crow9CORSRulesEEEEEbRKNS_11__wrap_iterIT_EESG_, symObjAddr: 0x7C660, symBinAddr: 0x10007F250, symSize: 0x40 }
  - { offsetInCU: 0x796D4, offset: 0x796D4, size: 0x8, addend: 0x0, symName: __ZNSt3__111__str_rfindB7v160006IcmNS_11char_traitsIcEELm18446744073709551615EEET0_PKT_S3_S6_S3_S3_, symObjAddr: 0x7C6C0, symBinAddr: 0x10007F2B0, symSize: 0x100 }
  - { offsetInCU: 0x7977C, offset: 0x7977C, size: 0x8, addend: 0x0, symName: __ZNSt3__118__find_end_classicB7v160006IPKcS2_DoFbccEEET_S4_S4_T0_S5_RT1_, symObjAddr: 0x7C7C0, symBinAddr: 0x10007F3B0, symSize: 0x60 }
  - { offsetInCU: 0x79817, offset: 0x79817, size: 0x8, addend: 0x0, symName: __ZNSt3__115__find_end_implB7v160006INS_17_ClassicAlgPolicyEPKcS3_S3_S3_DoFbccENS_10__identityES5_EENS_4pairIT0_S7_EES7_T1_T2_T3_RT4_RT5_RT6_NS_20forward_iterator_tagESI_, symObjAddr: 0x7C850, symBinAddr: 0x10007F440, symSize: 0x1E0 }
  - { offsetInCU: 0x7995B, offset: 0x7995B, size: 0x8, addend: 0x0, symName: __ZNSt3__18__invokeB7v160006IRDoFbccEJRKcS4_EEEDTclclsr3stdE7declvalIT_EEspclsr3stdE7declvalIT0_EEEEOS5_DpOS6_, symObjAddr: 0x7CA80, symBinAddr: 0x10007F670, symSize: 0x40 }
  - { offsetInCU: 0x799C8, offset: 0x799C8, size: 0x8, addend: 0x0, symName: __ZNSt3__18__invokeB7v160006IRNS_10__identityEJRKcEEEDTclclsr3stdE7declvalIT_EEspclsr3stdE7declvalIT0_EEEEOS5_DpOS6_, symObjAddr: 0x7CAC0, symBinAddr: 0x10007F6B0, symSize: 0x30 }
  - { offsetInCU: 0x79A4F, offset: 0x79A4F, size: 0x8, addend: 0x0, symName: __ZNSt3__110__str_findB7v160006IcmNS_11char_traitsIcEELm18446744073709551615EEET0_PKT_S3_S6_S3_S3_, symObjAddr: 0x7D100, symBinAddr: 0x10007FCF0, symSize: 0xB0 }
  - { offsetInCU: 0x79AF6, offset: 0x79AF6, size: 0x8, addend: 0x0, symName: __ZNSt3__118__search_substringB7v160006IcNS_11char_traitsIcEEEEPKT_S5_S5_S5_S5_, symObjAddr: 0x7D1B0, symBinAddr: 0x10007FDA0, symSize: 0x120 }
  - { offsetInCU: 0x79B90, offset: 0x79B90, size: 0x8, addend: 0x0, symName: __ZNSt3__1neB7v160006ERKNS_19__hash_map_iteratorINS_15__hash_iteratorIPNS_11__hash_nodeINS_17__hash_value_typeINS_12basic_stringIcNS_11char_traitsIcEENS_9allocatorIcEEEES9_EEPvEEEEEESH_, symObjAddr: 0x7DAF0, symBinAddr: 0x1000806E0, symSize: 0x30 }
  - { offsetInCU: 0x79BCE, offset: 0x79BCE, size: 0x8, addend: 0x0, symName: __ZNSt3__119__debug_db_insert_cB7v160006INS_13unordered_mapIiNS_12basic_stringIcNS_11char_traitsIcEENS_9allocatorIcEEEENS_4hashIiEENS_8equal_toIiEENS5_INS_4pairIKiS7_EEEEEEEEvPT_, symObjAddr: 0x7E220, symBinAddr: 0x100080E10, symSize: 0x10 }
  - { offsetInCU: 0x79C02, offset: 0x79C02, size: 0x8, addend: 0x0, symName: __ZNSt3__17launderB7v160006IKNS_4pairIKiNS_12basic_stringIcNS_11char_traitsIcEENS_9allocatorIcEEEEEEEEPT_SC_, symObjAddr: 0x7F3E0, symBinAddr: 0x100081FD0, symSize: 0x20 }
  - { offsetInCU: 0x79C39, offset: 0x79C39, size: 0x8, addend: 0x0, symName: __ZNSt3__19__launderB7v160006IKNS_4pairIKiNS_12basic_stringIcNS_11char_traitsIcEENS_9allocatorIcEEEEEEEEPT_SC_, symObjAddr: 0x7F400, symBinAddr: 0x100081FF0, symSize: 0x10 }
  - { offsetInCU: 0x79CC1, offset: 0x79CC1, size: 0x8, addend: 0x0, symName: __ZNSt3__17launderB7v160006INS_4pairIKiNS_12basic_stringIcNS_11char_traitsIcEENS_9allocatorIcEEEEEEEEPT_SB_, symObjAddr: 0x7F800, symBinAddr: 0x1000823F0, symSize: 0x20 }
  - { offsetInCU: 0x79CF8, offset: 0x79CF8, size: 0x8, addend: 0x0, symName: __ZNSt3__19__launderB7v160006INS_4pairIKiNS_12basic_stringIcNS_11char_traitsIcEENS_9allocatorIcEEEEEEEEPT_SB_, symObjAddr: 0x7F820, symBinAddr: 0x100082410, symSize: 0x10 }
  - { offsetInCU: 0x79D30, offset: 0x79D30, size: 0x8, addend: 0x0, symName: __ZNSt3__125__debug_db_invalidate_allB7v160006INS_12__hash_tableINS_17__hash_value_typeIiNS_12basic_stringIcNS_11char_traitsIcEENS_9allocatorIcEEEEEENS_22__unordered_map_hasherIiS9_NS_4hashIiEENS_8equal_toIiEELb1EEENS_21__unordered_map_equalIiS9_SE_SC_Lb1EEENS6_IS9_EEEEEEvPT_, symObjAddr: 0x7FD30, symBinAddr: 0x100082920, symSize: 0x10 }
  - { offsetInCU: 0x79D65, offset: 0x79D65, size: 0x8, addend: 0x0, symName: __ZNSt3__118__debug_db_erase_cB7v160006INS_12__hash_tableINS_17__hash_value_typeIiNS_12basic_stringIcNS_11char_traitsIcEENS_9allocatorIcEEEEEENS_22__unordered_map_hasherIiS9_NS_4hashIiEENS_8equal_toIiEELb1EEENS_21__unordered_map_equalIiS9_SE_SC_Lb1EEENS6_IS9_EEEEEEvPT_, symObjAddr: 0x803B0, symBinAddr: 0x100082FA0, symSize: 0x10 }
  - { offsetInCU: 0x79D9A, offset: 0x79D9A, size: 0x8, addend: 0x0, symName: __ZNSt3__125__debug_db_invalidate_allB7v160006INS_6vectorIN4asio12const_bufferENS_9allocatorIS3_EEEEEEvPT_, symObjAddr: 0x80520, symBinAddr: 0x100083110, symSize: 0x10 }
  - { offsetInCU: 0x79DCF, offset: 0x79DCF, size: 0x8, addend: 0x0, symName: __ZNSt3__119__allocate_at_leastB7v160006INS_9allocatorIN4asio12const_bufferEEEEENS_19__allocation_resultINS_16allocator_traitsIT_E7pointerEEERS7_m, symObjAddr: 0x808D0, symBinAddr: 0x1000834C0, symSize: 0x40 }
  - { offsetInCU: 0x79E17, offset: 0x79E17, size: 0x8, addend: 0x0, symName: __ZNSt3__142__uninitialized_allocator_move_if_noexceptB7v160006INS_9allocatorIN4asio12const_bufferEEENS_16reverse_iteratorIPS3_EES7_S3_vEET1_RT_T0_SB_S8_, symObjAddr: 0x80A70, symBinAddr: 0x100083660, symSize: 0x70 }
  - { offsetInCU: 0x79E94, offset: 0x79E94, size: 0x8, addend: 0x0, symName: __ZNSt3__14swapB7v160006IPN4asio12const_bufferEEENS_9enable_ifIXaasr21is_move_constructibleIT_EE5valuesr18is_move_assignableIS5_EE5valueEvE4typeERS5_S8_, symObjAddr: 0x80B30, symBinAddr: 0x100083720, symSize: 0x40 }
  - { offsetInCU: 0x79EED, offset: 0x79EED, size: 0x8, addend: 0x0, symName: __ZNSt3__14moveB7v160006INS_16reverse_iteratorIPN4asio12const_bufferEEES5_EET0_T_S7_S6_, symObjAddr: 0x80C40, symBinAddr: 0x100083830, symSize: 0x80 }
  - { offsetInCU: 0x79F4F, offset: 0x79F4F, size: 0x8, addend: 0x0, symName: __ZNSt3__16__moveB7v160006INS_17_ClassicAlgPolicyENS_16reverse_iteratorIPN4asio12const_bufferEEES6_S6_EENS_4pairIT0_T2_EES8_T1_S9_, symObjAddr: 0x80CC0, symBinAddr: 0x1000838B0, symSize: 0x90 }
  - { offsetInCU: 0x79FC3, offset: 0x79FC3, size: 0x8, addend: 0x0, symName: __ZNSt3__123__dispatch_copy_or_moveB7v160006INS_17_ClassicAlgPolicyENS_11__move_loopIS1_EENS_14__move_trivialENS_16reverse_iteratorIPN4asio12const_bufferEEES9_S9_EENS_4pairIT2_T4_EESB_T3_SC_, symObjAddr: 0x80D50, symBinAddr: 0x100083940, symSize: 0x90 }
  - { offsetInCU: 0x7A049, offset: 0x7A049, size: 0x8, addend: 0x0, symName: __ZNSt3__121__unwrap_and_dispatchB7v160006INS_10__overloadINS_11__move_loopINS_17_ClassicAlgPolicyEEENS_14__move_trivialEEENS_16reverse_iteratorIPN4asio12const_bufferEEESB_SB_Li0EEENS_4pairIT0_T2_EESD_T1_SE_, symObjAddr: 0x80DE0, symBinAddr: 0x1000839D0, symSize: 0x210 }
  - { offsetInCU: 0x7A0E5, offset: 0x7A0E5, size: 0x8, addend: 0x0, symName: __ZNSt3__114__unwrap_rangeB7v160006INS_16reverse_iteratorIPN4asio12const_bufferEEES5_EENS_4pairIT0_S7_EET_S9_, symObjAddr: 0x80FF0, symBinAddr: 0x100083BE0, symSize: 0x90 }
  - { offsetInCU: 0x7A20B, offset: 0x7A20B, size: 0x8, addend: 0x0, symName: __ZNSt3__113__unwrap_iterB7v160006INS_16reverse_iteratorIPN4asio12const_bufferEEENS_18__unwrap_iter_implIS5_Lb0EEELi0EEEDTclsrT0_8__unwrapclsr3stdE7declvalIT_EEEES9_, symObjAddr: 0x81120, symBinAddr: 0x100083D10, symSize: 0x40 }
  - { offsetInCU: 0x7A253, offset: 0x7A253, size: 0x8, addend: 0x0, symName: __ZNSt3__19make_pairB7v160006INS_16reverse_iteratorIPN4asio12const_bufferEEES5_EENS_4pairINS_18__unwrap_ref_decayIT_E4typeENS7_IT0_E4typeEEEOS8_OSB_, symObjAddr: 0x81160, symBinAddr: 0x100083D50, symSize: 0x30 }
  - { offsetInCU: 0x7A2A3, offset: 0x7A2A3, size: 0x8, addend: 0x0, symName: __ZNSt3__114__rewrap_rangeB7v160006INS_16reverse_iteratorIPN4asio12const_bufferEEES5_EET_S6_T0_, symObjAddr: 0x81190, symBinAddr: 0x100083D80, symSize: 0x60 }
  - { offsetInCU: 0x7A2F5, offset: 0x7A2F5, size: 0x8, addend: 0x0, symName: __ZNSt3__113__rewrap_iterB7v160006INS_16reverse_iteratorIPN4asio12const_bufferEEES5_NS_18__unwrap_iter_implIS5_Lb0EEEEET_S8_T0_, symObjAddr: 0x811F0, symBinAddr: 0x100083DE0, symSize: 0x70 }
  - { offsetInCU: 0x7A350, offset: 0x7A350, size: 0x8, addend: 0x0, symName: __ZNSt3__1neB7v160006IPN4asio12const_bufferES3_EEbRKNS_16reverse_iteratorIT_EERKNS4_IT0_EE, symObjAddr: 0x81260, symBinAddr: 0x100083E50, symSize: 0x40 }
  - { offsetInCU: 0x7A40F, offset: 0x7A40F, size: 0x8, addend: 0x0, symName: __ZNSt3__1neB7v160006ERKNS_21__hash_const_iteratorIPNS_11__hash_nodeINS_17__hash_value_typeIiNS_12basic_stringIcNS_11char_traitsIcEENS_9allocatorIcEEEEEEPvEEEESF_, symObjAddr: 0x81680, symBinAddr: 0x100084270, symSize: 0x30 }
  - { offsetInCU: 0x7A44C, offset: 0x7A44C, size: 0x8, addend: 0x0, symName: __ZNSt3__1eqB7v160006ERKNS_21__hash_const_iteratorIPNS_11__hash_nodeINS_17__hash_value_typeIiNS_12basic_stringIcNS_11char_traitsIcEENS_9allocatorIcEEEEEEPvEEEESF_, symObjAddr: 0x81870, symBinAddr: 0x100084460, symSize: 0x30 }
  - { offsetInCU: 0x7A526, offset: 0x7A526, size: 0x8, addend: 0x0, symName: __ZNSt3__116forward_as_tupleB7v160006IJRKiEEENS_5tupleIJDpOT_EEES6_, symObjAddr: 0x82560, symBinAddr: 0x100085150, symSize: 0x30 }
  - { offsetInCU: 0x7A55F, offset: 0x7A55F, size: 0x8, addend: 0x0, symName: __ZNSt3__116forward_as_tupleB7v160006IJEEENS_5tupleIJDpOT_EEES4_, symObjAddr: 0x82590, symBinAddr: 0x100085180, symSize: 0x10 }
  - { offsetInCU: 0x7A583, offset: 0x7A583, size: 0x8, addend: 0x0, symName: __ZNSt3__13getB7v160006ILm0EJRKiEEERNS_13tuple_elementIXT_ENS_5tupleIJDpT0_EEEE4typeERS7_, symObjAddr: 0x82820, symBinAddr: 0x100085410, symSize: 0x20 }
  - { offsetInCU: 0x7AF04, offset: 0x7AF04, size: 0x8, addend: 0x0, symName: __ZNSt3__122__make_exception_guardB7v160006INS_6vectorIN4asio12const_bufferENS_9allocatorIS3_EEE16__destroy_vectorEEENS_28__exception_guard_exceptionsIT_EES9_, symObjAddr: 0x83900, symBinAddr: 0x1000864F0, symSize: 0x40 }
  - { offsetInCU: 0x7AF39, offset: 0x7AF39, size: 0x8, addend: 0x0, symName: __ZNSt3__130__uninitialized_allocator_copyB7v160006INS_9allocatorIN4asio12const_bufferEEEPS3_S5_S5_EET2_RT_T0_T1_S6_, symObjAddr: 0x83B50, symBinAddr: 0x100086740, symSize: 0x100 }
  - { offsetInCU: 0x7AFD8, offset: 0x7AFD8, size: 0x8, addend: 0x0, symName: __ZNSt3__122__make_exception_guardB7v160006INS_29_AllocatorDestroyRangeReverseINS_9allocatorIN4asio12const_bufferEEEPS4_EEEENS_28__exception_guard_exceptionsIT_EES9_, symObjAddr: 0x83C50, symBinAddr: 0x100086840, symSize: 0x60 }
  - { offsetInCU: 0x7B00D, offset: 0x7B00D, size: 0x8, addend: 0x0, symName: __ZNSt3__119__allocator_destroyB7v160006INS_9allocatorIN4asio12const_bufferEEENS_16reverse_iteratorIPS3_EES7_EEvRT_T0_T1_, symObjAddr: 0x83EE0, symBinAddr: 0x100086AD0, symSize: 0x70 }
  - { offsetInCU: 0x7B071, offset: 0x7B071, size: 0x8, addend: 0x0, symName: __ZNSt3__112__to_addressB7v160006INS_16reverse_iteratorIPN4asio12const_bufferEEEvEENS_5decayIDTclsr19__to_address_helperIT_EE6__callclsr3stdE7declvalIRKS7_EEEEE4typeES9_, symObjAddr: 0x83F50, symBinAddr: 0x100086B40, symSize: 0x20 }
  - { offsetInCU: 0x7B0D2, offset: 0x7B0D2, size: 0x8, addend: 0x0, symName: __ZNSt3__1neB7v160006IPKN4asio12const_bufferEEEbRKNS_11__wrap_iterIT_EES9_, symObjAddr: 0x840C0, symBinAddr: 0x100086CB0, symSize: 0x30 }
  - { offsetInCU: 0x7B117, offset: 0x7B117, size: 0x8, addend: 0x0, symName: __ZNSt3__1eqB7v160006IPKN4asio12const_bufferEEEbRKNS_11__wrap_iterIT_EES9_, symObjAddr: 0x84150, symBinAddr: 0x100086D40, symSize: 0x40 }
  - { offsetInCU: 0x7B15C, offset: 0x7B15C, size: 0x8, addend: 0x0, symName: __ZNSt3__19__advanceB7v160006INS_11__wrap_iterIPKN4asio12const_bufferEEEEEvRT_NS_15iterator_traitsIS7_E15difference_typeENS_26random_access_iterator_tagE, symObjAddr: 0x84520, symBinAddr: 0x100087110, symSize: 0x30 }
  - { offsetInCU: 0x7B1A8, offset: 0x7B1A8, size: 0x8, addend: 0x0, symName: __ZNSt3__1neB7v160006ERKNS_10error_codeES2_, symObjAddr: 0x84B40, symBinAddr: 0x100087730, symSize: 0x30 }
  - { offsetInCU: 0x7B1E5, offset: 0x7B1E5, size: 0x8, addend: 0x0, symName: __ZNSt3__1lsB7v160006IcNS_11char_traitsIcEEEERNS_13basic_ostreamIT_T0_EES7_RKNS_10error_codeE, symObjAddr: 0x85650, symBinAddr: 0x100088240, symSize: 0x70 }
  - { offsetInCU: 0x7B235, offset: 0x7B235, size: 0x8, addend: 0x0, symName: __ZNSt3__14swapB7v160006INS_12basic_stringIcNS_11char_traitsIcEENS_9allocatorIcEEE5__repEEENS_9enable_ifIXaasr21is_move_constructibleIT_EE5valuesr18is_move_assignableIS9_EE5valueEvE4typeERS9_SC_, symObjAddr: 0x859D0, symBinAddr: 0x1000885C0, symSize: 0x70 }
  - { offsetInCU: 0x7B28E, offset: 0x7B28E, size: 0x8, addend: 0x0, symName: __ZNSt3__116__swap_allocatorB7v160006INS_9allocatorIcEEEEvRT_S4_, symObjAddr: 0x85A40, symBinAddr: 0x100088630, symSize: 0x30 }
  - { offsetInCU: 0x7B2D3, offset: 0x7B2D3, size: 0x8, addend: 0x0, symName: __ZNSt3__116__swap_allocatorB7v160006INS_9allocatorIcEEEEvRT_S4_NS_17integral_constantIbLb0EEE, symObjAddr: 0x85A70, symBinAddr: 0x100088660, symSize: 0x10 }
  - { offsetInCU: 0x7B31C, offset: 0x7B31C, size: 0x8, addend: 0x0, symName: __ZNSt3__115__debug_db_swapB7v160006INS_6vectorIN4asio12const_bufferENS_9allocatorIS3_EEEEEEvPT_S8_, symObjAddr: 0x88030, symBinAddr: 0x10008AC20, symSize: 0x10 }
  - { offsetInCU: 0x7B384, offset: 0x7B384, size: 0x8, addend: 0x0, symName: __ZNSt3__1rsB7v160006IcNS_11char_traitsIcEENS_9allocatorIcEEEERNS_13basic_istreamIT_T0_EES9_RNS_12basic_stringIS6_S7_T1_EE, symObjAddr: 0x8B980, symBinAddr: 0x10008E570, symSize: 0x2E0 }
  - { offsetInCU: 0x7B5B8, offset: 0x7B5B8, size: 0x8, addend: 0x0, symName: __ZNSt3__116forward_as_tupleB7v160006IJZN4crow10ConnectionINS1_13SocketAdaptorENS1_4CrowIJNS1_11CORSHandlerEEEEJS5_EE6handleEvEUlvE_EEENS_5tupleIJDpOT_EEESC_, symObjAddr: 0x8CB30, symBinAddr: 0x10008F720, symSize: 0x30 }
  - { offsetInCU: 0x7B5F1, offset: 0x7B5F1, size: 0x8, addend: 0x0, symName: __ZNSt3__116forward_as_tupleB7v160006IJNS_9allocatorIZN4crow10ConnectionINS2_13SocketAdaptorENS2_4CrowIJNS2_11CORSHandlerEEEEJS6_EE6handleEvEUlvE_EEEEENS_5tupleIJDpOT_EEESE_, symObjAddr: 0x8CB60, symBinAddr: 0x10008F750, symSize: 0x30 }
  - { offsetInCU: 0x7B658, offset: 0x7B658, size: 0x8, addend: 0x0, symName: __ZNSt3__13getB7v160006ILm0EJOZN4crow10ConnectionINS1_13SocketAdaptorENS1_4CrowIJNS1_11CORSHandlerEEEEJS5_EE6handleEvEUlvE_EEERNS_13tuple_elementIXT_ENS_5tupleIJDpT0_EEEE4typeERSE_, symObjAddr: 0x8CE70, symBinAddr: 0x10008FA60, symSize: 0x20 }
  - { offsetInCU: 0x7B69C, offset: 0x7B69C, size: 0x8, addend: 0x0, symName: __ZNSt3__13getB7v160006ILm0EJONS_9allocatorIZN4crow10ConnectionINS2_13SocketAdaptorENS2_4CrowIJNS2_11CORSHandlerEEEEJS6_EE6handleEvEUlvE_EEEEERNS_13tuple_elementIXT_ENS_5tupleIJDpT0_EEEE4typeERSG_, symObjAddr: 0x8CEB0, symBinAddr: 0x10008FAA0, symSize: 0x20 }
  - { offsetInCU: 0x7BBCE, offset: 0x7BBCE, size: 0x8, addend: 0x0, symName: __ZNSt3__116forward_as_tupleB7v160006IJRKZN4crow10ConnectionINS1_13SocketAdaptorENS1_4CrowIJNS1_11CORSHandlerEEEEJS5_EE6handleEvEUlvE_EEENS_5tupleIJDpOT_EEESE_, symObjAddr: 0x8D440, symBinAddr: 0x100090030, symSize: 0x30 }
  - { offsetInCU: 0x7BC1E, offset: 0x7BC1E, size: 0x8, addend: 0x0, symName: __ZNSt3__13getB7v160006ILm0EJRKZN4crow10ConnectionINS1_13SocketAdaptorENS1_4CrowIJNS1_11CORSHandlerEEEEJS5_EE6handleEvEUlvE_EEERNS_13tuple_elementIXT_ENS_5tupleIJDpT0_EEEE4typeERSF_, symObjAddr: 0x8D610, symBinAddr: 0x100090200, symSize: 0x20 }
  - { offsetInCU: 0x7BC62, offset: 0x7BC62, size: 0x8, addend: 0x0, symName: __ZNSt3__116forward_as_tupleB7v160006IJRKNS_9allocatorIZN4crow10ConnectionINS2_13SocketAdaptorENS2_4CrowIJNS2_11CORSHandlerEEEEJS6_EE6handleEvEUlvE_EEEEENS_5tupleIJDpOT_EEESG_, symObjAddr: 0x8D970, symBinAddr: 0x100090560, symSize: 0x30 }
  - { offsetInCU: 0x7BCB2, offset: 0x7BCB2, size: 0x8, addend: 0x0, symName: __ZNSt3__13getB7v160006ILm0EJRKNS_9allocatorIZN4crow10ConnectionINS2_13SocketAdaptorENS2_4CrowIJNS2_11CORSHandlerEEEEJS6_EE6handleEvEUlvE_EEEEERNS_13tuple_elementIXT_ENS_5tupleIJDpT0_EEEE4typeERSH_, symObjAddr: 0x8DB40, symBinAddr: 0x100090730, symSize: 0x20 }
  - { offsetInCU: 0x7BD36, offset: 0x7BD36, size: 0x8, addend: 0x0, symName: __ZNSt3__18__invokeB7v160006IRZN4crow10ConnectionINS1_13SocketAdaptorENS1_4CrowIJNS1_11CORSHandlerEEEEJS5_EE6handleEvEUlvE_JEEEDTclclsr3stdE7declvalIT_EEspclsr3stdE7declvalIT0_EEEEOSA_DpOSB_, symObjAddr: 0x8DC10, symBinAddr: 0x100090800, symSize: 0x20 }
  - { offsetInCU: 0x7BD76, offset: 0x7BD76, size: 0x8, addend: 0x0, symName: __ZNSt3__14swapB7v160006IPNS_10__function6__baseIFbvEEEEENS_9enable_ifIXaasr21is_move_constructibleIT_EE5valuesr18is_move_assignableIS7_EE5valueEvE4typeERS7_SA_, symObjAddr: 0x8DF90, symBinAddr: 0x100090B80, symSize: 0x40 }
  - { offsetInCU: 0x7BF31, offset: 0x7BF31, size: 0x8, addend: 0x0, symName: __ZNSt3__116forward_as_tupleB7v160006IJZN4crow10ConnectionINS1_13SocketAdaptorENS1_4CrowIJNS1_11CORSHandlerEEEEJS5_EE6handleEvEUlvE0_EEENS_5tupleIJDpOT_EEESC_, symObjAddr: 0x8E830, symBinAddr: 0x100091420, symSize: 0x30 }
  - { offsetInCU: 0x7BF6A, offset: 0x7BF6A, size: 0x8, addend: 0x0, symName: __ZNSt3__116forward_as_tupleB7v160006IJNS_9allocatorIZN4crow10ConnectionINS2_13SocketAdaptorENS2_4CrowIJNS2_11CORSHandlerEEEEJS6_EE6handleEvEUlvE0_EEEEENS_5tupleIJDpOT_EEESE_, symObjAddr: 0x8E860, symBinAddr: 0x100091450, symSize: 0x30 }
  - { offsetInCU: 0x7BFD1, offset: 0x7BFD1, size: 0x8, addend: 0x0, symName: __ZNSt3__13getB7v160006ILm0EJOZN4crow10ConnectionINS1_13SocketAdaptorENS1_4CrowIJNS1_11CORSHandlerEEEEJS5_EE6handleEvEUlvE0_EEERNS_13tuple_elementIXT_ENS_5tupleIJDpT0_EEEE4typeERSE_, symObjAddr: 0x8EB70, symBinAddr: 0x100091760, symSize: 0x20 }
  - { offsetInCU: 0x7C015, offset: 0x7C015, size: 0x8, addend: 0x0, symName: __ZNSt3__13getB7v160006ILm0EJONS_9allocatorIZN4crow10ConnectionINS2_13SocketAdaptorENS2_4CrowIJNS2_11CORSHandlerEEEEJS6_EE6handleEvEUlvE0_EEEEERNS_13tuple_elementIXT_ENS_5tupleIJDpT0_EEEE4typeERSG_, symObjAddr: 0x8EBB0, symBinAddr: 0x1000917A0, symSize: 0x20 }
  - { offsetInCU: 0x7C547, offset: 0x7C547, size: 0x8, addend: 0x0, symName: __ZNSt3__116forward_as_tupleB7v160006IJRKZN4crow10ConnectionINS1_13SocketAdaptorENS1_4CrowIJNS1_11CORSHandlerEEEEJS5_EE6handleEvEUlvE0_EEENS_5tupleIJDpOT_EEESE_, symObjAddr: 0x8F140, symBinAddr: 0x100091D30, symSize: 0x30 }
  - { offsetInCU: 0x7C597, offset: 0x7C597, size: 0x8, addend: 0x0, symName: __ZNSt3__13getB7v160006ILm0EJRKZN4crow10ConnectionINS1_13SocketAdaptorENS1_4CrowIJNS1_11CORSHandlerEEEEJS5_EE6handleEvEUlvE0_EEERNS_13tuple_elementIXT_ENS_5tupleIJDpT0_EEEE4typeERSF_, symObjAddr: 0x8F310, symBinAddr: 0x100091F00, symSize: 0x20 }
  - { offsetInCU: 0x7C5DB, offset: 0x7C5DB, size: 0x8, addend: 0x0, symName: __ZNSt3__116forward_as_tupleB7v160006IJRKNS_9allocatorIZN4crow10ConnectionINS2_13SocketAdaptorENS2_4CrowIJNS2_11CORSHandlerEEEEJS6_EE6handleEvEUlvE0_EEEEENS_5tupleIJDpOT_EEESG_, symObjAddr: 0x8F670, symBinAddr: 0x100092260, symSize: 0x30 }
  - { offsetInCU: 0x7C62B, offset: 0x7C62B, size: 0x8, addend: 0x0, symName: __ZNSt3__13getB7v160006ILm0EJRKNS_9allocatorIZN4crow10ConnectionINS2_13SocketAdaptorENS2_4CrowIJNS2_11CORSHandlerEEEEJS6_EE6handleEvEUlvE0_EEEEERNS_13tuple_elementIXT_ENS_5tupleIJDpT0_EEEE4typeERSH_, symObjAddr: 0x8F840, symBinAddr: 0x100092430, symSize: 0x20 }
  - { offsetInCU: 0x7C670, offset: 0x7C670, size: 0x8, addend: 0x0, symName: __ZNSt3__18__invokeB7v160006IRZN4crow10ConnectionINS1_13SocketAdaptorENS1_4CrowIJNS1_11CORSHandlerEEEEJS5_EE6handleEvEUlvE0_JEEEDTclclsr3stdE7declvalIT_EEspclsr3stdE7declvalIT0_EEEEOSA_DpOSB_, symObjAddr: 0x8F910, symBinAddr: 0x100092500, symSize: 0x20 }
  - { offsetInCU: 0x7C80E, offset: 0x7C80E, size: 0x8, addend: 0x0, symName: __ZNSt3__116forward_as_tupleB7v160006IJZN4crow6Router11handle_ruleINS1_4CrowIJNS1_11CORSHandlerEEEEEENS_9enable_ifIXnesr3std10tuple_sizeINT_14mw_container_tEEE5valueLi0EEvE4typeEPNS1_8BaseRuleERNS1_7requestERNS1_8responseERKNS1_14routing_paramsEEUlvE_EEENS_5tupleIJDpOT_EEESP_, symObjAddr: 0x90F10, symBinAddr: 0x100093B00, symSize: 0x30 }
  - { offsetInCU: 0x7C847, offset: 0x7C847, size: 0x8, addend: 0x0, symName: __ZNSt3__116forward_as_tupleB7v160006IJNS_9allocatorIZN4crow6Router11handle_ruleINS2_4CrowIJNS2_11CORSHandlerEEEEEENS_9enable_ifIXnesr3std10tuple_sizeINT_14mw_container_tEEE5valueLi0EEvE4typeEPNS2_8BaseRuleERNS2_7requestERNS2_8responseERKNS2_14routing_paramsEEUlvE_EEEEENS_5tupleIJDpOT_EEESR_, symObjAddr: 0x90F40, symBinAddr: 0x100093B30, symSize: 0x30 }
  - { offsetInCU: 0x7C8AE, offset: 0x7C8AE, size: 0x8, addend: 0x0, symName: __ZNSt3__13getB7v160006ILm0EJOZN4crow6Router11handle_ruleINS1_4CrowIJNS1_11CORSHandlerEEEEEENS_9enable_ifIXnesr3std10tuple_sizeINT_14mw_container_tEEE5valueLi0EEvE4typeEPNS1_8BaseRuleERNS1_7requestERNS1_8responseERKNS1_14routing_paramsEEUlvE_EEERNS_13tuple_elementIXT_ENS_5tupleIJDpT0_EEEE4typeERSR_, symObjAddr: 0x911F0, symBinAddr: 0x100093DE0, symSize: 0x20 }
  - { offsetInCU: 0x7C8F2, offset: 0x7C8F2, size: 0x8, addend: 0x0, symName: __ZNSt3__13getB7v160006ILm0EJONS_9allocatorIZN4crow6Router11handle_ruleINS2_4CrowIJNS2_11CORSHandlerEEEEEENS_9enable_ifIXnesr3std10tuple_sizeINT_14mw_container_tEEE5valueLi0EEvE4typeEPNS2_8BaseRuleERNS2_7requestERNS2_8responseERKNS2_14routing_paramsEEUlvE_EEEEERNS_13tuple_elementIXT_ENS_5tupleIJDpT0_EEEE4typeERST_, symObjAddr: 0x91230, symBinAddr: 0x100093E20, symSize: 0x20 }
  - { offsetInCU: 0x7CE24, offset: 0x7CE24, size: 0x8, addend: 0x0, symName: __ZNSt3__116forward_as_tupleB7v160006IJRKZN4crow6Router11handle_ruleINS1_4CrowIJNS1_11CORSHandlerEEEEEENS_9enable_ifIXnesr3std10tuple_sizeINT_14mw_container_tEEE5valueLi0EEvE4typeEPNS1_8BaseRuleERNS1_7requestERNS1_8responseERKNS1_14routing_paramsEEUlvE_EEENS_5tupleIJDpOT_EEESR_, symObjAddr: 0x91720, symBinAddr: 0x100094310, symSize: 0x30 }
  - { offsetInCU: 0x7CE74, offset: 0x7CE74, size: 0x8, addend: 0x0, symName: __ZNSt3__13getB7v160006ILm0EJRKZN4crow6Router11handle_ruleINS1_4CrowIJNS1_11CORSHandlerEEEEEENS_9enable_ifIXnesr3std10tuple_sizeINT_14mw_container_tEEE5valueLi0EEvE4typeEPNS1_8BaseRuleERNS1_7requestERNS1_8responseERKNS1_14routing_paramsEEUlvE_EEERNS_13tuple_elementIXT_ENS_5tupleIJDpT0_EEEE4typeERSS_, symObjAddr: 0x918D0, symBinAddr: 0x1000944C0, symSize: 0x20 }
  - { offsetInCU: 0x7CEB8, offset: 0x7CEB8, size: 0x8, addend: 0x0, symName: __ZNSt3__116forward_as_tupleB7v160006IJRKNS_9allocatorIZN4crow6Router11handle_ruleINS2_4CrowIJNS2_11CORSHandlerEEEEEENS_9enable_ifIXnesr3std10tuple_sizeINT_14mw_container_tEEE5valueLi0EEvE4typeEPNS2_8BaseRuleERNS2_7requestERNS2_8responseERKNS2_14routing_paramsEEUlvE_EEEEENS_5tupleIJDpOT_EEEST_, symObjAddr: 0x91BC0, symBinAddr: 0x1000947B0, symSize: 0x30 }
  - { offsetInCU: 0x7CF08, offset: 0x7CF08, size: 0x8, addend: 0x0, symName: __ZNSt3__13getB7v160006ILm0EJRKNS_9allocatorIZN4crow6Router11handle_ruleINS2_4CrowIJNS2_11CORSHandlerEEEEEENS_9enable_ifIXnesr3std10tuple_sizeINT_14mw_container_tEEE5valueLi0EEvE4typeEPNS2_8BaseRuleERNS2_7requestERNS2_8responseERKNS2_14routing_paramsEEUlvE_EEEEERNS_13tuple_elementIXT_ENS_5tupleIJDpT0_EEEE4typeERSU_, symObjAddr: 0x91D70, symBinAddr: 0x100094960, symSize: 0x20 }
  - { offsetInCU: 0x7CF4D, offset: 0x7CF4D, size: 0x8, addend: 0x0, symName: __ZNSt3__18__invokeB7v160006IRZN4crow6Router11handle_ruleINS1_4CrowIJNS1_11CORSHandlerEEEEEENS_9enable_ifIXnesr3std10tuple_sizeINT_14mw_container_tEEE5valueLi0EEvE4typeEPNS1_8BaseRuleERNS1_7requestERNS1_8responseERKNS1_14routing_paramsEEUlvE_JEEEDTclclsr3stdE7declvalIS8_EEspclsr3stdE7declvalIT0_EEEEOS8_DpOSN_, symObjAddr: 0x91E30, symBinAddr: 0x100094A20, symSize: 0x20 }
  - { offsetInCU: 0x7D5D9, offset: 0x7D5D9, size: 0x8, addend: 0x0, symName: __ZNSt3__116forward_as_tupleB7v160006IJZN4crow6Router11handle_ruleINS1_4CrowIJNS1_11CORSHandlerEEEEEENS_9enable_ifIXnesr3std10tuple_sizeINT_14mw_container_tEEE5valueLi0EEvE4typeEPNS1_8BaseRuleERNS1_7requestERNS1_8responseERKNS1_14routing_paramsEEUlvE0_EEENS_5tupleIJDpOT_EEESP_, symObjAddr: 0x92900, symBinAddr: 0x1000954F0, symSize: 0x30 }
  - { offsetInCU: 0x7D612, offset: 0x7D612, size: 0x8, addend: 0x0, symName: __ZNSt3__116forward_as_tupleB7v160006IJNS_9allocatorIZN4crow6Router11handle_ruleINS2_4CrowIJNS2_11CORSHandlerEEEEEENS_9enable_ifIXnesr3std10tuple_sizeINT_14mw_container_tEEE5valueLi0EEvE4typeEPNS2_8BaseRuleERNS2_7requestERNS2_8responseERKNS2_14routing_paramsEEUlvE0_EEEEENS_5tupleIJDpOT_EEESR_, symObjAddr: 0x92930, symBinAddr: 0x100095520, symSize: 0x30 }
  - { offsetInCU: 0x7D679, offset: 0x7D679, size: 0x8, addend: 0x0, symName: __ZNSt3__13getB7v160006ILm0EJOZN4crow6Router11handle_ruleINS1_4CrowIJNS1_11CORSHandlerEEEEEENS_9enable_ifIXnesr3std10tuple_sizeINT_14mw_container_tEEE5valueLi0EEvE4typeEPNS1_8BaseRuleERNS1_7requestERNS1_8responseERKNS1_14routing_paramsEEUlvE0_EEERNS_13tuple_elementIXT_ENS_5tupleIJDpT0_EEEE4typeERSR_, symObjAddr: 0x92C40, symBinAddr: 0x100095830, symSize: 0x20 }
  - { offsetInCU: 0x7D6BD, offset: 0x7D6BD, size: 0x8, addend: 0x0, symName: __ZNSt3__13getB7v160006ILm0EJONS_9allocatorIZN4crow6Router11handle_ruleINS2_4CrowIJNS2_11CORSHandlerEEEEEENS_9enable_ifIXnesr3std10tuple_sizeINT_14mw_container_tEEE5valueLi0EEvE4typeEPNS2_8BaseRuleERNS2_7requestERNS2_8responseERKNS2_14routing_paramsEEUlvE0_EEEEERNS_13tuple_elementIXT_ENS_5tupleIJDpT0_EEEE4typeERST_, symObjAddr: 0x92C80, symBinAddr: 0x100095870, symSize: 0x20 }
  - { offsetInCU: 0x7D88D, offset: 0x7D88D, size: 0x8, addend: 0x0, symName: __ZNSt3__116forward_as_tupleB7v160006IJRKZN4crow6Router11handle_ruleINS1_4CrowIJNS1_11CORSHandlerEEEEEENS_9enable_ifIXnesr3std10tuple_sizeINT_14mw_container_tEEE5valueLi0EEvE4typeEPNS1_8BaseRuleERNS1_7requestERNS1_8responseERKNS1_14routing_paramsEEUlvE0_EEENS_5tupleIJDpOT_EEESR_, symObjAddr: 0x93080, symBinAddr: 0x100095C70, symSize: 0x30 }
  - { offsetInCU: 0x7D8DD, offset: 0x7D8DD, size: 0x8, addend: 0x0, symName: __ZNSt3__13getB7v160006ILm0EJRKZN4crow6Router11handle_ruleINS1_4CrowIJNS1_11CORSHandlerEEEEEENS_9enable_ifIXnesr3std10tuple_sizeINT_14mw_container_tEEE5valueLi0EEvE4typeEPNS1_8BaseRuleERNS1_7requestERNS1_8responseERKNS1_14routing_paramsEEUlvE0_EEERNS_13tuple_elementIXT_ENS_5tupleIJDpT0_EEEE4typeERSS_, symObjAddr: 0x93250, symBinAddr: 0x100095E40, symSize: 0x20 }
  - { offsetInCU: 0x7D921, offset: 0x7D921, size: 0x8, addend: 0x0, symName: __ZNSt3__116forward_as_tupleB7v160006IJRKNS_9allocatorIZN4crow6Router11handle_ruleINS2_4CrowIJNS2_11CORSHandlerEEEEEENS_9enable_ifIXnesr3std10tuple_sizeINT_14mw_container_tEEE5valueLi0EEvE4typeEPNS2_8BaseRuleERNS2_7requestERNS2_8responseERKNS2_14routing_paramsEEUlvE0_EEEEENS_5tupleIJDpOT_EEEST_, symObjAddr: 0x935C0, symBinAddr: 0x1000961B0, symSize: 0x30 }
  - { offsetInCU: 0x7D971, offset: 0x7D971, size: 0x8, addend: 0x0, symName: __ZNSt3__13getB7v160006ILm0EJRKNS_9allocatorIZN4crow6Router11handle_ruleINS2_4CrowIJNS2_11CORSHandlerEEEEEENS_9enable_ifIXnesr3std10tuple_sizeINT_14mw_container_tEEE5valueLi0EEvE4typeEPNS2_8BaseRuleERNS2_7requestERNS2_8responseERKNS2_14routing_paramsEEUlvE0_EEEEERNS_13tuple_elementIXT_ENS_5tupleIJDpT0_EEEE4typeERSU_, symObjAddr: 0x93790, symBinAddr: 0x100096380, symSize: 0x20 }
  - { offsetInCU: 0x7D9B6, offset: 0x7D9B6, size: 0x8, addend: 0x0, symName: __ZNSt3__18__invokeB7v160006IRZN4crow6Router11handle_ruleINS1_4CrowIJNS1_11CORSHandlerEEEEEENS_9enable_ifIXnesr3std10tuple_sizeINT_14mw_container_tEEE5valueLi0EEvE4typeEPNS1_8BaseRuleERNS1_7requestERNS1_8responseERKNS1_14routing_paramsEEUlvE0_JEEEDTclclsr3stdE7declvalIS8_EEspclsr3stdE7declvalIT0_EEEEOS8_DpOSN_, symObjAddr: 0x93860, symBinAddr: 0x100096450, symSize: 0x20 }
  - { offsetInCU: 0x7D9F1, offset: 0x7D9F1, size: 0x8, addend: 0x0, symName: __ZNSt3__1lsB7v160006IcNS_11char_traitsIcEEN4crow10ConnectionINS3_13SocketAdaptorENS3_4CrowIJNS3_11CORSHandlerEEEEJS7_EEEEERNS_13basic_ostreamIT_T0_EESE_RKNS_10shared_ptrIT1_EE, symObjAddr: 0x93FD0, symBinAddr: 0x100096BC0, symSize: 0x40 }
  - { offsetInCU: 0x7DA49, offset: 0x7DA49, size: 0x8, addend: 0x0, symName: __ZNSt3__122__cxx_atomic_fetch_subB7v160006IjEET_PNS_22__cxx_atomic_base_implIS1_EES1_NS_12memory_orderE, symObjAddr: 0x94D00, symBinAddr: 0x1000978F0, symSize: 0xD0 }
  - { offsetInCU: 0x7DE9B, offset: 0x7DE9B, size: 0x8, addend: 0x0, symName: __ZNSt3__114__thread_proxyB7v160006INS_5tupleIJNS_10unique_ptrINS_15__thread_structENS_14default_deleteIS3_EEEEZN4crow6ServerINS7_4CrowIJNS7_11CORSHandlerEEEENS7_13SocketAdaptorEJSA_EE3runEvEUlvE0_EEEEEPvSG_, symObjAddr: 0x96490, symBinAddr: 0x100099080, symSize: 0xA0 }
  - { offsetInCU: 0x7DEFD, offset: 0x7DEFD, size: 0x8, addend: 0x0, symName: __ZNSt3__13getB7v160006ILm0EJNS_10unique_ptrINS_15__thread_structENS_14default_deleteIS2_EEEEZN4crow6ServerINS6_4CrowIJNS6_11CORSHandlerEEEENS6_13SocketAdaptorEJS9_EE3runEvEUlvE0_EEERNS_13tuple_elementIXT_ENS_5tupleIJDpT0_EEEE4typeERSI_, symObjAddr: 0x96750, symBinAddr: 0x100099340, symSize: 0x20 }
  - { offsetInCU: 0x7DF45, offset: 0x7DF45, size: 0x8, addend: 0x0, symName: __ZNSt3__116__thread_executeB7v160006INS_10unique_ptrINS_15__thread_structENS_14default_deleteIS2_EEEEZN4crow6ServerINS6_4CrowIJNS6_11CORSHandlerEEEENS6_13SocketAdaptorEJS9_EE3runEvEUlvE0_JEJEEEvRNS_5tupleIJT_T0_DpT1_EEENS_15__tuple_indicesIJXspT2_EEEE, symObjAddr: 0x96770, symBinAddr: 0x100099360, symSize: 0x30 }
  - { offsetInCU: 0x7DF97, offset: 0x7DF97, size: 0x8, addend: 0x0, symName: __ZNSt3__18__invokeB7v160006IZN4crow6ServerINS1_4CrowIJNS1_11CORSHandlerEEEENS1_13SocketAdaptorEJS4_EE3runEvEUlvE0_JEEEDTclclsr3stdE7declvalIT_EEspclsr3stdE7declvalIT0_EEEEOS9_DpOSA_, symObjAddr: 0x967A0, symBinAddr: 0x100099390, symSize: 0x20 }
  - { offsetInCU: 0x7DFD2, offset: 0x7DFD2, size: 0x8, addend: 0x0, symName: __ZNSt3__13getB7v160006ILm1EJNS_10unique_ptrINS_15__thread_structENS_14default_deleteIS2_EEEEZN4crow6ServerINS6_4CrowIJNS6_11CORSHandlerEEEENS6_13SocketAdaptorEJS9_EE3runEvEUlvE0_EEERNS_13tuple_elementIXT_ENS_5tupleIJDpT0_EEEE4typeERSI_, symObjAddr: 0x967C0, symBinAddr: 0x1000993B0, symSize: 0x20 }
  - { offsetInCU: 0x7E01B, offset: 0x7E01B, size: 0x8, addend: 0x0, symName: __ZNSt3__118__debug_db_erase_cB7v160006INS_6vectorINS_6futureIvEENS_9allocatorIS3_EEEEEEvPT_, symObjAddr: 0x96C00, symBinAddr: 0x1000997F0, symSize: 0x10 }
  - { offsetInCU: 0x805E0, offset: 0x805E0, size: 0x8, addend: 0x0, symName: __ZSt28__throw_bad_array_new_lengthB7v160006v, symObjAddr: 0xE590, symBinAddr: 0x100011180, symSize: 0x40 }
  - { offsetInCU: 0x8066A, offset: 0x8066A, size: 0x8, addend: 0x0, symName: __ZSt18make_exception_ptrB7v160006IN4asio19multiple_exceptionsEESt13exception_ptrT_, symObjAddr: 0x342D0, symBinAddr: 0x100036EC0, symSize: 0xA0 }
  - { offsetInCU: 0x81023, offset: 0x81023, size: 0x8, addend: 0x0, symName: __ZN4asio5errorL15system_categoryE, symObjAddr: 0x5A87F8, symBinAddr: 0x1001247F8, symSize: 0x0 }
  - { offsetInCU: 0x8103D, offset: 0x8103D, size: 0x8, addend: 0x0, symName: __ZN4asio5errorL14netdb_categoryE, symObjAddr: 0x5A8800, symBinAddr: 0x100124800, symSize: 0x0 }
  - { offsetInCU: 0x81057, offset: 0x81057, size: 0x8, addend: 0x0, symName: __ZN4asio5errorL17addrinfo_categoryE, symObjAddr: 0x5A8808, symBinAddr: 0x100124808, symSize: 0x0 }
  - { offsetInCU: 0x81071, offset: 0x81071, size: 0x8, addend: 0x0, symName: __ZN4asio5errorL13misc_categoryE, symObjAddr: 0x5A8810, symBinAddr: 0x100124810, symSize: 0x0 }
  - { offsetInCU: 0x8107F, offset: 0x8107F, size: 0x8, addend: 0x0, symName: __ZN4asio5error18get_netdb_categoryEv, symObjAddr: 0x920, symBinAddr: 0x100003510, symSize: 0x60 }
  - { offsetInCU: 0x810A8, offset: 0x810A8, size: 0x8, addend: 0x0, symName: __ZZN4asio5error18get_netdb_categoryEvE8instance, symObjAddr: 0x9F5C0, symBinAddr: 0x100124130, symSize: 0x0 }
  - { offsetInCU: 0x811F7, offset: 0x811F7, size: 0x8, addend: 0x0, symName: __ZN4asio5error21get_addrinfo_categoryEv, symObjAddr: 0x980, symBinAddr: 0x100003570, symSize: 0x60 }
  - { offsetInCU: 0x81220, offset: 0x81220, size: 0x8, addend: 0x0, symName: __ZZN4asio5error21get_addrinfo_categoryEvE8instance, symObjAddr: 0x9F5D0, symBinAddr: 0x100124140, symSize: 0x0 }
  - { offsetInCU: 0x8122B, offset: 0x8122B, size: 0x8, addend: 0x0, symName: __ZN4asio5error17get_misc_categoryEv, symObjAddr: 0x9E0, symBinAddr: 0x1000035D0, symSize: 0x60 }
  - { offsetInCU: 0x81254, offset: 0x81254, size: 0x8, addend: 0x0, symName: __ZZN4asio5error17get_misc_categoryEvE8instance, symObjAddr: 0x9F5E0, symBinAddr: 0x100124150, symSize: 0x0 }
  - { offsetInCU: 0x8135F, offset: 0x8135F, size: 0x8, addend: 0x0, symName: __ZN4asio5error19get_system_categoryEv, symObjAddr: 0x910, symBinAddr: 0x100003500, symSize: 0x10 }
  - { offsetInCU: 0x8137D, offset: 0x8137D, size: 0x8, addend: 0x0, symName: __ZN4asio5error15make_error_codeENS0_12basic_errorsE, symObjAddr: 0x6A20, symBinAddr: 0x100009610, symSize: 0x40 }
  - { offsetInCU: 0x813AB, offset: 0x813AB, size: 0x8, addend: 0x0, symName: __ZN4asio5error5clearERNSt3__110error_codeE, symObjAddr: 0x8BF0, symBinAddr: 0x10000B7E0, symSize: 0x40 }
  - { offsetInCU: 0x813D5, offset: 0x813D5, size: 0x8, addend: 0x0, symName: __ZN4asio5error15make_error_codeENS0_11misc_errorsE, symObjAddr: 0x3A9C0, symBinAddr: 0x10003D5B0, symSize: 0x40 }
  - { offsetInCU: 0x8141B, offset: 0x8141B, size: 0x8, addend: 0x0, symName: __ZN4asio6detail10call_stackINS0_14thread_contextENS0_16thread_info_baseEE4top_E, symObjAddr: 0x9F490, symBinAddr: 0x100124000, symSize: 0x0 }
  - { offsetInCU: 0x81875, offset: 0x81875, size: 0x8, addend: 0x0, symName: __ZN4asio6detail30execution_context_service_baseINS0_9schedulerEE2idE, symObjAddr: 0x9F4A0, symBinAddr: 0x100124010, symSize: 0x0 }
  - { offsetInCU: 0x82993, offset: 0x82993, size: 0x8, addend: 0x0, symName: __ZN4asio6detail30execution_context_service_baseINS0_14kqueue_reactorEE2idE, symObjAddr: 0x9F4B0, symBinAddr: 0x100124020, symSize: 0x0 }
  - { offsetInCU: 0x83403, offset: 0x83403, size: 0x8, addend: 0x0, symName: __ZN4asio6detail10call_stackINS0_14strand_service11strand_implEhE4top_E, symObjAddr: 0x9F4C0, symBinAddr: 0x100124030, symSize: 0x0 }
  - { offsetInCU: 0x838A1, offset: 0x838A1, size: 0x8, addend: 0x0, symName: __ZN4asio6detail12service_baseINS0_14strand_serviceEE2idE, symObjAddr: 0x9F4D0, symBinAddr: 0x100124040, symSize: 0x0 }
  - { offsetInCU: 0x838B5, offset: 0x838B5, size: 0x8, addend: 0x0, symName: __ZN4asio6detail10call_stackINS0_23strand_executor_service11strand_implEhE4top_E, symObjAddr: 0x9F4E0, symBinAddr: 0x100124050, symSize: 0x0 }
  - { offsetInCU: 0x83CDE, offset: 0x83CDE, size: 0x8, addend: 0x0, symName: __ZN4asio6detail17posix_global_implINS_14system_contextEE9instance_E, symObjAddr: 0x9F4F0, symBinAddr: 0x100124060, symSize: 0x0 }
  - { offsetInCU: 0x83DD5, offset: 0x83DD5, size: 0x8, addend: 0x0, symName: __ZN4asio6detail30execution_context_service_baseINS0_23reactive_socket_serviceINS_2ip3tcpEEEE2idE, symObjAddr: 0x9F500, symBinAddr: 0x100124070, symSize: 0x0 }
  - { offsetInCU: 0x84753, offset: 0x84753, size: 0x8, addend: 0x0, symName: __ZN4asio6detail10socket_ops5closeEiRhbRNSt3__110error_codeE, symObjAddr: 0x8660, symBinAddr: 0x10000B250, symSize: 0x190 }
  - { offsetInCU: 0x84807, offset: 0x84807, size: 0x8, addend: 0x0, symName: __ZN4asio6detail10socket_ops10setsockoptEiRhiiPKvmRNSt3__110error_codeE, symObjAddr: 0x8910, symBinAddr: 0x10000B500, symSize: 0x1C0 }
  - { offsetInCU: 0x8489F, offset: 0x8489F, size: 0x8, addend: 0x0, symName: __ZN4asio6detail10socket_ops14get_last_errorERNSt3__110error_codeEb, symObjAddr: 0x8AD0, symBinAddr: 0x10000B6C0, symSize: 0x70 }
  - { offsetInCU: 0x848D7, offset: 0x848D7, size: 0x8, addend: 0x0, symName: __ZN4asio6detail10socket_ops15call_setsockoptIjEEiM6msghdrT_iiiPKvm, symObjAddr: 0x8C30, symBinAddr: 0x10000B820, symSize: 0x40 }
  - { offsetInCU: 0x84955, offset: 0x84955, size: 0x8, addend: 0x0, symName: __ZN4asio6detail10socket_ops9inet_ptonEiPKcPvPmRNSt3__110error_codeE, symObjAddr: 0x31C30, symBinAddr: 0x100034820, symSize: 0x2D0 }
  - { offsetInCU: 0x84A73, offset: 0x84A73, size: 0x8, addend: 0x0, symName: __ZN4asio6detail10socket_ops16clear_last_errorEv, symObjAddr: 0x31F70, symBinAddr: 0x100034B60, symSize: 0x20 }
  - { offsetInCU: 0x84A8C, offset: 0x84A8C, size: 0x8, addend: 0x0, symName: __ZN4asio6detail10socket_ops21host_to_network_shortEt, symObjAddr: 0x32470, symBinAddr: 0x100035060, symSize: 0x30 }
  - { offsetInCU: 0x84ABA, offset: 0x84ABA, size: 0x8, addend: 0x0, symName: __ZN4asio6detail10socket_ops20host_to_network_longEj, symObjAddr: 0x324A0, symBinAddr: 0x100035090, symSize: 0x20 }
  - { offsetInCU: 0x84AE8, offset: 0x84AE8, size: 0x8, addend: 0x0, symName: __ZN4asio6detail10socket_ops20network_to_host_longEj, symObjAddr: 0x32910, symBinAddr: 0x100035500, symSize: 0x20 }
  - { offsetInCU: 0x84B16, offset: 0x84B16, size: 0x8, addend: 0x0, symName: __ZN4asio6detail10socket_ops6socketEiiiRNSt3__110error_codeE, symObjAddr: 0x3A800, symBinAddr: 0x10003D3F0, symSize: 0xC0 }
  - { offsetInCU: 0x84B9E, offset: 0x84B9E, size: 0x8, addend: 0x0, symName: __ZN4asio6detail10socket_ops4bindEiPKvmRNSt3__110error_codeE, symObjAddr: 0x3AE90, symBinAddr: 0x10003DA80, symSize: 0x80 }
  - { offsetInCU: 0x84C08, offset: 0x84C08, size: 0x8, addend: 0x0, symName: __ZN4asio6detail10socket_ops9call_bindIjEEiM6msghdrT_iPKvm, symObjAddr: 0x3AF50, symBinAddr: 0x10003DB40, symSize: 0x30 }
  - { offsetInCU: 0x84C68, offset: 0x84C68, size: 0x8, addend: 0x0, symName: __ZN4asio6detail10socket_ops6listenEiiRNSt3__110error_codeE, symObjAddr: 0x3AFE0, symBinAddr: 0x10003DBD0, symSize: 0x70 }
  - { offsetInCU: 0x84CC3, offset: 0x84CC3, size: 0x8, addend: 0x0, symName: __ZN4asio6detail10socket_ops11getsocknameEiPvPmRNSt3__110error_codeE, symObjAddr: 0x54D20, symBinAddr: 0x100057910, symSize: 0x80 }
  - { offsetInCU: 0x84D2D, offset: 0x84D2D, size: 0x8, addend: 0x0, symName: __ZN4asio6detail10socket_ops16call_getsocknameIjEEiM6msghdrT_iPvPm, symObjAddr: 0x54E30, symBinAddr: 0x100057A20, symSize: 0x50 }
  - { offsetInCU: 0x84DAB, offset: 0x84DAB, size: 0x8, addend: 0x0, symName: __ZN4asio6detail10socket_ops21network_to_host_shortEt, symObjAddr: 0x54FF0, symBinAddr: 0x100057BE0, symSize: 0x30 }
  - { offsetInCU: 0x84DD9, offset: 0x84DD9, size: 0x8, addend: 0x0, symName: __ZN4asio6detail10socket_ops8shutdownEiiRNSt3__110error_codeE, symObjAddr: 0x60C10, symBinAddr: 0x100063800, symSize: 0x70 }
  - { offsetInCU: 0x84E34, offset: 0x84E34, size: 0x8, addend: 0x0, symName: __ZN4asio6detail10socket_ops9sync_sendEihPK5iovecmibRNSt3__110error_codeE, symObjAddr: 0x84690, symBinAddr: 0x100087280, symSize: 0x190 }
  - { offsetInCU: 0x84ED9, offset: 0x84ED9, size: 0x8, addend: 0x0, symName: __ZN4asio6detail10socket_ops4sendEiPK5iovecmiRNSt3__110error_codeE, symObjAddr: 0x84AD0, symBinAddr: 0x1000876C0, symSize: 0x70 }
  - { offsetInCU: 0x84F63, offset: 0x84F63, size: 0x8, addend: 0x0, symName: __ZN4asio6detail10socket_ops10poll_writeEihiRNSt3__110error_codeE, symObjAddr: 0x84B70, symBinAddr: 0x100087760, symSize: 0xE0 }
  - { offsetInCU: 0x84FEB, offset: 0x84FEB, size: 0x8, addend: 0x0, symName: __ZN4asio6detail10socket_ops17non_blocking_sendEiPK5iovecmiRNSt3__110error_codeERm, symObjAddr: 0x87CE0, symBinAddr: 0x10008A8D0, symSize: 0x140 }
  - { offsetInCU: 0x85081, offset: 0x85081, size: 0x8, addend: 0x0, symName: __ZN4asio6detail10socket_ops25set_internal_non_blockingEiRhbRNSt3__110error_codeE, symObjAddr: 0x881D0, symBinAddr: 0x10008ADC0, symSize: 0x100 }
  - { offsetInCU: 0x850FA, offset: 0x850FA, size: 0x8, addend: 0x0, symName: __ZN4asio6detail10socket_ops11getpeernameEiPvPmbRNSt3__110error_codeE, symObjAddr: 0x8A3D0, symBinAddr: 0x10008CFC0, symSize: 0x80 }
  - { offsetInCU: 0x85173, offset: 0x85173, size: 0x8, addend: 0x0, symName: __ZN4asio6detail10socket_ops16call_getpeernameIjEEiM6msghdrT_iPvPm, symObjAddr: 0x8A450, symBinAddr: 0x10008D040, symSize: 0x50 }
  - { offsetInCU: 0x851F1, offset: 0x851F1, size: 0x8, addend: 0x0, symName: __ZN4asio6detail10socket_ops9inet_ntopEiPKvPcmmRNSt3__110error_codeE, symObjAddr: 0x8A750, symBinAddr: 0x10008D340, symSize: 0x1D0 }
  - { offsetInCU: 0x852D2, offset: 0x852D2, size: 0x8, addend: 0x0, symName: __ZN4asio6detail10socket_ops18non_blocking_recv1EiPvmibRNSt3__110error_codeERm, symObjAddr: 0x94900, symBinAddr: 0x1000974F0, symSize: 0x170 }
  - { offsetInCU: 0x85377, offset: 0x85377, size: 0x8, addend: 0x0, symName: __ZN4asio6detail10socket_ops5recv1EiPvmiRNSt3__110error_codeE, symObjAddr: 0x94A90, symBinAddr: 0x100097680, symSize: 0x60 }
  - { offsetInCU: 0x853F1, offset: 0x853F1, size: 0x8, addend: 0x0, symName: __ZN4asio6detail10socket_ops19non_blocking_acceptEihPvPmRNSt3__110error_codeERi, symObjAddr: 0x956B0, symBinAddr: 0x1000982A0, symSize: 0x1D0 }
  - { offsetInCU: 0x85469, offset: 0x85469, size: 0x8, addend: 0x0, symName: __ZN4asio6detail10socket_ops6acceptEiPvPmRNSt3__110error_codeE, symObjAddr: 0x958B0, symBinAddr: 0x1000984A0, symSize: 0xF0 }
  - { offsetInCU: 0x854F0, offset: 0x854F0, size: 0x8, addend: 0x0, symName: __ZN4asio6detail10socket_ops11call_acceptIjEEiM6msghdrT_iPvPm, symObjAddr: 0x959A0, symBinAddr: 0x100098590, symSize: 0xB0 }
  - { offsetInCU: 0x855E3, offset: 0x855E3, size: 0x8, addend: 0x0, symName: __ZN4asio6detail30execution_context_service_baseINS0_22deadline_timer_serviceINS0_18chrono_time_traitsINSt3__16chrono12steady_clockENS_11wait_traitsIS6_EEEEEEE2idE, symObjAddr: 0x9F510, symBinAddr: 0x100124080, symSize: 0x0 }
  - { offsetInCU: 0x85FA1, offset: 0x85FA1, size: 0x8, addend: 0x0, symName: __ZN4asio6detail30execution_context_service_baseINS0_18signal_set_serviceEE2idE, symObjAddr: 0x9F5A0, symBinAddr: 0x100124110, symSize: 0x0 }
  - { offsetInCU: 0x865C8, offset: 0x865C8, size: 0x8, addend: 0x0, symName: __ZN4asio6detail16get_signal_stateEv, symObjAddr: 0x7EC0, symBinAddr: 0x10000AAB0, symSize: 0x10 }
  - { offsetInCU: 0x865F1, offset: 0x865F1, size: 0x8, addend: 0x0, symName: __ZZN4asio6detail16get_signal_stateEvE5state, symObjAddr: 0x9F5F0, symBinAddr: 0x100124160, symSize: 0x0 }
  - { offsetInCU: 0x8671F, offset: 0x8671F, size: 0x8, addend: 0x0, symName: __ZN4asio6detail17posix_global_implINS_14system_contextEE11static_ptr_E, symObjAddr: 0x9F7C8, symBinAddr: 0x100124338, symSize: 0x0 }
  - { offsetInCU: 0x8A00F, offset: 0x8A00F, size: 0x8, addend: 0x0, symName: __ZN4asio6detail20posix_tss_ptr_createERm, symObjAddr: 0xFFA0, symBinAddr: 0x100012B90, symSize: 0x50 }
  - { offsetInCU: 0x8A057, offset: 0x8A057, size: 0x8, addend: 0x0, symName: __ZN4asio6detail11throw_errorERKNSt3__110error_codeEPKc, symObjAddr: 0xFFF0, symBinAddr: 0x100012BE0, symSize: 0x40 }
  - { offsetInCU: 0x8A093, offset: 0x8A093, size: 0x8, addend: 0x0, symName: __ZN4asio6detail14do_throw_errorERKNSt3__110error_codeEPKc, symObjAddr: 0x10050, symBinAddr: 0x100012C40, symSize: 0x70 }
  - { offsetInCU: 0x8A0DF, offset: 0x8A0DF, size: 0x8, addend: 0x0, symName: __ZN4asio6detail15throw_exceptionINSt3__112system_errorEEEvRKT_, symObjAddr: 0x100C0, symBinAddr: 0x100012CB0, symSize: 0x40 }
  - { offsetInCU: 0x8A1EF, offset: 0x8A1EF, size: 0x8, addend: 0x0, symName: __ZN4asio6detail15throw_exceptionINS_21invalid_service_ownerEEEvRKT_, symObjAddr: 0x2CDE0, symBinAddr: 0x10002F9D0, symSize: 0x40 }
  - { offsetInCU: 0x8A224, offset: 0x8A224, size: 0x8, addend: 0x0, symName: __ZN4asio6detail15throw_exceptionINS_22service_already_existsEEEvRKT_, symObjAddr: 0x2CF40, symBinAddr: 0x10002FB30, symSize: 0x40 }
  - { offsetInCU: 0x8A259, offset: 0x8A259, size: 0x8, addend: 0x0, symName: __ZN4asio6detail11throw_errorERKNSt3__110error_codeE, symObjAddr: 0x2DB40, symBinAddr: 0x100030730, symSize: 0x40 }
  - { offsetInCU: 0x8A285, offset: 0x8A285, size: 0x8, addend: 0x0, symName: __ZN4asio6detail14do_throw_errorERKNSt3__110error_codeE, symObjAddr: 0x2EB10, symBinAddr: 0x100031700, symSize: 0x70 }
  - { offsetInCU: 0x8A337, offset: 0x8A337, size: 0x8, addend: 0x0, symName: __ZN4asio6detail9incrementERNSt3__16atomicIlEEl, symObjAddr: 0x30F60, symBinAddr: 0x100033B50, symSize: 0x30 }
  - { offsetInCU: 0x8A3E4, offset: 0x8A3E4, size: 0x8, addend: 0x0, symName: __ZN4asio6detail15throw_exceptionINS_2ip16bad_address_castEEEvRKT_, symObjAddr: 0x32730, symBinAddr: 0x100035320, symSize: 0x40 }
  - { offsetInCU: 0x8A5CF, offset: 0x8A5CF, size: 0x8, addend: 0x0, symName: __ZN4asio6detail15throw_exceptionINS_9execution12bad_executorEEEvRKT_, symObjAddr: 0x36170, symBinAddr: 0x100038D60, symSize: 0x40 }
  - { offsetInCU: 0x8A76C, offset: 0x8A76C, size: 0x8, addend: 0x0, symName: __ZN4asio6detail15throw_exceptionISt11logic_errorEEvRKT_, symObjAddr: 0x3BC00, symBinAddr: 0x10003E7F0, symSize: 0x40 }
  - { offsetInCU: 0x8AC18, offset: 0x8AC18, size: 0x8, addend: 0x0, symName: __ZN4asio6detail19asio_handler_invokeINS0_7binder1INSt3__16__bindIMN4crow6detail10task_timerEFvRKNS3_10error_codeEEJPS7_RKNS3_12placeholders4__phILi1EEEEEES8_EESJ_S8_EEvRT_PNS2_IT0_T1_EE, symObjAddr: 0x4B030, symBinAddr: 0x10004DC20, symSize: 0x30 }
  - { offsetInCU: 0x8B2C6, offset: 0x8B2C6, size: 0x8, addend: 0x0, symName: __ZN4asio6detail19asio_handler_invokeINS0_7binder1IZN4crow6ServerINS3_4CrowIJNS3_11CORSHandlerEEEENS3_13SocketAdaptorEJS6_EE7on_tickEvEUlRKNSt3__110error_codeEE_SB_EESE_SB_EEvRT_PNS2_IT0_T1_EE, symObjAddr: 0x543F0, symBinAddr: 0x100056FE0, symSize: 0x30 }
  - { offsetInCU: 0x8B3DB, offset: 0x8B3DB, size: 0x8, addend: 0x0, symName: __ZN4asio6detail19asio_handler_invokeINS0_7binder1IZN4crow6ServerINS3_4CrowIJNS3_11CORSHandlerEEEENS3_13SocketAdaptorEJS6_EE3runEvEUlRKNSt3__110error_codeEE_SB_EESE_SB_EEvRT_PNS2_IT0_T1_EE, symObjAddr: 0x54B40, symBinAddr: 0x100057730, symSize: 0x30 }
  - { offsetInCU: 0x8B753, offset: 0x8B753, size: 0x8, addend: 0x0, symName: __ZN4asio6detail19asio_handler_invokeINS0_7binder2IZN4crow6ServerINS3_4CrowIJNS3_11CORSHandlerEEEENS3_13SocketAdaptorEJS6_EE3runEvEUlRKNSt3__110error_codeEiE_SB_iEESE_SB_iEEvRT_PNS2_IT0_T1_T2_EE, symObjAddr: 0x568B0, symBinAddr: 0x1000594A0, symSize: 0x30 }
  - { offsetInCU: 0x8C0AA, offset: 0x8C0AA, size: 0x8, addend: 0x0, symName: __ZN4asio6detail5writeINS_19basic_stream_socketINS_2ip3tcpENS_15any_io_executorEEENSt3__16vectorINS_12const_bufferENS7_9allocatorIS9_EEEENS7_11__wrap_iterIPKS9_EENS0_14transfer_all_tEEEmRT_RKT0_RKT1_T2_RNS7_10error_codeE, symObjAddr: 0x83090, symBinAddr: 0x100085C80, symSize: 0x1B0 }
  - { offsetInCU: 0x8C15A, offset: 0x8C15A, size: 0x8, addend: 0x0, symName: __ZN4asio6detail33adapt_completion_condition_resultEm, symObjAddr: 0x832C0, symBinAddr: 0x100085EB0, symSize: 0x10 }
  - { offsetInCU: 0x8C186, offset: 0x8C186, size: 0x8, addend: 0x0, symName: __ZN4asio6detail11buffer_sizeINSt3__111__wrap_iterIPKNS_12const_bufferEEEEEmNS0_16multiple_buffersET_S9_, symObjAddr: 0x84010, symBinAddr: 0x100086C00, symSize: 0x80 }
  - { offsetInCU: 0x8C380, offset: 0x8C380, size: 0x8, addend: 0x0, symName: __ZN4asio6detail5writeINS_19basic_stream_socketINS_2ip3tcpENS_15any_io_executorEEENSt3__16vectorINS_12const_bufferENS7_9allocatorIS9_EEEENS7_11__wrap_iterIPKS9_EEZN4crow10ConnectionINSH_13SocketAdaptorENSH_4CrowIJNSH_11CORSHandlerEEEEJSL_EE13do_write_syncERSC_EUlNS7_10error_codeEmE_EEmRT_RKT0_RKT1_T2_RSP_, symObjAddr: 0x85270, symBinAddr: 0x100087E60, symSize: 0x190 }
  - { offsetInCU: 0x8C430, offset: 0x8C430, size: 0x8, addend: 0x0, symName: __ZN4asio6detail33adapt_completion_condition_resultEb, symObjAddr: 0x85400, symBinAddr: 0x100087FF0, symSize: 0x20 }
  - { offsetInCU: 0x8C5B0, offset: 0x8C5B0, size: 0x8, addend: 0x0, symName: __ZN4asio6detail14start_write_opINS_19basic_stream_socketINS_2ip3tcpENS_15any_io_executorEEENSt3__16vectorINS_12const_bufferENS7_9allocatorIS9_EEEENS7_11__wrap_iterIPKS9_EENS0_14transfer_all_tEZN4crow10ConnectionINSI_13SocketAdaptorENSI_4CrowIJNSI_11CORSHandlerEEEEJSM_EE8do_writeEvEUlRKNS7_10error_codeEmE_EEvRT_RKT0_RKT1_RT2_RT3_, symObjAddr: 0x85C90, symBinAddr: 0x100088880, symSize: 0xB0 }
  - { offsetInCU: 0x8C75C, offset: 0x8C75C, size: 0x8, addend: 0x0, symName: __ZN4asio6detail28asio_handler_is_continuationINS_19basic_stream_socketINS_2ip3tcpENS_15any_io_executorEEENSt3__16vectorINS_12const_bufferENS7_9allocatorIS9_EEEENS7_11__wrap_iterIPKS9_EENS0_14transfer_all_tEZN4crow10ConnectionINSI_13SocketAdaptorENSI_4CrowIJNSI_11CORSHandlerEEEEJSM_EE8do_writeEvEUlRKNS7_10error_codeEmE_EEbPNS0_8write_opIT_T0_T1_T2_T3_EE, symObjAddr: 0x868F0, symBinAddr: 0x1000894E0, symSize: 0x50 }
  - { offsetInCU: 0x8C912, offset: 0x8C912, size: 0x8, addend: 0x0, symName: __ZN4asio6detail21asio_handler_allocateINS_19basic_stream_socketINS_2ip3tcpENS_15any_io_executorEEENSt3__16vectorINS_12const_bufferENS7_9allocatorIS9_EEEENS7_11__wrap_iterIPKS9_EENS0_14transfer_all_tEZN4crow10ConnectionINSI_13SocketAdaptorENSI_4CrowIJNSI_11CORSHandlerEEEEJSM_EE8do_writeEvEUlRKNS7_10error_codeEmE_EEPvmPNS0_8write_opIT_T0_T1_T2_T3_EE, symObjAddr: 0x86B50, symBinAddr: 0x100089740, symSize: 0x30 }
  - { offsetInCU: 0x8C97C, offset: 0x8C97C, size: 0x8, addend: 0x0, symName: __ZN4asio6detail23asio_handler_deallocateINS_19basic_stream_socketINS_2ip3tcpENS_15any_io_executorEEENSt3__16vectorINS_12const_bufferENS7_9allocatorIS9_EEEENS7_11__wrap_iterIPKS9_EENS0_14transfer_all_tEZN4crow10ConnectionINSI_13SocketAdaptorENSI_4CrowIJNSI_11CORSHandlerEEEEJSM_EE8do_writeEvEUlRKNS7_10error_codeEmE_EEvPvmPNS0_8write_opIT_T0_T1_T2_T3_EE, symObjAddr: 0x87220, symBinAddr: 0x100089E10, symSize: 0x30 }
  - { offsetInCU: 0x8C9F5, offset: 0x8C9F5, size: 0x8, addend: 0x0, symName: __ZN4asio6detail19asio_handler_invokeINS0_7binder2INS0_8write_opINS_19basic_stream_socketINS_2ip3tcpENS_15any_io_executorEEENSt3__16vectorINS_12const_bufferENS9_9allocatorISB_EEEENS9_11__wrap_iterIPKSB_EENS0_14transfer_all_tEZN4crow10ConnectionINSK_13SocketAdaptorENSK_4CrowIJNSK_11CORSHandlerEEEEJSO_EE8do_writeEvEUlRKNS9_10error_codeEmE_EESR_mEES8_SE_SI_SJ_SU_EEvRT_PNS3_IT0_T1_T2_T3_T4_EE, symObjAddr: 0x872E0, symBinAddr: 0x100089ED0, symSize: 0x30 }
  - { offsetInCU: 0x8CB23, offset: 0x8CB23, size: 0x8, addend: 0x0, symName: __ZN4asio6detail19asio_handler_invokeINS0_7binder2INS0_8write_opINS_19basic_stream_socketINS_2ip3tcpENS_15any_io_executorEEENSt3__16vectorINS_12const_bufferENS9_9allocatorISB_EEEENS9_11__wrap_iterIPKSB_EENS0_14transfer_all_tEZN4crow10ConnectionINSK_13SocketAdaptorENSK_4CrowIJNSK_11CORSHandlerEEEEJSO_EE8do_writeEvEUlRKNS9_10error_codeEmE_EESR_mEESV_SR_mEEvRT_PNS2_IT0_T1_T2_EE, symObjAddr: 0x87B30, symBinAddr: 0x10008A720, symSize: 0x30 }
  - { offsetInCU: 0x8CC44, offset: 0x8CC44, size: 0x8, addend: 0x0, symName: __ZN4asio6detail19asio_handler_invokeINS0_7binder2IZN4crow10ConnectionINS3_13SocketAdaptorENS3_4CrowIJNS3_11CORSHandlerEEEEJS7_EE7do_readEvEUlRKNSt3__110error_codeEmE_SB_mEESE_SB_mEEvRT_PNS2_IT0_T1_T2_EE, symObjAddr: 0x94760, symBinAddr: 0x100097350, symSize: 0x30 }
  - { offsetInCU: 0x8CD65, offset: 0x8CD65, size: 0x8, addend: 0x0, symName: __ZN4asio6detail19asio_handler_invokeINS0_7binder1IZN4crow6ServerINS3_4CrowIJNS3_11CORSHandlerEEEENS3_13SocketAdaptorEJS6_EE9do_acceptEvEUlNSt3__110error_codeEE_SB_EESC_SB_EEvRT_PNS2_IT0_T1_EE, symObjAddr: 0x95510, symBinAddr: 0x100098100, symSize: 0x30 }
  - { offsetInCU: 0x908DC, offset: 0x908DC, size: 0x8, addend: 0x0, symName: __ZN4asio9execution6detail10blocking_tILi0EE5neverE, symObjAddr: 0xA064E, symBinAddr: 0x10010EFFE, symSize: 0x0 }
  - { offsetInCU: 0x908F0, offset: 0x908F0, size: 0x8, addend: 0x0, symName: __ZN4asio9execution6detail10blocking_tILi0EE8possiblyE, symObjAddr: 0xA064F, symBinAddr: 0x10010EFFF, symSize: 0x0 }
  - { offsetInCU: 0x90904, offset: 0x90904, size: 0x8, addend: 0x0, symName: __ZN4asio9execution6detail10blocking_tILi0EE6alwaysE, symObjAddr: 0xA05B4, symBinAddr: 0x10010EF64, symSize: 0x0 }
  - { offsetInCU: 0x90C77, offset: 0x90C77, size: 0x8, addend: 0x0, symName: __ZN4asio9execution6detail14relationship_tILi0EE12continuationE, symObjAddr: 0xA06C8, symBinAddr: 0x10010F078, symSize: 0x0 }
  - { offsetInCU: 0x90C8B, offset: 0x90C8B, size: 0x8, addend: 0x0, symName: __ZN4asio9execution6detail14relationship_tILi0EE4forkE, symObjAddr: 0xA06C9, symBinAddr: 0x10010F079, symSize: 0x0 }
  - { offsetInCU: 0x90C9F, offset: 0x90C9F, size: 0x8, addend: 0x0, symName: __ZN4asio9execution6detail18outstanding_work_tILi0EE7trackedE, symObjAddr: 0xA0BBC, symBinAddr: 0x10010F56C, symSize: 0x0 }
  - { offsetInCU: 0x90DEE, offset: 0x90DEE, size: 0x8, addend: 0x0, symName: __ZN4asio9execution6detaileqERKNS1_10blocking_tILi0EEES5_, symObjAddr: 0x33890, symBinAddr: 0x100036480, symSize: 0x30 }
  - { offsetInCU: 0x90EB3, offset: 0x90EB3, size: 0x8, addend: 0x0, symName: __ZN4asio9executionL8blockingE, symObjAddr: 0xA05B0, symBinAddr: 0x10010EF60, symSize: 0x0 }
  - { offsetInCU: 0x912DA, offset: 0x912DA, size: 0x8, addend: 0x0, symName: __ZN4asio9executionL7contextE, symObjAddr: 0xA0650, symBinAddr: 0x10010F000, symSize: 0x0 }
  - { offsetInCU: 0x912F4, offset: 0x912F4, size: 0x8, addend: 0x0, symName: __ZN4asio9executionL12relationshipE, symObjAddr: 0xA06C4, symBinAddr: 0x10010F074, symSize: 0x0 }
  - { offsetInCU: 0x9130E, offset: 0x9130E, size: 0x8, addend: 0x0, symName: __ZN4asio9executionL16outstanding_workE, symObjAddr: 0xA0BB8, symBinAddr: 0x10010F568, symSize: 0x0 }
  - { offsetInCU: 0x9132A, offset: 0x9132A, size: 0x8, addend: 0x0, symName: __ZN4asio9execution5queryINS_10io_context19basic_executor_typeINSt3__19allocatorIvEELm0EEERNS_17execution_contextEEET0_RKT_RKNS0_12context_as_tISA_EEPNS4_9enable_ifIXsr7is_sameIS9_SA_EE5valueEvE4typeEPNSI_IXsr9can_queryISD_RKNS0_6detail9context_tILi0EEEEE5valueEvE4typeE, symObjAddr: 0x35A80, symBinAddr: 0x100038670, symSize: 0x40 }
  - { offsetInCU: 0x913F6, offset: 0x913F6, size: 0x8, addend: 0x0, symName: __ZN4asio9execution5queryINS_10io_context19basic_executor_typeINSt3__19allocatorIvEELm0EEENS0_6detail8blocking10possibly_tILi0EEEEENS_12query_resultIRKT_RKSB_E4typeESF_RKNS0_11prefer_onlyIT0_EEPNS4_9enable_ifIXsr7is_sameISL_SB_EE5valueEvE4typeEPNSP_IXsr9can_queryISF_SH_EE5valueEvE4typeE, symObjAddr: 0x36FE0, symBinAddr: 0x100039BD0, symSize: 0x40 }
  - { offsetInCU: 0x9145A, offset: 0x9145A, size: 0x8, addend: 0x0, symName: __ZN4asio9execution6preferINS_10io_context19basic_executor_typeINSt3__19allocatorIvEELm0EEENS0_6detail8blocking10possibly_tILi0EEEEENS_13prefer_resultIRKT_JRKSB_EE4typeESF_RKNS0_11prefer_onlyIT0_EEPNS4_9enable_ifIXsr7is_sameISL_SB_EE5valueEvE4typeEPNSP_IXsr10can_preferISF_SH_EE5valueEvE4typeE, symObjAddr: 0x37160, symBinAddr: 0x100039D50, symSize: 0x50 }
  - { offsetInCU: 0x914BE, offset: 0x914BE, size: 0x8, addend: 0x0, symName: __ZN4asio9execution6preferINS_10io_context19basic_executor_typeINSt3__19allocatorIvEELm0EEENS0_6detail16outstanding_work9tracked_tILi0EEEEENS_13prefer_resultIRKT_JRKSB_EE4typeESF_RKNS0_11prefer_onlyIT0_EEPNS4_9enable_ifIXsr7is_sameISL_SB_EE5valueEvE4typeEPNSP_IXsr10can_preferISF_SH_EE5valueEvE4typeE, symObjAddr: 0x37480, symBinAddr: 0x10003A070, symSize: 0x50 }
  - { offsetInCU: 0x91522, offset: 0x91522, size: 0x8, addend: 0x0, symName: __ZN4asio9execution5queryINS_10io_context19basic_executor_typeINSt3__19allocatorIvEELm4EEERNS_17execution_contextEEET0_RKT_RKNS0_12context_as_tISA_EEPNS4_9enable_ifIXsr7is_sameIS9_SA_EE5valueEvE4typeEPNSI_IXsr9can_queryISD_RKNS0_6detail9context_tILi0EEEEE5valueEvE4typeE, symObjAddr: 0x38640, symBinAddr: 0x10003B230, symSize: 0x40 }
  - { offsetInCU: 0x91582, offset: 0x91582, size: 0x8, addend: 0x0, symName: __ZN4asio9execution5queryINS_10io_context19basic_executor_typeINSt3__19allocatorIvEELm4EEENS0_6detail8blocking10possibly_tILi0EEEEENS_12query_resultIRKT_RKSB_E4typeESF_RKNS0_11prefer_onlyIT0_EEPNS4_9enable_ifIXsr7is_sameISL_SB_EE5valueEvE4typeEPNSP_IXsr9can_queryISF_SH_EE5valueEvE4typeE, symObjAddr: 0x38B30, symBinAddr: 0x10003B720, symSize: 0x40 }
  - { offsetInCU: 0x915E6, offset: 0x915E6, size: 0x8, addend: 0x0, symName: __ZN4asio9execution6preferINS_10io_context19basic_executor_typeINSt3__19allocatorIvEELm4EEENS0_6detail8blocking10possibly_tILi0EEEEENS_13prefer_resultIRKT_JRKSB_EE4typeESF_RKNS0_11prefer_onlyIT0_EEPNS4_9enable_ifIXsr7is_sameISL_SB_EE5valueEvE4typeEPNSP_IXsr10can_preferISF_SH_EE5valueEvE4typeE, symObjAddr: 0x38CB0, symBinAddr: 0x10003B8A0, symSize: 0x50 }
  - { offsetInCU: 0x9164A, offset: 0x9164A, size: 0x8, addend: 0x0, symName: __ZN4asio9execution6preferINS_10io_context19basic_executor_typeINSt3__19allocatorIvEELm4EEENS0_6detail16outstanding_work9tracked_tILi0EEEEENS_13prefer_resultIRKT_JRKSB_EE4typeESF_RKNS0_11prefer_onlyIT0_EEPNS4_9enable_ifIXsr7is_sameISL_SB_EE5valueEvE4typeEPNSP_IXsr10can_preferISF_SH_EE5valueEvE4typeE, symObjAddr: 0x38F70, symBinAddr: 0x10003BB60, symSize: 0x40 }
  - { offsetInCU: 0x916AE, offset: 0x916AE, size: 0x8, addend: 0x0, symName: __ZN4asio9execution6preferINS_10io_context19basic_executor_typeINSt3__19allocatorIvEELm4EEENS0_6detail16outstanding_work11untracked_tILi0EEEEENS_13prefer_resultIRKT_JRKSB_EE4typeESF_RKNS0_11prefer_onlyIT0_EEPNS4_9enable_ifIXsr7is_sameISL_SB_EE5valueEvE4typeEPNSP_IXsr10can_preferISF_SH_EE5valueEvE4typeE, symObjAddr: 0x391B0, symBinAddr: 0x10003BDA0, symSize: 0x50 }
  - { offsetInCU: 0x91712, offset: 0x91712, size: 0x8, addend: 0x0, symName: __ZN4asio9execution5queryINS_10io_context19basic_executor_typeINSt3__19allocatorIvEELm4EEENS0_6detail12relationship6fork_tILi0EEEEENS_12query_resultIRKT_RKSB_E4typeESF_RKNS0_11prefer_onlyIT0_EEPNS4_9enable_ifIXsr7is_sameISL_SB_EE5valueEvE4typeEPNSP_IXsr9can_queryISF_SH_EE5valueEvE4typeE, symObjAddr: 0x393A0, symBinAddr: 0x10003BF90, symSize: 0x40 }
  - { offsetInCU: 0x91776, offset: 0x91776, size: 0x8, addend: 0x0, symName: __ZN4asio9execution6preferINS_10io_context19basic_executor_typeINSt3__19allocatorIvEELm4EEENS0_6detail12relationship6fork_tILi0EEEEENS_13prefer_resultIRKT_JRKSB_EE4typeESF_RKNS0_11prefer_onlyIT0_EEPNS4_9enable_ifIXsr7is_sameISL_SB_EE5valueEvE4typeEPNSP_IXsr10can_preferISF_SH_EE5valueEvE4typeE, symObjAddr: 0x39600, symBinAddr: 0x10003C1F0, symSize: 0x50 }
  - { offsetInCU: 0x917DA, offset: 0x917DA, size: 0x8, addend: 0x0, symName: __ZN4asio9execution5queryINS_10io_context19basic_executor_typeINSt3__19allocatorIvEELm4EEENS0_6detail12relationship14continuation_tILi0EEEEENS_12query_resultIRKT_RKSB_E4typeESF_RKNS0_11prefer_onlyIT0_EEPNS4_9enable_ifIXsr7is_sameISL_SB_EE5valueEvE4typeEPNSP_IXsr9can_queryISF_SH_EE5valueEvE4typeE, symObjAddr: 0x397F0, symBinAddr: 0x10003C3E0, symSize: 0x40 }
  - { offsetInCU: 0x9183E, offset: 0x9183E, size: 0x8, addend: 0x0, symName: __ZN4asio9execution6preferINS_10io_context19basic_executor_typeINSt3__19allocatorIvEELm4EEENS0_6detail12relationship14continuation_tILi0EEEEENS_13prefer_resultIRKT_JRKSB_EE4typeESF_RKNS0_11prefer_onlyIT0_EEPNS4_9enable_ifIXsr7is_sameISL_SB_EE5valueEvE4typeEPNSP_IXsr10can_preferISF_SH_EE5valueEvE4typeE, symObjAddr: 0x39970, symBinAddr: 0x10003C560, symSize: 0x50 }
  - { offsetInCU: 0x918A2, offset: 0x918A2, size: 0x8, addend: 0x0, symName: __ZN4asio9execution6preferINS_10io_context19basic_executor_typeINSt3__19allocatorIvEELm0EEENS0_6detail16outstanding_work11untracked_tILi0EEEEENS_13prefer_resultIRKT_JRKSB_EE4typeESF_RKNS0_11prefer_onlyIT0_EEPNS4_9enable_ifIXsr7is_sameISL_SB_EE5valueEvE4typeEPNSP_IXsr10can_preferISF_SH_EE5valueEvE4typeE, symObjAddr: 0x39C80, symBinAddr: 0x10003C870, symSize: 0x40 }
  - { offsetInCU: 0x91906, offset: 0x91906, size: 0x8, addend: 0x0, symName: __ZN4asio9execution5queryINS_10io_context19basic_executor_typeINSt3__19allocatorIvEELm0EEENS0_6detail12relationship6fork_tILi0EEEEENS_12query_resultIRKT_RKSB_E4typeESF_RKNS0_11prefer_onlyIT0_EEPNS4_9enable_ifIXsr7is_sameISL_SB_EE5valueEvE4typeEPNSP_IXsr9can_queryISF_SH_EE5valueEvE4typeE, symObjAddr: 0x39DE0, symBinAddr: 0x10003C9D0, symSize: 0x40 }
  - { offsetInCU: 0x9196A, offset: 0x9196A, size: 0x8, addend: 0x0, symName: __ZN4asio9execution6preferINS_10io_context19basic_executor_typeINSt3__19allocatorIvEELm0EEENS0_6detail12relationship6fork_tILi0EEEEENS_13prefer_resultIRKT_JRKSB_EE4typeESF_RKNS0_11prefer_onlyIT0_EEPNS4_9enable_ifIXsr7is_sameISL_SB_EE5valueEvE4typeEPNSP_IXsr10can_preferISF_SH_EE5valueEvE4typeE, symObjAddr: 0x39FC0, symBinAddr: 0x10003CBB0, symSize: 0x50 }
  - { offsetInCU: 0x919CE, offset: 0x919CE, size: 0x8, addend: 0x0, symName: __ZN4asio9execution5queryINS_10io_context19basic_executor_typeINSt3__19allocatorIvEELm0EEENS0_6detail12relationship14continuation_tILi0EEEEENS_12query_resultIRKT_RKSB_E4typeESF_RKNS0_11prefer_onlyIT0_EEPNS4_9enable_ifIXsr7is_sameISL_SB_EE5valueEvE4typeEPNSP_IXsr9can_queryISF_SH_EE5valueEvE4typeE, symObjAddr: 0x3A1B0, symBinAddr: 0x10003CDA0, symSize: 0x40 }
  - { offsetInCU: 0x91A32, offset: 0x91A32, size: 0x8, addend: 0x0, symName: __ZN4asio9execution6preferINS_10io_context19basic_executor_typeINSt3__19allocatorIvEELm0EEENS0_6detail12relationship14continuation_tILi0EEEEENS_13prefer_resultIRKT_JRKSB_EE4typeESF_RKNS0_11prefer_onlyIT0_EEPNS4_9enable_ifIXsr7is_sameISL_SB_EE5valueEvE4typeEPNSP_IXsr10can_preferISF_SH_EE5valueEvE4typeE, symObjAddr: 0x3A330, symBinAddr: 0x10003CF20, symSize: 0x50 }
  - { offsetInCU: 0x928E6, offset: 0x928E6, size: 0x8, addend: 0x0, symName: __ZN4asio2ip12make_addressERKNSt3__112basic_stringIcNS1_11char_traitsIcEENS1_9allocatorIcEEEE, symObjAddr: 0x31920, symBinAddr: 0x100034510, symSize: 0x40 }
  - { offsetInCU: 0x92916, offset: 0x92916, size: 0x8, addend: 0x0, symName: __ZN4asio2ip12make_addressEPKc, symObjAddr: 0x31960, symBinAddr: 0x100034550, symSize: 0x50 }
  - { offsetInCU: 0x92967, offset: 0x92967, size: 0x8, addend: 0x0, symName: __ZN4asio2ip12make_addressEPKcRNSt3__110error_codeE, symObjAddr: 0x319B0, symBinAddr: 0x1000345A0, symSize: 0xA0 }
  - { offsetInCU: 0x929C7, offset: 0x929C7, size: 0x8, addend: 0x0, symName: __ZN4asio2ip15make_address_v6EPKcRNSt3__110error_codeE, symObjAddr: 0x31A50, symBinAddr: 0x100034640, symSize: 0xD0 }
  - { offsetInCU: 0x92A2C, offset: 0x92A2C, size: 0x8, addend: 0x0, symName: __ZN4asio2ip15make_address_v4EPKcRNSt3__110error_codeE, symObjAddr: 0x31B50, symBinAddr: 0x100034740, symSize: 0x90 }
  - { offsetInCU: 0x92AE4, offset: 0x92AE4, size: 0x8, addend: 0x0, symName: __ZN4asio2iplsIcNSt3__111char_traitsIcEENS0_3tcpEEERNS2_13basic_ostreamIT_T0_EESA_RKNS0_14basic_endpointIT1_EE, symObjAddr: 0x8B8B0, symBinAddr: 0x10008E4A0, symSize: 0xD0 }
  - { offsetInCU: 0x92B4F, offset: 0x92B4F, size: 0x8, addend: 0x0, symName: __ZN4asio2iplsIcNSt3__111char_traitsIcEEEERNS2_13basic_ostreamIT_T0_EES9_RKNS0_7addressE, symObjAddr: 0x8C060, symBinAddr: 0x10008EC50, symSize: 0x80 }
  - { offsetInCU: 0x92DD9, offset: 0x92DD9, size: 0x8, addend: 0x0, symName: __ZN4asio15system_categoryEv, symObjAddr: 0x2A80, symBinAddr: 0x100005670, symSize: 0x60 }
  - { offsetInCU: 0x92E02, offset: 0x92E02, size: 0x8, addend: 0x0, symName: __ZZN4asio15system_categoryEvE8instance, symObjAddr: 0x9F5B0, symBinAddr: 0x100124120, symSize: 0x0 }
  - { offsetInCU: 0x94D79, offset: 0x94D79, size: 0x8, addend: 0x0, symName: __ZN4asio11add_serviceINS_6detail9schedulerEEEvRNS_17execution_contextEPT_, symObjAddr: 0x2CA90, symBinAddr: 0x10002F680, symSize: 0x30 }
  - { offsetInCU: 0x94E52, offset: 0x94E52, size: 0x8, addend: 0x0, symName: __ZN4asio11use_serviceINS_6detail14kqueue_reactorEEERT_RNS_17execution_contextE, symObjAddr: 0x2D2E0, symBinAddr: 0x10002FED0, symSize: 0x20 }
  - { offsetInCU: 0x94E8B, offset: 0x94E8B, size: 0x8, addend: 0x0, symName: __ZN4asio11use_serviceINS_6detail9schedulerEEERT_RNS_17execution_contextE, symObjAddr: 0x2D9E0, symBinAddr: 0x1000305D0, symSize: 0x20 }
  - { offsetInCU: 0x94EC4, offset: 0x94EC4, size: 0x8, addend: 0x0, symName: __ZN4asio14aligned_deleteEPv, symObjAddr: 0x30A90, symBinAddr: 0x100033680, symSize: 0x20 }
  - { offsetInCU: 0x94EF0, offset: 0x94EF0, size: 0x8, addend: 0x0, symName: __ZN4asio11use_serviceINS_6detail23reactive_socket_serviceINS_2ip3tcpEEEEERT_RNS_10io_contextE, symObjAddr: 0x33010, symBinAddr: 0x100035C00, symSize: 0x30 }
  - { offsetInCU: 0x94F28, offset: 0x94F28, size: 0x8, addend: 0x0, symName: __ZN4asioeqERKNS_10io_context19basic_executor_typeINSt3__19allocatorIvEELm0EEES7_, symObjAddr: 0x33AC0, symBinAddr: 0x1000366B0, symSize: 0x50 }
  - { offsetInCU: 0x94F66, offset: 0x94F66, size: 0x8, addend: 0x0, symName: __ZN4asio19asio_handler_invokeINS_6detail17executor_functionEEEvRT_z, symObjAddr: 0x34150, symBinAddr: 0x100036D40, symSize: 0x20 }
  - { offsetInCU: 0x94FA0, offset: 0x94FA0, size: 0x8, addend: 0x0, symName: __ZN4asio11aligned_newEmm, symObjAddr: 0x347F0, symBinAddr: 0x1000373E0, symSize: 0x20 }
  - { offsetInCU: 0x94FE0, offset: 0x94FE0, size: 0x8, addend: 0x0, symName: __ZN4asio19asio_handler_invokeINS_6detail22executor_function_viewEEEvRT_z, symObjAddr: 0x34F40, symBinAddr: 0x100037B30, symSize: 0x20 }
  - { offsetInCU: 0x95019, offset: 0x95019, size: 0x8, addend: 0x0, symName: __ZN4asioeqERKNS_10io_context19basic_executor_typeINSt3__19allocatorIvEELm4EEES7_, symObjAddr: 0x379D0, symBinAddr: 0x10003A5C0, symSize: 0x50 }
  - { offsetInCU: 0x95057, offset: 0x95057, size: 0x8, addend: 0x0, symName: __ZN4asio11use_serviceINS_6detail18signal_set_serviceEEERT_RNS_10io_contextE, symObjAddr: 0x3B1C0, symBinAddr: 0x10003DDB0, symSize: 0x30 }
  - { offsetInCU: 0x95090, offset: 0x95090, size: 0x8, addend: 0x0, symName: __ZN4asio11use_serviceINS_6detail22deadline_timer_serviceINS1_18chrono_time_traitsINSt3__16chrono12steady_clockENS_11wait_traitsIS6_EEEEEEEERT_RNS_10io_contextE, symObjAddr: 0x3CA40, symBinAddr: 0x10003F630, symSize: 0x30 }
  - { offsetInCU: 0x950C9, offset: 0x950C9, size: 0x8, addend: 0x0, symName: __ZN4asio14async_initiateINSt3__16__bindIMN4crow6detail10task_timerEFvRKNS1_10error_codeEEJPS5_RKNS1_12placeholders4__phILi1EEEEEEJFvS6_EENS_20basic_waitable_timerINS1_6chrono12steady_clockENS_11wait_traitsISL_EENS_15any_io_executorEE19initiate_async_waitEJEEENS_10constraintIXsr6detail31async_result_has_initiate_memfnIT_DpT0_EE5valueEDTclsr12async_resultINS1_5decayISS_E4typeESU_EE8initiatecl7declvalIOT1_EEcl7declvalIOSS_EEspcl7declvalIOT2_EEEEE4typeESZ_RSS_DpS12_, symObjAddr: 0x49420, symBinAddr: 0x10004C010, symSize: 0x30 }
  - { offsetInCU: 0x9512E, offset: 0x9512E, size: 0x8, addend: 0x0, symName: __ZN4asio32get_associated_cancellation_slotINSt3__16__bindIMN4crow6detail10task_timerEFvRKNS1_10error_codeEEJPS5_RKNS1_12placeholders4__phILi1EEEEEEEENS_28associated_cancellation_slotIT_NS_17cancellation_slotEE4typeERKSJ_, symObjAddr: 0x49720, symBinAddr: 0x10004C310, symSize: 0x30 }
  - { offsetInCU: 0x95167, offset: 0x95167, size: 0x8, addend: 0x0, symName: __ZN4asio24get_associated_allocatorINSt3__16__bindIMN4crow6detail10task_timerEFvRKNS1_10error_codeEEJPS5_RKNS1_12placeholders4__phILi1EEEEEEEENS_20associated_allocatorIT_NS1_9allocatorIvEEE4typeERKSJ_, symObjAddr: 0x49A60, symBinAddr: 0x10004C650, symSize: 0x20 }
  - { offsetInCU: 0x951A0, offset: 0x951A0, size: 0x8, addend: 0x0, symName: __ZN4asio21asio_handler_allocateEmz, symObjAddr: 0x49B90, symBinAddr: 0x10004C780, symSize: 0x30 }
  - { offsetInCU: 0x951D1, offset: 0x951D1, size: 0x8, addend: 0x0, symName: __ZN4asio23asio_handler_deallocateEPvmz, symObjAddr: 0x4A2B0, symBinAddr: 0x10004CEA0, symSize: 0x30 }
  - { offsetInCU: 0x95212, offset: 0x95212, size: 0x8, addend: 0x0, symName: __ZN4asio19asio_handler_invokeINS_6detail7binder1INSt3__16__bindIMN4crow6detail10task_timerEFvRKNS3_10error_codeEEJPS7_RKNS3_12placeholders4__phILi1EEEEEES8_EEEEvRT_z, symObjAddr: 0x4A3A0, symBinAddr: 0x10004CF90, symSize: 0x20 }
  - { offsetInCU: 0x9524C, offset: 0x9524C, size: 0x8, addend: 0x0, symName: __ZN4asiontENS_17cancellation_typeE, symObjAddr: 0x4BB00, symBinAddr: 0x10004E6F0, symSize: 0x20 }
  - { offsetInCU: 0x95279, offset: 0x95279, size: 0x8, addend: 0x0, symName: __ZN4asioanENS_17cancellation_typeES0_, symObjAddr: 0x4BB20, symBinAddr: 0x10004E710, symSize: 0x20 }
  - { offsetInCU: 0x952B5, offset: 0x952B5, size: 0x8, addend: 0x0, symName: __ZN4asioorENS_17cancellation_typeES0_, symObjAddr: 0x4BB40, symBinAddr: 0x10004E730, symSize: 0x20 }
  - { offsetInCU: 0x952F1, offset: 0x952F1, size: 0x8, addend: 0x0, symName: __ZN4asio14async_initiateIZN4crow6ServerINS1_4CrowIJNS1_11CORSHandlerEEEENS1_13SocketAdaptorEJS4_EE3runEvEUlRKNSt3__110error_codeEE_JFvS9_EENS_20basic_waitable_timerINS8_6chrono12steady_clockENS_11wait_traitsISG_EENS_15any_io_executorEE19initiate_async_waitEJEEENS_10constraintIXsr6detail31async_result_has_initiate_memfnIT_DpT0_EE5valueEDTclsr12async_resultINS8_5decayISN_E4typeESP_EE8initiatecl7declvalIOT1_EEcl7declvalIOSN_EEspcl7declvalIOT2_EEEEE4typeESU_RSN_DpSX_, symObjAddr: 0x527D0, symBinAddr: 0x1000553C0, symSize: 0x30 }
  - { offsetInCU: 0x95356, offset: 0x95356, size: 0x8, addend: 0x0, symName: __ZN4asio32get_associated_cancellation_slotIZN4crow6ServerINS1_4CrowIJNS1_11CORSHandlerEEEENS1_13SocketAdaptorEJS4_EE3runEvEUlRKNSt3__110error_codeEE_EENS_28associated_cancellation_slotIT_NS_17cancellation_slotEE4typeERKSE_, symObjAddr: 0x52A40, symBinAddr: 0x100055630, symSize: 0x30 }
  - { offsetInCU: 0x9538F, offset: 0x9538F, size: 0x8, addend: 0x0, symName: __ZN4asio24get_associated_allocatorIZN4crow6ServerINS1_4CrowIJNS1_11CORSHandlerEEEENS1_13SocketAdaptorEJS4_EE3runEvEUlRKNSt3__110error_codeEE_EENS_20associated_allocatorIT_NS8_9allocatorIvEEE4typeERKSE_, symObjAddr: 0x52B70, symBinAddr: 0x100055760, symSize: 0x20 }
  - { offsetInCU: 0x953C8, offset: 0x953C8, size: 0x8, addend: 0x0, symName: __ZN4asio19asio_handler_invokeINS_6detail7binder1IZN4crow6ServerINS3_4CrowIJNS3_11CORSHandlerEEEENS3_13SocketAdaptorEJS6_EE3runEvEUlRKNSt3__110error_codeEE_SB_EEEEvRT_z, symObjAddr: 0x531A0, symBinAddr: 0x100055D90, symSize: 0x20 }
  - { offsetInCU: 0x95402, offset: 0x95402, size: 0x8, addend: 0x0, symName: __ZN4asio14async_initiateIZN4crow6ServerINS1_4CrowIJNS1_11CORSHandlerEEEENS1_13SocketAdaptorEJS4_EE7on_tickEvEUlRKNSt3__110error_codeEE_JFvS9_EENS_20basic_waitable_timerINS8_6chrono12steady_clockENS_11wait_traitsISG_EENS_15any_io_executorEE19initiate_async_waitEJEEENS_10constraintIXsr6detail31async_result_has_initiate_memfnIT_DpT0_EE5valueEDTclsr12async_resultINS8_5decayISN_E4typeESP_EE8initiatecl7declvalIOT1_EEcl7declvalIOSN_EEspcl7declvalIOT2_EEEEE4typeESU_RSN_DpSX_, symObjAddr: 0x53310, symBinAddr: 0x100055F00, symSize: 0x30 }
  - { offsetInCU: 0x95467, offset: 0x95467, size: 0x8, addend: 0x0, symName: __ZN4asio32get_associated_cancellation_slotIZN4crow6ServerINS1_4CrowIJNS1_11CORSHandlerEEEENS1_13SocketAdaptorEJS4_EE7on_tickEvEUlRKNSt3__110error_codeEE_EENS_28associated_cancellation_slotIT_NS_17cancellation_slotEE4typeERKSE_, symObjAddr: 0x53580, symBinAddr: 0x100056170, symSize: 0x30 }
  - { offsetInCU: 0x954A0, offset: 0x954A0, size: 0x8, addend: 0x0, symName: __ZN4asio24get_associated_allocatorIZN4crow6ServerINS1_4CrowIJNS1_11CORSHandlerEEEENS1_13SocketAdaptorEJS4_EE7on_tickEvEUlRKNSt3__110error_codeEE_EENS_20associated_allocatorIT_NS8_9allocatorIvEEE4typeERKSE_, symObjAddr: 0x536B0, symBinAddr: 0x1000562A0, symSize: 0x20 }
  - { offsetInCU: 0x954D9, offset: 0x954D9, size: 0x8, addend: 0x0, symName: __ZN4asio19asio_handler_invokeINS_6detail7binder1IZN4crow6ServerINS3_4CrowIJNS3_11CORSHandlerEEEENS3_13SocketAdaptorEJS6_EE7on_tickEvEUlRKNSt3__110error_codeEE_SB_EEEEvRT_z, symObjAddr: 0x53CE0, symBinAddr: 0x1000568D0, symSize: 0x20 }
  - { offsetInCU: 0x95513, offset: 0x95513, size: 0x8, addend: 0x0, symName: __ZN4asio14async_initiateIZN4crow6ServerINS1_4CrowIJNS1_11CORSHandlerEEEENS1_13SocketAdaptorEJS4_EE3runEvEUlRKNSt3__110error_codeEiE_JFvS9_iEENS_16basic_signal_setINS_15any_io_executorEE19initiate_async_waitEJEEENS_10constraintIXsr6detail31async_result_has_initiate_memfnIT_DpT0_EE5valueEDTclsr12async_resultINS8_5decayISJ_E4typeESL_EE8initiatecl7declvalIOT1_EEcl7declvalIOSJ_EEspcl7declvalIOT2_EEEEE4typeESQ_RSJ_DpST_, symObjAddr: 0x55020, symBinAddr: 0x100057C10, symSize: 0x30 }
  - { offsetInCU: 0x95578, offset: 0x95578, size: 0x8, addend: 0x0, symName: __ZN4asio32get_associated_cancellation_slotIZN4crow6ServerINS1_4CrowIJNS1_11CORSHandlerEEEENS1_13SocketAdaptorEJS4_EE3runEvEUlRKNSt3__110error_codeEiE_EENS_28associated_cancellation_slotIT_NS_17cancellation_slotEE4typeERKSE_, symObjAddr: 0x552C0, symBinAddr: 0x100057EB0, symSize: 0x30 }
  - { offsetInCU: 0x955B1, offset: 0x955B1, size: 0x8, addend: 0x0, symName: __ZN4asio24get_associated_allocatorIZN4crow6ServerINS1_4CrowIJNS1_11CORSHandlerEEEENS1_13SocketAdaptorEJS4_EE3runEvEUlRKNSt3__110error_codeEiE_EENS_20associated_allocatorIT_NS8_9allocatorIvEEE4typeERKSE_, symObjAddr: 0x555A0, symBinAddr: 0x100058190, symSize: 0x20 }
  - { offsetInCU: 0x955EA, offset: 0x955EA, size: 0x8, addend: 0x0, symName: __ZN4asio19asio_handler_invokeINS_6detail7binder2IZN4crow6ServerINS3_4CrowIJNS3_11CORSHandlerEEEENS3_13SocketAdaptorEJS6_EE3runEvEUlRKNSt3__110error_codeEiE_SB_iEEEEvRT_z, symObjAddr: 0x55C60, symBinAddr: 0x100058850, symSize: 0x20 }
  - { offsetInCU: 0x95624, offset: 0x95624, size: 0x8, addend: 0x0, symName: __ZN4asio14async_initiateIZN4crow6ServerINS1_4CrowIJNS1_11CORSHandlerEEEENS1_13SocketAdaptorEJS4_EE9do_acceptEvEUlNSt3__110error_codeEE_JFvS9_EENS_21basic_socket_acceptorINS_2ip3tcpENS_15any_io_executorEE21initiate_async_acceptEJPNS_12basic_socketISE_SF_EEPNSD_14basic_endpointISE_EEEEENS_10constraintIXsr6detail31async_result_has_initiate_memfnIT_DpT0_EE5valueEDTclsr12async_resultINS8_5decayISP_E4typeESR_EE8initiatecl7declvalIOT1_EEcl7declvalIOSP_EEspcl7declvalIOT2_EEEEE4typeESW_RSP_DpSZ_, symObjAddr: 0x5B400, symBinAddr: 0x10005DFF0, symSize: 0x40 }
  - { offsetInCU: 0x956B6, offset: 0x956B6, size: 0x8, addend: 0x0, symName: __ZN4asio28asio_handler_is_continuationEz, symObjAddr: 0x5BAB0, symBinAddr: 0x10005E6A0, symSize: 0x10 }
  - { offsetInCU: 0x956D7, offset: 0x956D7, size: 0x8, addend: 0x0, symName: __ZN4asio32get_associated_cancellation_slotIZN4crow6ServerINS1_4CrowIJNS1_11CORSHandlerEEEENS1_13SocketAdaptorEJS4_EE9do_acceptEvEUlNSt3__110error_codeEE_EENS_28associated_cancellation_slotIT_NS_17cancellation_slotEE4typeERKSC_, symObjAddr: 0x5B820, symBinAddr: 0x10005E410, symSize: 0x30 }
  - { offsetInCU: 0x95710, offset: 0x95710, size: 0x8, addend: 0x0, symName: __ZN4asio24get_associated_allocatorIZN4crow6ServerINS1_4CrowIJNS1_11CORSHandlerEEEENS1_13SocketAdaptorEJS4_EE9do_acceptEvEUlNSt3__110error_codeEE_EENS_20associated_allocatorIT_NS8_9allocatorIvEEE4typeERKSC_, symObjAddr: 0x5BB20, symBinAddr: 0x10005E710, symSize: 0x20 }
  - { offsetInCU: 0x95749, offset: 0x95749, size: 0x8, addend: 0x0, symName: __ZN4asio19asio_handler_invokeINS_6detail7binder1IZN4crow6ServerINS3_4CrowIJNS3_11CORSHandlerEEEENS3_13SocketAdaptorEJS6_EE9do_acceptEvEUlNSt3__110error_codeEE_SB_EEEEvRT_z, symObjAddr: 0x5C6D0, symBinAddr: 0x10005F2C0, symSize: 0x20 }
  - { offsetInCU: 0x95783, offset: 0x95783, size: 0x8, addend: 0x0, symName: __ZN4asio14async_initiateIZZN4crow6ServerINS1_4CrowIJNS1_11CORSHandlerEEEENS1_13SocketAdaptorEJS4_EE9do_acceptEvENKUlNSt3__110error_codeEE_clES9_EUlvE_JFvvEENS_10io_context13initiate_postEJPSD_EEENS_10constraintIXsr6detail31async_result_has_initiate_memfnIT_DpT0_EE5valueEDTclsr12async_resultINS8_5decayISH_E4typeESJ_EE8initiatecl7declvalIOT1_EEcl7declvalIOSH_EEspcl7declvalIOT2_EEEEE4typeESO_RSH_DpSR_, symObjAddr: 0x5C9C0, symBinAddr: 0x10005F5B0, symSize: 0x30 }
  - { offsetInCU: 0x957FF, offset: 0x957FF, size: 0x8, addend: 0x0, symName: __ZN4asio24get_associated_allocatorIZZN4crow6ServerINS1_4CrowIJNS1_11CORSHandlerEEEENS1_13SocketAdaptorEJS4_EE9do_acceptEvENKUlNSt3__110error_codeEE_clES9_EUlvE_EENS_20associated_allocatorIT_NS8_9allocatorIvEEE4typeERKSD_, symObjAddr: 0x5CC80, symBinAddr: 0x10005F870, symSize: 0x20 }
  - { offsetInCU: 0x95838, offset: 0x95838, size: 0x8, addend: 0x0, symName: __ZN4asio19asio_handler_invokeIZZN4crow6ServerINS1_4CrowIJNS1_11CORSHandlerEEEENS1_13SocketAdaptorEJS4_EE9do_acceptEvENKUlNSt3__110error_codeEE_clES9_EUlvE_EEvRT_z, symObjAddr: 0x5D1B0, symBinAddr: 0x10005FDA0, symSize: 0x20 }
  - { offsetInCU: 0x95871, offset: 0x95871, size: 0x8, addend: 0x0, symName: __ZN4asio6bufferIcLm4096EEENS_17mutable_buffers_1ERNSt3__15arrayIT_XT0_EEE, symObjAddr: 0x614E0, symBinAddr: 0x1000640D0, symSize: 0x40 }
  - { offsetInCU: 0x958B4, offset: 0x958B4, size: 0x8, addend: 0x0, symName: __ZN4asio14async_initiateIZN4crow10ConnectionINS1_13SocketAdaptorENS1_4CrowIJNS1_11CORSHandlerEEEEJS5_EE7do_readEvEUlRKNSt3__110error_codeEmE_JFvS9_mEENS_19basic_stream_socketINS_2ip3tcpENS_15any_io_executorEE22initiate_async_receiveEJRKNS_17mutable_buffers_1EiEEENS_10constraintIXsr6detail31async_result_has_initiate_memfnIT_DpT0_EE5valueEDTclsr12async_resultINS8_5decayISO_E4typeESQ_EE8initiatecl7declvalIOT1_EEcl7declvalIOSO_EEspcl7declvalIOT2_EEEEE4typeESV_RSO_DpSY_, symObjAddr: 0x61540, symBinAddr: 0x100064130, symSize: 0x40 }
  - { offsetInCU: 0x95946, offset: 0x95946, size: 0x8, addend: 0x0, symName: __ZN4asio32get_associated_cancellation_slotIZN4crow10ConnectionINS1_13SocketAdaptorENS1_4CrowIJNS1_11CORSHandlerEEEEJS5_EE7do_readEvEUlRKNSt3__110error_codeEmE_EENS_28associated_cancellation_slotIT_NS_17cancellation_slotEE4typeERKSE_, symObjAddr: 0x61970, symBinAddr: 0x100064560, symSize: 0x30 }
  - { offsetInCU: 0x959F6, offset: 0x959F6, size: 0x8, addend: 0x0, symName: __ZN4asio24get_associated_allocatorIZN4crow10ConnectionINS1_13SocketAdaptorENS1_4CrowIJNS1_11CORSHandlerEEEEJS5_EE7do_readEvEUlRKNSt3__110error_codeEmE_EENS_20associated_allocatorIT_NS8_9allocatorIvEEE4typeERKSE_, symObjAddr: 0x61BB0, symBinAddr: 0x1000647A0, symSize: 0x20 }
  - { offsetInCU: 0x95A2F, offset: 0x95A2F, size: 0x8, addend: 0x0, symName: __ZN4asio19asio_handler_invokeINS_6detail7binder2IZN4crow10ConnectionINS3_13SocketAdaptorENS3_4CrowIJNS3_11CORSHandlerEEEEJS7_EE7do_readEvEUlRKNSt3__110error_codeEmE_SB_mEEEEvRT_z, symObjAddr: 0x62380, symBinAddr: 0x100064F70, symSize: 0x20 }
  - { offsetInCU: 0x95A69, offset: 0x95A69, size: 0x8, addend: 0x0, symName: __ZN4asio5writeINS_19basic_stream_socketINS_2ip3tcpENS_15any_io_executorEEENSt3__16vectorINS_12const_bufferENS6_9allocatorIS8_EEEEEEmRT_RKT0_NS_10constraintIXsr24is_const_buffer_sequenceISE_EE5valueEiE4typeE, symObjAddr: 0x82C10, symBinAddr: 0x100085800, symSize: 0x70 }
  - { offsetInCU: 0x95ADF, offset: 0x95ADF, size: 0x8, addend: 0x0, symName: __ZN4asio6bufferIcLm16384EEENS_17mutable_buffers_1ERAT0__T_m, symObjAddr: 0x82E30, symBinAddr: 0x100085A20, symSize: 0x60 }
  - { offsetInCU: 0x95B32, offset: 0x95B32, size: 0x8, addend: 0x0, symName: __ZN4asio5writeINS_19basic_stream_socketINS_2ip3tcpENS_15any_io_executorEEENSt3__16vectorINS_12const_bufferENS6_9allocatorIS8_EEEENS_6detail14transfer_all_tEEEmRT_RKT0_T1_RNS6_10error_codeENS_10constraintIXsr24is_const_buffer_sequenceISG_EE5valueEiE4typeE, symObjAddr: 0x83020, symBinAddr: 0x100085C10, symSize: 0x60 }
  - { offsetInCU: 0x95BB2, offset: 0x95BB2, size: 0x8, addend: 0x0, symName: __ZN4asio12transfer_allEv, symObjAddr: 0x83080, symBinAddr: 0x100085C70, symSize: 0x10 }
  - { offsetInCU: 0x95BCF, offset: 0x95BCF, size: 0x8, addend: 0x0, symName: __ZN4asio21buffer_sequence_beginINSt3__16vectorINS_12const_bufferENS1_9allocatorIS3_EEEEEEDTcldtfp_5beginEERKT_NS_10constraintIXaantsr14is_convertibleIPS9_PKNS_14mutable_bufferEEE5valuentsr14is_convertibleISC_PKS3_EE5valueEiE4typeE, symObjAddr: 0x83240, symBinAddr: 0x100085E30, symSize: 0x30 }
  - { offsetInCU: 0x95C11, offset: 0x95C11, size: 0x8, addend: 0x0, symName: __ZN4asio11buffer_sizeINSt3__16vectorINS_12const_bufferENS1_9allocatorIS3_EEEEEEmRKT_, symObjAddr: 0x83770, symBinAddr: 0x100086360, symSize: 0x40 }
  - { offsetInCU: 0x95C48, offset: 0x95C48, size: 0x8, addend: 0x0, symName: __ZN4asio19buffer_sequence_endINSt3__16vectorINS_12const_bufferENS1_9allocatorIS3_EEEEEEDTcldtfp_3endEERKT_NS_10constraintIXaantsr14is_convertibleIPS9_PKNS_14mutable_bufferEEE5valuentsr14is_convertibleISC_PKS3_EE5valueEiE4typeE, symObjAddr: 0x84090, symBinAddr: 0x100086C80, symSize: 0x30 }
  - { offsetInCU: 0x95C8A, offset: 0x95C8A, size: 0x8, addend: 0x0, symName: __ZN4asio21buffer_sequence_beginINSt3__16vectorINS_12const_bufferENS1_9allocatorIS3_EEEEEEDTcldtfp_5beginEERT_NS_10constraintIXaantsr14is_convertibleIPKS8_PKNS_14mutable_bufferEEE5valuentsr14is_convertibleISC_PKS3_EE5valueEiE4typeE, symObjAddr: 0x84260, symBinAddr: 0x100086E50, symSize: 0x30 }
  - { offsetInCU: 0x95CCC, offset: 0x95CCC, size: 0x8, addend: 0x0, symName: __ZN4asio19buffer_sequence_endINSt3__16vectorINS_12const_bufferENS1_9allocatorIS3_EEEEEEDTcldtfp_3endEERT_NS_10constraintIXaantsr14is_convertibleIPKS8_PKNS_14mutable_bufferEEE5valuentsr14is_convertibleISC_PKS3_EE5valueEiE4typeE, symObjAddr: 0x842C0, symBinAddr: 0x100086EB0, symSize: 0x30 }
  - { offsetInCU: 0x95D0E, offset: 0x95D0E, size: 0x8, addend: 0x0, symName: __ZN4asioplERKNS_12const_bufferEm, symObjAddr: 0x84340, symBinAddr: 0x100086F30, symSize: 0xA0 }
  - { offsetInCU: 0x95D78, offset: 0x95D78, size: 0x8, addend: 0x0, symName: __ZN4asio21buffer_sequence_beginINS_6detail16prepared_buffersINS_12const_bufferELm64EEEEEDTcldtfp_5beginEERKT_NS_10constraintIXaantsr14is_convertibleIPS7_PKNS_14mutable_bufferEEE5valuentsr14is_convertibleISA_PKS3_EE5valueEiE4typeE, symObjAddr: 0x849B0, symBinAddr: 0x1000875A0, symSize: 0x40 }
  - { offsetInCU: 0x95DBA, offset: 0x95DBA, size: 0x8, addend: 0x0, symName: __ZN4asio19buffer_sequence_endINS_6detail16prepared_buffersINS_12const_bufferELm64EEEEEDTcldtfp_3endEERKT_NS_10constraintIXaantsr14is_convertibleIPS7_PKNS_14mutable_bufferEEE5valuentsr14is_convertibleISA_PKS3_EE5valueEiE4typeE, symObjAddr: 0x849F0, symBinAddr: 0x1000875E0, symSize: 0x40 }
  - { offsetInCU: 0x95DFC, offset: 0x95DFC, size: 0x8, addend: 0x0, symName: __ZN4asio6bufferERKNS_12const_bufferEm, symObjAddr: 0x84C70, symBinAddr: 0x100087860, symSize: 0x70 }
  - { offsetInCU: 0x95EB4, offset: 0x95EB4, size: 0x8, addend: 0x0, symName: __ZN4asio5writeINS_19basic_stream_socketINS_2ip3tcpENS_15any_io_executorEEENSt3__16vectorINS_12const_bufferENS6_9allocatorIS8_EEEEZN4crow10ConnectionINSC_13SocketAdaptorENSC_4CrowIJNSC_11CORSHandlerEEEEJSG_EE13do_write_syncERSB_EUlNS6_10error_codeEmE_EEmRT_RKT0_T1_NS_10constraintIXsr24is_const_buffer_sequenceISO_EE5valueEiE4typeE, symObjAddr: 0x851A0, symBinAddr: 0x100087D90, symSize: 0x60 }
  - { offsetInCU: 0x95F43, offset: 0x95F43, size: 0x8, addend: 0x0, symName: __ZN4asio5writeINS_19basic_stream_socketINS_2ip3tcpENS_15any_io_executorEEENSt3__16vectorINS_12const_bufferENS6_9allocatorIS8_EEEEZN4crow10ConnectionINSC_13SocketAdaptorENSC_4CrowIJNSC_11CORSHandlerEEEEJSG_EE13do_write_syncERSB_EUlNS6_10error_codeEmE_EEmRT_RKT0_T1_RSK_NS_10constraintIXsr24is_const_buffer_sequenceISO_EE5valueEiE4typeE, symObjAddr: 0x85200, symBinAddr: 0x100087DF0, symSize: 0x70 }
  - { offsetInCU: 0x95FC2, offset: 0x95FC2, size: 0x8, addend: 0x0, symName: __ZN4asio6bufferIcNSt3__111char_traitsIcEENS1_9allocatorIcEEEENS_17mutable_buffers_1ERNS1_12basic_stringIT_T0_T1_EE, symObjAddr: 0x85910, symBinAddr: 0x100088500, symSize: 0x70 }
  - { offsetInCU: 0x9600B, offset: 0x9600B, size: 0x8, addend: 0x0, symName: __ZN4asio11async_writeINS_19basic_stream_socketINS_2ip3tcpENS_15any_io_executorEEENSt3__16vectorINS_12const_bufferENS6_9allocatorIS8_EEEEZN4crow10ConnectionINSC_13SocketAdaptorENSC_4CrowIJNSC_11CORSHandlerEEEEJSG_EE8do_writeEvEUlRKNS6_10error_codeEmE_EEDaRT_RKT0_OT1_NS_10constraintIXsr24is_const_buffer_sequenceISQ_EE5valueEiE4typeE, symObjAddr: 0x85A80, symBinAddr: 0x100088670, symSize: 0x60 }
  - { offsetInCU: 0x9607E, offset: 0x9607E, size: 0x8, addend: 0x0, symName: __ZN4asio14async_initiateIZN4crow10ConnectionINS1_13SocketAdaptorENS1_4CrowIJNS1_11CORSHandlerEEEEJS5_EE8do_writeEvEUlRKNSt3__110error_codeEmE_JFvS9_mEENS_6detail20initiate_async_writeINS_19basic_stream_socketINS_2ip3tcpENS_15any_io_executorEEEEEJRKNS8_6vectorINS_12const_bufferENS8_9allocatorISN_EEEENSE_14transfer_all_tEEEENS_10constraintIXsr6detail31async_result_has_initiate_memfnIT_DpT0_EE5valueEDTclsr12async_resultINS8_5decayISV_E4typeESX_EE8initiatecl7declvalIOT1_EEcl7declvalIOSV_EEspcl7declvalIOT2_EEEEE4typeES12_RSV_DpS15_, symObjAddr: 0x85B00, symBinAddr: 0x1000886F0, symSize: 0x40 }
  - { offsetInCU: 0x96142, offset: 0x96142, size: 0x8, addend: 0x0, symName: __ZN4asio14async_initiateINS_6detail8write_opINS_19basic_stream_socketINS_2ip3tcpENS_15any_io_executorEEENSt3__16vectorINS_12const_bufferENS8_9allocatorISA_EEEENS8_11__wrap_iterIPKSA_EENS1_14transfer_all_tEZN4crow10ConnectionINSJ_13SocketAdaptorENSJ_4CrowIJNSJ_11CORSHandlerEEEEJSN_EE8do_writeEvEUlRKNS8_10error_codeEmE_EEJFvSQ_mEENS7_19initiate_async_sendEJRKNS1_16prepared_buffersISA_Lm64EEEiEEENS_10constraintIXsr6detail31async_result_has_initiate_memfnIT_DpT0_EE5valueEDTclsr12async_resultINS8_5decayIS12_E4typeES14_EE8initiatecl7declvalIOT1_EEcl7declvalIOS12_EEspcl7declvalIOT2_EEEEE4typeES19_RS12_DpS1C_, symObjAddr: 0x86310, symBinAddr: 0x100088F00, symSize: 0x40 }
  - { offsetInCU: 0x961D4, offset: 0x961D4, size: 0x8, addend: 0x0, symName: __ZN4asio32get_associated_cancellation_slotINS_6detail8write_opINS_19basic_stream_socketINS_2ip3tcpENS_15any_io_executorEEENSt3__16vectorINS_12const_bufferENS8_9allocatorISA_EEEENS8_11__wrap_iterIPKSA_EENS1_14transfer_all_tEZN4crow10ConnectionINSJ_13SocketAdaptorENSJ_4CrowIJNSJ_11CORSHandlerEEEEJSN_EE8do_writeEvEUlRKNS8_10error_codeEmE_EEEENS_28associated_cancellation_slotIT_NS_17cancellation_slotEE4typeERKSW_, symObjAddr: 0x86700, symBinAddr: 0x1000892F0, symSize: 0x30 }
  - { offsetInCU: 0x9628E, offset: 0x9628E, size: 0x8, addend: 0x0, symName: __ZN4asio24get_associated_allocatorINS_6detail8write_opINS_19basic_stream_socketINS_2ip3tcpENS_15any_io_executorEEENSt3__16vectorINS_12const_bufferENS8_9allocatorISA_EEEENS8_11__wrap_iterIPKSA_EENS1_14transfer_all_tEZN4crow10ConnectionINSJ_13SocketAdaptorENSJ_4CrowIJNSJ_11CORSHandlerEEEEJSN_EE8do_writeEvEUlRKNS8_10error_codeEmE_EEEENS_20associated_allocatorIT_NSB_IvEEE4typeERKSW_, symObjAddr: 0x86A00, symBinAddr: 0x1000895F0, symSize: 0x20 }
  - { offsetInCU: 0x96348, offset: 0x96348, size: 0x8, addend: 0x0, symName: __ZN4asio19asio_handler_invokeINS_6detail7binder2INS1_8write_opINS_19basic_stream_socketINS_2ip3tcpENS_15any_io_executorEEENSt3__16vectorINS_12const_bufferENS9_9allocatorISB_EEEENS9_11__wrap_iterIPKSB_EENS1_14transfer_all_tEZN4crow10ConnectionINSK_13SocketAdaptorENSK_4CrowIJNSK_11CORSHandlerEEEEJSO_EE8do_writeEvEUlRKNS9_10error_codeEmE_EESR_mEEEEvRT_z, symObjAddr: 0x87340, symBinAddr: 0x100089F30, symSize: 0x20 }
  - { offsetInCU: 0x97661, offset: 0x97661, size: 0x8, addend: 0x0, symName: __ZN4pqxx9type_nameIbEE, symObjAddr: 0x9F520, symBinAddr: 0x100124090, symSize: 0x0 }
  - { offsetInCU: 0x97685, offset: 0x97685, size: 0x8, addend: 0x0, symName: __ZN4pqxx9type_nameINSt3__117basic_string_viewIcNS1_11char_traitsIcEEEEEE, symObjAddr: 0x9F540, symBinAddr: 0x1001240B0, symSize: 0x0 }
  - { offsetInCU: 0x976A9, offset: 0x976A9, size: 0x8, addend: 0x0, symName: __ZN4pqxx9type_nameINS_5zviewEEE, symObjAddr: 0x9F560, symBinAddr: 0x1001240D0, symSize: 0x0 }
  - { offsetInCU: 0x9776C, offset: 0x9776C, size: 0x8, addend: 0x0, symName: __ZN4pqxx9type_nameINSt3__112basic_stringIcNS1_11char_traitsIcEENS1_9allocatorIcEEEEEE, symObjAddr: 0x9F580, symBinAddr: 0x1001240F0, symSize: 0x0 }
  - { offsetInCU: 0x9A865, offset: 0x9A865, size: 0x8, addend: 0x0, symName: __ZN4crow6logger17get_log_level_refEv, symObjAddr: 0x133D0, symBinAddr: 0x100015FC0, symSize: 0x10 }
  - { offsetInCU: 0x9A885, offset: 0x9A885, size: 0x8, addend: 0x0, symName: __ZZN4crow6logger17get_log_level_refEvE13current_level, symObjAddr: 0x9F7D0, symBinAddr: 0x100124340, symSize: 0x0 }
  - { offsetInCU: 0x9A8A0, offset: 0x9A8A0, size: 0x8, addend: 0x0, symName: __ZN4crow6logger15get_handler_refEv, symObjAddr: 0x1E540, symBinAddr: 0x100021130, symSize: 0x60 }
  - { offsetInCU: 0x9A8C0, offset: 0x9A8C0, size: 0x8, addend: 0x0, symName: __ZZN4crow6logger15get_handler_refEvE15default_handler, symObjAddr: 0x9F818, symBinAddr: 0x100124388, symSize: 0x0 }
  - { offsetInCU: 0x9A8D6, offset: 0x9A8D6, size: 0x8, addend: 0x0, symName: __ZZN4crow6logger15get_handler_refEvE15current_handler, symObjAddr: 0x9F828, symBinAddr: 0x100124398, symSize: 0x0 }
  - { offsetInCU: 0x9B418, offset: 0x9B418, size: 0x8, addend: 0x0, symName: __ZN4crow4Trie3addERKNSt3__112basic_stringIcNS1_11char_traitsIcEENS1_9allocatorIcEEEEtjt, symObjAddr: 0x21EA0, symBinAddr: 0x100024A90, symSize: 0x680 }
  - { offsetInCU: 0x9B43C, offset: 0x9B43C, size: 0x8, addend: 0x0, symName: __ZZN4crow4Trie3addERKNSt3__112basic_stringIcNS1_11char_traitsIcEENS1_9allocatorIcEEEEtjtE11paramTraits, symObjAddr: 0x9F830, symBinAddr: 0x1001243A0, symSize: 0x0 }
  - { offsetInCU: 0x9B668, offset: 0x9B668, size: 0x8, addend: 0x0, symName: __ZN4asio6detail14kqueue_reactor3runElRNS0_8op_queueINS0_19scheduler_operationEEE, symObjAddr: 0x2E170, symBinAddr: 0x100030D60, symSize: 0x5B0 }
  - { offsetInCU: 0x9B68F, offset: 0x9B68F, size: 0x8, addend: 0x0, symName: __ZZN4asio6detail14kqueue_reactor3runElRNS0_8op_queueINS0_19scheduler_operationEEEE6filter, symObjAddr: 0xA0398, symBinAddr: 0x10010ED48, symSize: 0x0 }
  - { offsetInCU: 0x9B90E, offset: 0x9B90E, size: 0x8, addend: 0x0, symName: __ZN4asio9execution6detail17any_executor_base16target_fns_tableINS_10io_context19basic_executor_typeINSt3__19allocatorIvEELm0EEEEEPKNS2_10target_fnsEbPNS6_9enable_ifIXntsr7is_sameIT_vEE5valueEvE4typeE, symObjAddr: 0x33860, symBinAddr: 0x100036450, symSize: 0x30 }
  - { offsetInCU: 0x9B92E, offset: 0x9B92E, size: 0x8, addend: 0x0, symName: __ZZN4asio9execution6detail17any_executor_base16target_fns_tableINS_10io_context19basic_executor_typeINSt3__19allocatorIvEELm0EEEEEPKNS2_10target_fnsEbPNS6_9enable_ifIXntsr7is_sameIT_vEE5valueEvE4typeEE16fns_with_execute, symObjAddr: 0xA2068, symBinAddr: 0x1001217C8, symSize: 0x0 }
  - { offsetInCU: 0x9B944, offset: 0x9B944, size: 0x8, addend: 0x0, symName: __ZZN4asio9execution6detail17any_executor_base16target_fns_tableINS_10io_context19basic_executor_typeINSt3__19allocatorIvEELm0EEEEEPKNS2_10target_fnsEbPNS6_9enable_ifIXntsr7is_sameIT_vEE5valueEvE4typeEE25fns_with_blocking_execute, symObjAddr: 0xA2088, symBinAddr: 0x1001217E8, symSize: 0x0 }
  - { offsetInCU: 0x9B97D, offset: 0x9B97D, size: 0x8, addend: 0x0, symName: __ZN25asio_execution_execute_fn15static_instanceINS_4implEE8instanceE, symObjAddr: 0xA062F, symBinAddr: 0x10010EFDF, symSize: 0x0 }
  - { offsetInCU: 0x9BBF0, offset: 0x9BBF0, size: 0x8, addend: 0x0, symName: __ZN13asio_query_fn15static_instanceINS_4implEE8instanceE, symObjAddr: 0xA064D, symBinAddr: 0x10010EFFD, symSize: 0x0 }
  - { offsetInCU: 0x9C103, offset: 0x9C103, size: 0x8, addend: 0x0, symName: __ZN4asio9execution6detail17any_executor_base16object_fns_tableINS_10io_context19basic_executor_typeINSt3__19allocatorIvEELm0EEEEEPKNS2_10object_fnsEPNS6_9enable_ifIXaantsr7is_sameIT_vEE5valuentsr7is_sameISE_NS1_22shared_target_executorEEE5valueEvE4typeE, symObjAddr: 0x35370, symBinAddr: 0x100037F60, symSize: 0x20 }
  - { offsetInCU: 0x9C123, offset: 0x9C123, size: 0x8, addend: 0x0, symName: __ZZN4asio9execution6detail17any_executor_base16object_fns_tableINS_10io_context19basic_executor_typeINSt3__19allocatorIvEELm0EEEEEPKNS2_10object_fnsEPNS6_9enable_ifIXaantsr7is_sameIT_vEE5valuentsr7is_sameISE_NS1_22shared_target_executorEEE5valueEvE4typeEE3fns, symObjAddr: 0xA2140, symBinAddr: 0x1001218A0, symSize: 0x0 }
  - { offsetInCU: 0x9C293, offset: 0x9C293, size: 0x8, addend: 0x0, symName: __ZN4asio9execution12any_executorIJNS0_12context_as_tIRNS_17execution_contextEEENS0_6detail8blocking7never_tILi0EEENS0_11prefer_onlyINS7_10possibly_tILi0EEEEENSA_INS6_16outstanding_work9tracked_tILi0EEEEENSA_INSE_11untracked_tILi0EEEEENSA_INS6_12relationship6fork_tILi0EEEEENSA_INSL_14continuation_tILi0EEEEEEE14prop_fns_tableINS_10io_context19basic_executor_typeINSt3__19allocatorIvEELm0EEEEEPKNS6_17any_executor_base8prop_fnsISS_EEv, symObjAddr: 0x33850, symBinAddr: 0x100036440, symSize: 0x10 }
  - { offsetInCU: 0x9C2B3, offset: 0x9C2B3, size: 0x8, addend: 0x0, symName: __ZZN4asio9execution12any_executorIJNS0_12context_as_tIRNS_17execution_contextEEENS0_6detail8blocking7never_tILi0EEENS0_11prefer_onlyINS7_10possibly_tILi0EEEEENSA_INS6_16outstanding_work9tracked_tILi0EEEEENSA_INSE_11untracked_tILi0EEEEENSA_INS6_12relationship6fork_tILi0EEEEENSA_INSL_14continuation_tILi0EEEEEEE14prop_fns_tableINS_10io_context19basic_executor_typeINSt3__19allocatorIvEELm0EEEEEPKNS6_17any_executor_base8prop_fnsISS_EEvE3fns, symObjAddr: 0xA2160, symBinAddr: 0x1001218C0, symSize: 0x0 }
  - { offsetInCU: 0x9C2DA, offset: 0x9C2DA, size: 0x8, addend: 0x0, symName: __ZN4asio9execution12any_executorIJNS0_12context_as_tIRNS_17execution_contextEEENS0_6detail8blocking7never_tILi0EEENS0_11prefer_onlyINS7_10possibly_tILi0EEEEENSA_INS6_16outstanding_work9tracked_tILi0EEEEENSA_INSE_11untracked_tILi0EEEEENSA_INS6_12relationship6fork_tILi0EEEEENSA_INSL_14continuation_tILi0EEEEEEE14prop_fns_tableIvEEPKNS6_17any_executor_base8prop_fnsISS_EEv, symObjAddr: 0x35BE0, symBinAddr: 0x1000387D0, symSize: 0x10 }
  - { offsetInCU: 0x9C2FA, offset: 0x9C2FA, size: 0x8, addend: 0x0, symName: __ZZN4asio9execution12any_executorIJNS0_12context_as_tIRNS_17execution_contextEEENS0_6detail8blocking7never_tILi0EEENS0_11prefer_onlyINS7_10possibly_tILi0EEEEENSA_INS6_16outstanding_work9tracked_tILi0EEEEENSA_INSE_11untracked_tILi0EEEEENSA_INS6_12relationship6fork_tILi0EEEEENSA_INSL_14continuation_tILi0EEEEEEE14prop_fns_tableIvEEPKNS6_17any_executor_base8prop_fnsISS_EEvE3fns, symObjAddr: 0xA2210, symBinAddr: 0x100121970, symSize: 0x0 }
  - { offsetInCU: 0x9C315, offset: 0x9C315, size: 0x8, addend: 0x0, symName: __ZN15asio_require_fn15static_instanceINS_4implEE8instanceE, symObjAddr: 0xA0671, symBinAddr: 0x10010F021, symSize: 0x0 }
  - { offsetInCU: 0x9C3C3, offset: 0x9C3C3, size: 0x8, addend: 0x0, symName: __ZN14asio_prefer_fn15static_instanceINS_4implEE8instanceE, symObjAddr: 0xA0672, symBinAddr: 0x10010F022, symSize: 0x0 }
  - { offsetInCU: 0x9C9AC, offset: 0x9C9AC, size: 0x8, addend: 0x0, symName: __ZN4asio9execution11prefer_onlyINS0_6detail16outstanding_work9tracked_tILi0EEEE14static_query_vINS_10io_context19basic_executor_typeINSt3__19allocatorIvEELm0EEEKNS2_18outstanding_work_tILi0EEEEE, symObjAddr: 0xA0674, symBinAddr: 0x10010F024, symSize: 0x0 }
  - { offsetInCU: 0x9C9D2, offset: 0x9C9D2, size: 0x8, addend: 0x0, symName: __ZN4asio9execution6detail17any_executor_base16target_fns_tableINS_10io_context19basic_executor_typeINSt3__19allocatorIvEELm4EEEEEPKNS2_10target_fnsEbPNS6_9enable_ifIXntsr7is_sameIT_vEE5valueEvE4typeE, symObjAddr: 0x377C0, symBinAddr: 0x10003A3B0, symSize: 0x30 }
  - { offsetInCU: 0x9C9F2, offset: 0x9C9F2, size: 0x8, addend: 0x0, symName: __ZZN4asio9execution6detail17any_executor_base16target_fns_tableINS_10io_context19basic_executor_typeINSt3__19allocatorIvEELm4EEEEEPKNS2_10target_fnsEbPNS6_9enable_ifIXntsr7is_sameIT_vEE5valueEvE4typeEE16fns_with_execute, symObjAddr: 0xA22F8, symBinAddr: 0x100121A58, symSize: 0x0 }
  - { offsetInCU: 0x9CA08, offset: 0x9CA08, size: 0x8, addend: 0x0, symName: __ZZN4asio9execution6detail17any_executor_base16target_fns_tableINS_10io_context19basic_executor_typeINSt3__19allocatorIvEELm4EEEEEPKNS2_10target_fnsEbPNS6_9enable_ifIXntsr7is_sameIT_vEE5valueEvE4typeEE25fns_with_blocking_execute, symObjAddr: 0xA2318, symBinAddr: 0x100121A78, symSize: 0x0 }
  - { offsetInCU: 0x9CA36, offset: 0x9CA36, size: 0x8, addend: 0x0, symName: __ZN4asio9execution6detail17any_executor_base16object_fns_tableINS_10io_context19basic_executor_typeINSt3__19allocatorIvEELm4EEEEEPKNS2_10object_fnsEPNS6_9enable_ifIXaantsr7is_sameIT_vEE5valuentsr7is_sameISE_NS1_22shared_target_executorEEE5valueEvE4typeE, symObjAddr: 0x37F00, symBinAddr: 0x10003AAF0, symSize: 0x20 }
  - { offsetInCU: 0x9CA56, offset: 0x9CA56, size: 0x8, addend: 0x0, symName: __ZZN4asio9execution6detail17any_executor_base16object_fns_tableINS_10io_context19basic_executor_typeINSt3__19allocatorIvEELm4EEEEEPKNS2_10object_fnsEPNS6_9enable_ifIXaantsr7is_sameIT_vEE5valuentsr7is_sameISE_NS1_22shared_target_executorEEE5valueEvE4typeEE3fns, symObjAddr: 0xA2370, symBinAddr: 0x100121AD0, symSize: 0x0 }
  - { offsetInCU: 0x9CA75, offset: 0x9CA75, size: 0x8, addend: 0x0, symName: __ZN4asio9execution12any_executorIJNS0_12context_as_tIRNS_17execution_contextEEENS0_6detail8blocking7never_tILi0EEENS0_11prefer_onlyINS7_10possibly_tILi0EEEEENSA_INS6_16outstanding_work9tracked_tILi0EEEEENSA_INSE_11untracked_tILi0EEEEENSA_INS6_12relationship6fork_tILi0EEEEENSA_INSL_14continuation_tILi0EEEEEEE14prop_fns_tableINS_10io_context19basic_executor_typeINSt3__19allocatorIvEELm4EEEEEPKNS6_17any_executor_base8prop_fnsISS_EEv, symObjAddr: 0x37780, symBinAddr: 0x10003A370, symSize: 0x10 }
  - { offsetInCU: 0x9CA95, offset: 0x9CA95, size: 0x8, addend: 0x0, symName: __ZZN4asio9execution12any_executorIJNS0_12context_as_tIRNS_17execution_contextEEENS0_6detail8blocking7never_tILi0EEENS0_11prefer_onlyINS7_10possibly_tILi0EEEEENSA_INS6_16outstanding_work9tracked_tILi0EEEEENSA_INSE_11untracked_tILi0EEEEENSA_INS6_12relationship6fork_tILi0EEEEENSA_INSL_14continuation_tILi0EEEEEEE14prop_fns_tableINS_10io_context19basic_executor_typeINSt3__19allocatorIvEELm4EEEEEPKNS6_17any_executor_base8prop_fnsISS_EEvE3fns, symObjAddr: 0xA2390, symBinAddr: 0x100121AF0, symSize: 0x0 }
  - { offsetInCU: 0x9CAAF, offset: 0x9CAAF, size: 0x8, addend: 0x0, symName: __ZN4asio9execution11prefer_onlyINS0_6detail16outstanding_work9tracked_tILi0EEEE14static_query_vINS_10io_context19basic_executor_typeINSt3__19allocatorIvEELm4EEEKNS2_18outstanding_work_tILi0EEEEE, symObjAddr: 0xA06BC, symBinAddr: 0x10010F06C, symSize: 0x0 }
  - { offsetInCU: 0x9CAD6, offset: 0x9CAD6, size: 0x8, addend: 0x0, symName: __ZN4asio9execution11prefer_onlyINS0_6detail16outstanding_work11untracked_tILi0EEEE14static_query_vINS_10io_context19basic_executor_typeINSt3__19allocatorIvEELm4EEEKNS2_18outstanding_work_tILi0EEEEE, symObjAddr: 0xA06C0, symBinAddr: 0x10010F070, symSize: 0x0 }
  - { offsetInCU: 0x9CB02, offset: 0x9CB02, size: 0x8, addend: 0x0, symName: __ZN4asio9execution11prefer_onlyINS0_6detail16outstanding_work11untracked_tILi0EEEE14static_query_vINS_10io_context19basic_executor_typeINSt3__19allocatorIvEELm0EEEKNS2_18outstanding_work_tILi0EEEEE, symObjAddr: 0xA06CC, symBinAddr: 0x10010F07C, symSize: 0x0 }
  - { offsetInCU: 0x9F69F, offset: 0x9F69F, size: 0x8, addend: 0x0, symName: __ZN4crow10HTTPParserINS_10ConnectionINS_13SocketAdaptorENS_4CrowIJNS_11CORSHandlerEEEEJS4_EEEE4feedEPKci, symObjAddr: 0x626D0, symBinAddr: 0x1000652C0, symSize: 0x90 }
  - { offsetInCU: 0x9F6C3, offset: 0x9F6C3, size: 0x8, addend: 0x0, symName: __ZZN4crow10HTTPParserINS_10ConnectionINS_13SocketAdaptorENS_4CrowIJNS_11CORSHandlerEEEEJS4_EEEE4feedEPKciE9settings_, symObjAddr: 0xA2998, symBinAddr: 0x1001220F8, symSize: 0x0 }
  - { offsetInCU: 0x9F754, offset: 0x9F754, size: 0x8, addend: 0x0, symName: __ZN4crow10ConnectionINS_13SocketAdaptorENS_4CrowIJNS_11CORSHandlerEEEEJS3_EE15prepare_buffersEv, symObjAddr: 0x79EA0, symBinAddr: 0x10007CA90, symSize: 0x1950 }
  - { offsetInCU: 0x9F778, offset: 0x9F778, size: 0x8, addend: 0x0, symName: __ZZN4crow10ConnectionINS_13SocketAdaptorENS_4CrowIJNS_11CORSHandlerEEEEJS3_EE15prepare_buffersEvE11statusCodes, symObjAddr: 0x9F938, symBinAddr: 0x1001244A8, symSize: 0x0 }
  - { offsetInCU: 0x9F78E, offset: 0x9F78E, size: 0x8, addend: 0x0, symName: __ZZN4crow10ConnectionINS_13SocketAdaptorENS_4CrowIJNS_11CORSHandlerEEEEJS3_EE15prepare_buffersEvE9seperator, symObjAddr: 0x9F968, symBinAddr: 0x1001244D8, symSize: 0x0 }
  - { offsetInCU: 0x9F7A4, offset: 0x9F7A4, size: 0x8, addend: 0x0, symName: __ZZN4crow10ConnectionINS_13SocketAdaptorENS_4CrowIJNS_11CORSHandlerEEEEJS3_EE15prepare_buffersEvE18content_length_tag, symObjAddr: 0x9F988, symBinAddr: 0x1001244F8, symSize: 0x0 }
  - { offsetInCU: 0x9F7BA, offset: 0x9F7BA, size: 0x8, addend: 0x0, symName: __ZZN4crow10ConnectionINS_13SocketAdaptorENS_4CrowIJNS_11CORSHandlerEEEEJS3_EE15prepare_buffersEvE10server_tag, symObjAddr: 0x9F9A8, symBinAddr: 0x100124518, symSize: 0x0 }
  - { offsetInCU: 0x9F7D0, offset: 0x9F7D0, size: 0x8, addend: 0x0, symName: __ZZN4crow10ConnectionINS_13SocketAdaptorENS_4CrowIJNS_11CORSHandlerEEEEJS3_EE15prepare_buffersEvE8date_tag, symObjAddr: 0x9F9C8, symBinAddr: 0x100124538, symSize: 0x0 }
  - { offsetInCU: 0x9F7E6, offset: 0x9F7E6, size: 0x8, addend: 0x0, symName: __ZZN4crow10ConnectionINS_13SocketAdaptorENS_4CrowIJNS_11CORSHandlerEEEEJS3_EE15prepare_buffersEvE14keep_alive_tag, symObjAddr: 0x9F9E8, symBinAddr: 0x100124558, symSize: 0x0 }
  - { offsetInCU: 0x9FE40, offset: 0x9FE40, size: 0x8, addend: 0x0, symName: __ZN4asio6detail14kqueue_reactor8start_opEiiRPNS1_16descriptor_stateEPNS0_10reactor_opEbbPFvPNS0_19scheduler_operationEbPKvESA_, symObjAddr: 0x882D0, symBinAddr: 0x10008AEC0, symSize: 0x640 }
  - { offsetInCU: 0x9FE66, offset: 0x9FE66, size: 0x8, addend: 0x0, symName: __ZZN4asio6detail14kqueue_reactor8start_opEiiRPNS1_16descriptor_stateEPNS0_10reactor_opEbbPFvPNS0_19scheduler_operationEbPKvESA_E11num_kevents, symObjAddr: 0xA0F18, symBinAddr: 0x10010F8C8, symSize: 0x0 }
  - { offsetInCU: 0x9FFC1, offset: 0x9FFC1, size: 0x8, addend: 0x0, symName: __ZN4crow10ConnectionINS_13SocketAdaptorENS_4CrowIJNS_11CORSHandlerEEEEJS3_EE13handle_headerEv, symObjAddr: 0x89010, symBinAddr: 0x10008BC00, symSize: 0x200 }
  - { offsetInCU: 0x9FFE5, offset: 0x9FFE5, size: 0x8, addend: 0x0, symName: __ZZN4crow10ConnectionINS_13SocketAdaptorENS_4CrowIJNS_11CORSHandlerEEEEJS3_EE13handle_headerEvE19expect_100_continue, symObjAddr: 0x9FA08, symBinAddr: 0x100124578, symSize: 0x0 }
  - { offsetInCU: 0xA3AF6, offset: 0xA3AF6, size: 0x8, addend: 0x0, symName: __ZNSt3__16vectorINS_10unique_ptrIN4crow8BaseRuleENS_14default_deleteIS3_EEEENS_9allocatorIS6_EEE26__swap_out_circular_bufferERNS_14__split_bufferIS6_RS8_EE, symObjAddr: 0x19AE0, symBinAddr: 0x10001C6D0, symSize: 0x130 }
  - { offsetInCU: 0xA3BA7, offset: 0xA3BA7, size: 0x8, addend: 0x0, symName: __ZN4crow4CrowIJNS_11CORSHandlerEEE8validateEv, symObjAddr: 0x13420, symBinAddr: 0x100016010, symSize: 0x480 }
  - { offsetInCU: 0xA3CFE, offset: 0xA3CFE, size: 0x8, addend: 0x0, symName: __ZN4crow10TaggedRuleIJNSt3__112basic_stringIcNS1_11char_traitsIcEENS1_9allocatorIcEEEEEEclIZNS_4CrowIJNS_11CORSHandlerEEE8validateEvEUlRNS_8responseES7_E_EEvOT_, symObjAddr: 0x14370, symBinAddr: 0x100016F60, symSize: 0x70 }
  - { offsetInCU: 0xA404C, offset: 0xA404C, size: 0x8, addend: 0x0, symName: __ZN4crow10TaggedRuleIJNSt3__112basic_stringIcNS1_11char_traitsIcEENS1_9allocatorIcEEEEEEclIZNS_4CrowIJNS_11CORSHandlerEEE8validateEvEUlRNS_8responseES7_E0_EEvOT_, symObjAddr: 0x146F0, symBinAddr: 0x1000172E0, symSize: 0x70 }
  - { offsetInCU: 0xA433B, offset: 0xA433B, size: 0x8, addend: 0x0, symName: __ZNSt3__16vectorIN4crow10HTTPMethodENS_9allocatorIS2_EEE26__swap_out_circular_bufferERNS_14__split_bufferIS2_RS4_EE, symObjAddr: 0x22D20, symBinAddr: 0x100025910, symSize: 0x130 }
  - { offsetInCU: 0xA4395, offset: 0xA4395, size: 0x8, addend: 0x0, symName: __ZNSt3__16vectorIN4crow4Trie4NodeENS_9allocatorIS3_EEE26__swap_out_circular_bufferERNS_14__split_bufferIS3_RS5_EE, symObjAddr: 0x24A10, symBinAddr: 0x100027600, symSize: 0x130 }
  - { offsetInCU: 0xA447F, offset: 0xA447F, size: 0x8, addend: 0x0, symName: __ZNSt3__16vectorIiNS_9allocatorIiEEE26__swap_out_circular_bufferERNS_14__split_bufferIiRS2_EEPi, symObjAddr: 0x26690, symBinAddr: 0x100029280, symSize: 0x170 }
  - { offsetInCU: 0xA44E0, offset: 0xA44E0, size: 0x8, addend: 0x0, symName: __ZNSt3__16vectorIiNS_9allocatorIiEEE26__swap_out_circular_bufferERNS_14__split_bufferIiRS2_EE, symObjAddr: 0x28BF0, symBinAddr: 0x10002B7E0, symSize: 0x130 }
  - { offsetInCU: 0xA4585, offset: 0xA4585, size: 0x8, addend: 0x0, symName: __ZNSt3__16vectorIPN4crow8BaseRuleENS_9allocatorIS3_EEE26__swap_out_circular_bufferERNS_14__split_bufferIS3_RS5_EE, symObjAddr: 0x2AAD0, symBinAddr: 0x10002D6C0, symSize: 0x130 }
  - { offsetInCU: 0xA46EC, offset: 0xA46EC, size: 0x8, addend: 0x0, symName: __ZNSt3__16vectorINS_10unique_ptrIN4asio10io_contextENS_14default_deleteIS3_EEEENS_9allocatorIS6_EEE26__swap_out_circular_bufferERNS_14__split_bufferIS6_RS8_EE, symObjAddr: 0x40B20, symBinAddr: 0x100043710, symSize: 0x130 }
  - { offsetInCU: 0xA478B, offset: 0xA478B, size: 0x8, addend: 0x0, symName: __ZNSt3__16vectorINS_8functionIFNS_12basic_stringIcNS_11char_traitsIcEENS_9allocatorIcEEEEvEEENS5_IS9_EEE26__swap_out_circular_bufferERNS_14__split_bufferIS9_RSA_EE, symObjAddr: 0x420B0, symBinAddr: 0x100044CA0, symSize: 0x130 }
  - { offsetInCU: 0xA482A, offset: 0xA482A, size: 0x8, addend: 0x0, symName: __ZNSt3__16vectorIPN4crow6detail10task_timerENS_9allocatorIS4_EEE26__swap_out_circular_bufferERNS_14__split_bufferIS4_RS6_EE, symObjAddr: 0x43910, symBinAddr: 0x100046500, symSize: 0x130 }
  - { offsetInCU: 0xA4A18, offset: 0xA4A18, size: 0x8, addend: 0x0, symName: __ZNSt3__16vectorINS_6futureIvEENS_9allocatorIS2_EEE26__swap_out_circular_bufferERNS_14__split_bufferIS2_RS4_EE, symObjAddr: 0x451A0, symBinAddr: 0x100047D90, symSize: 0x130 }
  - { offsetInCU: 0xA4AB7, offset: 0xA4AB7, size: 0x8, addend: 0x0, symName: __ZN4crow6ServerINS_4CrowIJNS_11CORSHandlerEEEENS_13SocketAdaptorEJS2_EE3runEv, symObjAddr: 0x13B70, symBinAddr: 0x100016760, symSize: 0x630 }
  - { offsetInCU: 0xA4C80, offset: 0xA4C80, size: 0x8, addend: 0x0, symName: __ZZN4crow6ServerINS_4CrowIJNS_11CORSHandlerEEEENS_13SocketAdaptorEJS2_EE3runEvENKUlvE_clEv, symObjAddr: 0x46A90, symBinAddr: 0x100049680, symSize: 0x3B0 }
  - { offsetInCU: 0xA4FFD, offset: 0xA4FFD, size: 0x8, addend: 0x0, symName: __ZNKSt3__16chrono13__duration_ltINS0_8durationIxNS_5ratioILl1ELl1000000000EEEEENS2_IxNS3_ILl1ELl1EEEEEEclB7v160006ERKS5_RKS7_, symObjAddr: 0x489B0, symBinAddr: 0x10004B5A0, symSize: 0x60 }
  - { offsetInCU: 0xA5058, offset: 0xA5058, size: 0x8, addend: 0x0, symName: __ZNKSt3__16chrono15__duration_castINS0_8durationIxNS_5ratioILl1ELl1EEEEENS2_IxNS3_ILl1ELl1000000000EEEEENS3_ILl1000000000ELl1EEELb0ELb1EEclB7v160006ERKS5_, symObjAddr: 0x48AC0, symBinAddr: 0x10004B6B0, symSize: 0x40 }
  - { offsetInCU: 0xA5289, offset: 0xA5289, size: 0x8, addend: 0x0, symName: __ZNSt3__16vectorIN4asio6detail11timer_queueINS2_18chrono_time_traitsINS_6chrono12steady_clockENS1_11wait_traitsIS6_EEEEE10heap_entryENS_9allocatorISB_EEE26__swap_out_circular_bufferERNS_14__split_bufferISB_RSD_EE, symObjAddr: 0x4C4E0, symBinAddr: 0x10004F0D0, symSize: 0x130 }
  - { offsetInCU: 0xA549F, offset: 0xA549F, size: 0x8, addend: 0x0, symName: __ZNSt3__16vectorImNS_9allocatorImEEE26__swap_out_circular_bufferERNS_14__split_bufferImRS2_EE, symObjAddr: 0x4E540, symBinAddr: 0x100051130, symSize: 0x130 }
  - { offsetInCU: 0xA56D5, offset: 0xA56D5, size: 0x8, addend: 0x0, symName: __ZNKSt3__16chrono15__duration_castINS0_8durationIxNS_5ratioILl1ELl1000EEEEENS2_IxNS3_ILl1ELl1000000000EEEEENS3_ILl1000000ELl1EEELb0ELb1EEclB7v160006ERKS5_, symObjAddr: 0x52790, symBinAddr: 0x100055380, symSize: 0x40 }
  - { offsetInCU: 0xA5733, offset: 0xA5733, size: 0x8, addend: 0x0, symName: __ZN4crow6ServerINS_4CrowIJNS_11CORSHandlerEEEENS_13SocketAdaptorEJS2_EE7on_tickEv, symObjAddr: 0x53240, symBinAddr: 0x100055E30, symSize: 0xA0 }
  - { offsetInCU: 0xA594E, offset: 0xA594E, size: 0x8, addend: 0x0, symName: __ZNSt3__110shared_ptrIN4crow10ConnectionINS1_13SocketAdaptorENS1_4CrowIJNS1_11CORSHandlerEEEEJS5_EEEE18__enable_weak_thisB7v160006IS7_S7_vEEvPKNS_23enable_shared_from_thisIT_EEPT0_, symObjAddr: 0x5AF40, symBinAddr: 0x10005DB30, symSize: 0x70 }
  - { offsetInCU: 0xA59DF, offset: 0xA59DF, size: 0x8, addend: 0x0, symName: __ZN4crow6ServerINS_4CrowIJNS_11CORSHandlerEEEENS_13SocketAdaptorEJS2_EE9do_acceptEv, symObjAddr: 0x40280, symBinAddr: 0x100042E70, symSize: 0x380 }
  - { offsetInCU: 0xA5AEC, offset: 0xA5AEC, size: 0x8, addend: 0x0, symName: __ZZN4crow6ServerINS_4CrowIJNS_11CORSHandlerEEEENS_13SocketAdaptorEJS2_EE9do_acceptEvENKUlNSt3__110error_codeEE_clES7_, symObjAddr: 0x5C730, symBinAddr: 0x10005F320, symSize: 0x210 }
  - { offsetInCU: 0xA5B94, offset: 0xA5B94, size: 0x8, addend: 0x0, symName: __ZN4crow10ConnectionINS_13SocketAdaptorENS_4CrowIJNS_11CORSHandlerEEEEJS3_EE14start_deadlineEv, symObjAddr: 0x5D5D0, symBinAddr: 0x1000601C0, symSize: 0x270 }
  - { offsetInCU: 0xA5E8F, offset: 0xA5E8F, size: 0x8, addend: 0x0, symName: __ZN4crow10ConnectionINS_13SocketAdaptorENS_4CrowIJNS_11CORSHandlerEEEEJS3_EE7do_readEv, symObjAddr: 0x5D920, symBinAddr: 0x100060510, symSize: 0xC0 }
  - { offsetInCU: 0xA5F4F, offset: 0xA5F4F, size: 0x8, addend: 0x0, symName: __ZNSt3__16vectorIPcNS_9allocatorIS1_EEE26__swap_out_circular_bufferERNS_14__split_bufferIS1_RS3_EE, symObjAddr: 0x690B0, symBinAddr: 0x10006BCA0, symSize: 0x130 }
  - { offsetInCU: 0xA6182, offset: 0xA6182, size: 0x8, addend: 0x0, symName: __ZNSt3__16vectorIxNS_9allocatorIxEEE26__swap_out_circular_bufferERNS_14__split_bufferIxRS2_EE, symObjAddr: 0x72990, symBinAddr: 0x100075580, symSize: 0x130 }
  - { offsetInCU: 0xA61C5, offset: 0xA61C5, size: 0x8, addend: 0x0, symName: __ZNSt3__16vectorItNS_9allocatorItEEE26__swap_out_circular_bufferERNS_14__split_bufferItRS2_EE, symObjAddr: 0x738F0, symBinAddr: 0x1000764E0, symSize: 0x130 }
  - { offsetInCU: 0xA6208, offset: 0xA6208, size: 0x8, addend: 0x0, symName: __ZNSt3__16vectorIyNS_9allocatorIyEEE26__swap_out_circular_bufferERNS_14__split_bufferIyRS2_EE, symObjAddr: 0x754C0, symBinAddr: 0x1000780B0, symSize: 0x130 }
  - { offsetInCU: 0xA624B, offset: 0xA624B, size: 0x8, addend: 0x0, symName: __ZNSt3__16vectorIdNS_9allocatorIdEEE26__swap_out_circular_bufferERNS_14__split_bufferIdRS2_EE, symObjAddr: 0x76490, symBinAddr: 0x100079080, symSize: 0x130 }
  - { offsetInCU: 0xA628E, offset: 0xA628E, size: 0x8, addend: 0x0, symName: __ZNSt3__16vectorINS_12basic_stringIcNS_11char_traitsIcEENS_9allocatorIcEEEENS4_IS6_EEE26__swap_out_circular_bufferERNS_14__split_bufferIS6_RS7_EE, symObjAddr: 0x77460, symBinAddr: 0x10007A050, symSize: 0x130 }
  - { offsetInCU: 0xA6316, offset: 0xA6316, size: 0x8, addend: 0x0, symName: __ZNSt3__16vectorIPN4crow9BlueprintENS_9allocatorIS3_EEE26__swap_out_circular_bufferERNS_14__split_bufferIS3_RS5_EE, symObjAddr: 0x78CD0, symBinAddr: 0x10007B8C0, symSize: 0x130 }
  - { offsetInCU: 0xA6359, offset: 0xA6359, size: 0x8, addend: 0x0, symName: __ZNSt3__16vectorIN4asio12const_bufferENS_9allocatorIS2_EEE26__swap_out_circular_bufferERNS_14__split_bufferIS2_RS4_EE, symObjAddr: 0x805F0, symBinAddr: 0x1000831E0, symSize: 0x130 }
  - { offsetInCU: 0xA648E, offset: 0xA648E, size: 0x8, addend: 0x0, symName: __ZN4crow10ConnectionINS_13SocketAdaptorENS_4CrowIJNS_11CORSHandlerEEEEJS3_EE8do_writeEv, symObjAddr: 0x85800, symBinAddr: 0x1000883F0, symSize: 0xB0 }
  - { offsetInCU: 0xA6660, offset: 0xA6660, size: 0x8, addend: 0x0, symName: __ZN4crow10ConnectionINS_13SocketAdaptorENS_4CrowIJNS_11CORSHandlerEEEEJS3_EE6handleEv, symObjAddr: 0x89240, symBinAddr: 0x10008BE30, symSize: 0x9B0 }
  - { offsetInCU: 0xA6C1A, offset: 0xA6C1A, size: 0x8, addend: 0x0, symName: __ZN4crow6Router11handle_ruleINS_4CrowIJNS_11CORSHandlerEEEEEENSt3__19enable_ifIXnesr3std10tuple_sizeINT_14mw_container_tEEE5valueLi0EEvE4typeEPNS_8BaseRuleERNS_7requestERNS_8responseERKNS_14routing_paramsE, symObjAddr: 0x90330, symBinAddr: 0x100092F20, symSize: 0x270 }
  - { offsetInCU: 0xA8D2C, offset: 0xA8D2C, size: 0x8, addend: 0x0, symName: __Z7toupperi, symObjAddr: 0x18760, symBinAddr: 0x10001B350, symSize: 0x20 }
  - { offsetInCU: 0xAA3BD, offset: 0xAA3BD, size: 0x8, addend: 0x0, symName: __ZNSt3__14pairIKNS_12basic_stringIcNS_11char_traitsIcEENS_9allocatorIcEEEES6_EC1B7v160006IRA6_KcRA10_SA_LPv0EEEOT_OT0_, symObjAddr: 0x0, symBinAddr: 0x100002BF0, symSize: 0x30 }
  - { offsetInCU: 0xAA436, offset: 0xAA436, size: 0x8, addend: 0x0, symName: __ZNSt3__14pairIKNS_12basic_stringIcNS_11char_traitsIcEENS_9allocatorIcEEEES6_EC1B7v160006IRA4_KcRA10_SA_LPv0EEEOT_OT0_, symObjAddr: 0x30, symBinAddr: 0x100002C20, symSize: 0x30 }
  - { offsetInCU: 0xAA4AF, offset: 0xAA4AF, size: 0x8, addend: 0x0, symName: __ZNSt3__14pairIKNS_12basic_stringIcNS_11char_traitsIcEENS_9allocatorIcEEEES6_EC1B7v160006IRA5_KcRA10_SA_LPv0EEEOT_OT0_, symObjAddr: 0x60, symBinAddr: 0x100002C50, symSize: 0x30 }
  - { offsetInCU: 0xAA528, offset: 0xAA528, size: 0x8, addend: 0x0, symName: __ZNSt3__14pairIKNS_12basic_stringIcNS_11char_traitsIcEENS_9allocatorIcEEEES6_EC1B7v160006IRA4_KcRA9_SA_LPv0EEEOT_OT0_, symObjAddr: 0x90, symBinAddr: 0x100002C80, symSize: 0x30 }
  - { offsetInCU: 0xAA5A1, offset: 0xAA5A1, size: 0x8, addend: 0x0, symName: __ZNSt3__14pairIKNS_12basic_stringIcNS_11char_traitsIcEENS_9allocatorIcEEEES6_EC1B7v160006IRA4_KcRA11_SA_LPv0EEEOT_OT0_, symObjAddr: 0xC0, symBinAddr: 0x100002CB0, symSize: 0x30 }
  - { offsetInCU: 0xAA601, offset: 0xAA601, size: 0x8, addend: 0x0, symName: __ZNSt3__14pairIKNS_12basic_stringIcNS_11char_traitsIcEENS_9allocatorIcEEEES6_EC1B7v160006IRA5_KcRA11_SA_LPv0EEEOT_OT0_, symObjAddr: 0xF0, symBinAddr: 0x100002CE0, symSize: 0x30 }
  - { offsetInCU: 0xAA685, offset: 0xAA685, size: 0x8, addend: 0x0, symName: __ZNSt3__14pairIKNS_12basic_stringIcNS_11char_traitsIcEENS_9allocatorIcEEEES6_EC1B7v160006IRA3_KcRA23_SA_LPv0EEEOT_OT0_, symObjAddr: 0x120, symBinAddr: 0x100002D10, symSize: 0x30 }
  - { offsetInCU: 0xAA6FE, offset: 0xAA6FE, size: 0x8, addend: 0x0, symName: __ZNSt3__14pairIKNS_12basic_stringIcNS_11char_traitsIcEENS_9allocatorIcEEEES6_EC1B7v160006IRA5_KcRA21_SA_LPv0EEEOT_OT0_, symObjAddr: 0x150, symBinAddr: 0x100002D40, symSize: 0x30 }
  - { offsetInCU: 0xAA777, offset: 0xAA777, size: 0x8, addend: 0x0, symName: __ZNSt3__14pairIKNS_12basic_stringIcNS_11char_traitsIcEENS_9allocatorIcEEEES6_EC1B7v160006IRA4_KcRA20_SA_LPv0EEEOT_OT0_, symObjAddr: 0x180, symBinAddr: 0x100002D70, symSize: 0x30 }
  - { offsetInCU: 0xAA7F0, offset: 0xAA7F0, size: 0x8, addend: 0x0, symName: __ZNSt3__14pairIKNS_12basic_stringIcNS_11char_traitsIcEENS_9allocatorIcEEEES6_EC1B7v160006IRA4_KcRA12_SA_LPv0EEEOT_OT0_, symObjAddr: 0x1B0, symBinAddr: 0x100002DA0, symSize: 0x30 }
  - { offsetInCU: 0xAA869, offset: 0xAA869, size: 0x8, addend: 0x0, symName: __ZNSt3__14pairIKNS_12basic_stringIcNS_11char_traitsIcEENS_9allocatorIcEEEES6_EC1B7v160006IRA4_KcRA33_SA_LPv0EEEOT_OT0_, symObjAddr: 0x1E0, symBinAddr: 0x100002DD0, symSize: 0x30 }
  - { offsetInCU: 0xAA8E2, offset: 0xAA8E2, size: 0x8, addend: 0x0, symName: __ZNSt3__14pairIKNS_12basic_stringIcNS_11char_traitsIcEENS_9allocatorIcEEEES6_EC1B7v160006IRA4_KcRA17_SA_LPv0EEEOT_OT0_, symObjAddr: 0x210, symBinAddr: 0x100002E00, symSize: 0x30 }
  - { offsetInCU: 0xAA94D, offset: 0xAA94D, size: 0x8, addend: 0x0, symName: __ZNSt3__14pairIKNS_12basic_stringIcNS_11char_traitsIcEENS_9allocatorIcEEEES6_EC1B7v160006IRA5_KcRA14_SA_LPv0EEEOT_OT0_, symObjAddr: 0x240, symBinAddr: 0x100002E30, symSize: 0x30 }
  - { offsetInCU: 0xAA9AD, offset: 0xAA9AD, size: 0x8, addend: 0x0, symName: __ZNSt3__14pairIKNS_12basic_stringIcNS_11char_traitsIcEENS_9allocatorIcEEEES6_EC1B7v160006IRA4_KcRA14_SA_LPv0EEEOT_OT0_, symObjAddr: 0x270, symBinAddr: 0x100002E60, symSize: 0x30 }
  - { offsetInCU: 0xAAA26, offset: 0xAAA26, size: 0x8, addend: 0x0, symName: __ZNSt3__14pairIKNS_12basic_stringIcNS_11char_traitsIcEENS_9allocatorIcEEEES6_EC1B7v160006IRA5_KcRA19_SA_LPv0EEEOT_OT0_, symObjAddr: 0x2A0, symBinAddr: 0x100002E90, symSize: 0x30 }
  - { offsetInCU: 0xAAA9F, offset: 0xAAA9F, size: 0x8, addend: 0x0, symName: __ZNSt3__14pairIKNS_12basic_stringIcNS_11char_traitsIcEENS_9allocatorIcEEEES6_EC1B7v160006IRA4_KcRA13_SA_LPv0EEEOT_OT0_, symObjAddr: 0x2D0, symBinAddr: 0x100002EC0, symSize: 0x30 }
  - { offsetInCU: 0xAAB18, offset: 0xAAB18, size: 0x8, addend: 0x0, symName: __ZNSt3__14pairIKNS_12basic_stringIcNS_11char_traitsIcEENS_9allocatorIcEEEES6_EC1B7v160006IRA4_KcRA15_SA_LPv0EEEOT_OT0_, symObjAddr: 0x300, symBinAddr: 0x100002EF0, symSize: 0x30 }
  - { offsetInCU: 0xAAB78, offset: 0xAAB78, size: 0x8, addend: 0x0, symName: __ZNSt3__14pairIKNS_12basic_stringIcNS_11char_traitsIcEENS_9allocatorIcEEEES6_EC1B7v160006IRA6_KcRA11_SA_LPv0EEEOT_OT0_, symObjAddr: 0x330, symBinAddr: 0x100002F20, symSize: 0x30 }
  - { offsetInCU: 0xAABF1, offset: 0xAABF1, size: 0x8, addend: 0x0, symName: __ZNSt3__14pairIKNS_12basic_stringIcNS_11char_traitsIcEENS_9allocatorIcEEEES6_EC1B7v160006IRA4_KcRA25_SA_LPv0EEEOT_OT0_, symObjAddr: 0x360, symBinAddr: 0x100002F50, symSize: 0x30 }
  - { offsetInCU: 0xAAC51, offset: 0xAAC51, size: 0x8, addend: 0x0, symName: __ZNSt3__14pairIKNS_12basic_stringIcNS_11char_traitsIcEENS_9allocatorIcEEEES6_EC1B7v160006IRA5_KcRA17_SA_LPv0EEEOT_OT0_, symObjAddr: 0x390, symBinAddr: 0x100002F80, symSize: 0x30 }
  - { offsetInCU: 0xAACB1, offset: 0xAACB1, size: 0x8, addend: 0x0, symName: __ZNSt3__14pairIKNS_12basic_stringIcNS_11char_traitsIcEENS_9allocatorIcEEEES6_EC1B7v160006IRA4_KcRA19_SA_LPv0EEEOT_OT0_, symObjAddr: 0x3C0, symBinAddr: 0x100002FB0, symSize: 0x30 }
  - { offsetInCU: 0xAAD2A, offset: 0xAAD2A, size: 0x8, addend: 0x0, symName: __ZNSt3__14pairIKNS_12basic_stringIcNS_11char_traitsIcEENS_9allocatorIcEEEES6_EC1B7v160006IRA4_KcRA16_SA_LPv0EEEOT_OT0_, symObjAddr: 0x3F0, symBinAddr: 0x100002FE0, symSize: 0x30 }
  - { offsetInCU: 0xAAD8A, offset: 0xAAD8A, size: 0x8, addend: 0x0, symName: __ZNSt3__14pairIKNS_12basic_stringIcNS_11char_traitsIcEENS_9allocatorIcEEEES6_EC1B7v160006IRA4_KcRA23_SA_LPv0EEEOT_OT0_, symObjAddr: 0x420, symBinAddr: 0x100003010, symSize: 0x30 }
  - { offsetInCU: 0xAAE03, offset: 0xAAE03, size: 0x8, addend: 0x0, symName: __ZNSt3__14pairIKNS_12basic_stringIcNS_11char_traitsIcEENS_9allocatorIcEEEES6_EC1B7v160006IRA5_KcRA30_SA_LPv0EEEOT_OT0_, symObjAddr: 0x450, symBinAddr: 0x100003040, symSize: 0x30 }
  - { offsetInCU: 0xAAE7C, offset: 0xAAE7C, size: 0x8, addend: 0x0, symName: __ZNSt3__14pairIKNS_12basic_stringIcNS_11char_traitsIcEENS_9allocatorIcEEEES6_EC1B7v160006IRA4_KcRA37_SA_LPv0EEEOT_OT0_, symObjAddr: 0x480, symBinAddr: 0x100003070, symSize: 0x30 }
  - { offsetInCU: 0xAAEDC, offset: 0xAAEDC, size: 0x8, addend: 0x0, symName: __ZNSt3__14pairIKNS_12basic_stringIcNS_11char_traitsIcEENS_9allocatorIcEEEES6_EC1B7v160006IRA4_KcRA30_SA_LPv0EEEOT_OT0_, symObjAddr: 0x4B0, symBinAddr: 0x1000030A0, symSize: 0x30 }
  - { offsetInCU: 0xAAF55, offset: 0xAAF55, size: 0x8, addend: 0x0, symName: __ZNSt3__14pairIKNS_12basic_stringIcNS_11char_traitsIcEENS_9allocatorIcEEEES6_EC1B7v160006IRA4_KcRA44_SA_LPv0EEEOT_OT0_, symObjAddr: 0x4E0, symBinAddr: 0x1000030D0, symSize: 0x30 }
  - { offsetInCU: 0xAAFCE, offset: 0xAAFCE, size: 0x8, addend: 0x0, symName: __ZNSt3__14pairIKNS_12basic_stringIcNS_11char_traitsIcEENS_9allocatorIcEEEES6_EC1B7v160006IRA4_KcRA48_SA_LPv0EEEOT_OT0_, symObjAddr: 0x510, symBinAddr: 0x100003100, symSize: 0x30 }
  - { offsetInCU: 0xAB047, offset: 0xAB047, size: 0x8, addend: 0x0, symName: __ZNSt3__14pairIKNS_12basic_stringIcNS_11char_traitsIcEENS_9allocatorIcEEEES6_EC1B7v160006IRA4_KcRA47_SA_LPv0EEEOT_OT0_, symObjAddr: 0x540, symBinAddr: 0x100003130, symSize: 0x30 }
  - { offsetInCU: 0xAB0B2, offset: 0xAB0B2, size: 0x8, addend: 0x0, symName: __ZNSt3__14pairIKNS_12basic_stringIcNS_11char_traitsIcEENS_9allocatorIcEEEES6_EC1B7v160006IRA4_KcRA40_SA_LPv0EEEOT_OT0_, symObjAddr: 0x570, symBinAddr: 0x100003160, symSize: 0x30 }
  - { offsetInCU: 0xAB12B, offset: 0xAB12B, size: 0x8, addend: 0x0, symName: __ZNSt3__14pairIKNS_12basic_stringIcNS_11char_traitsIcEENS_9allocatorIcEEEES6_EC1B7v160006IRA5_KcRA74_SA_LPv0EEEOT_OT0_, symObjAddr: 0x5A0, symBinAddr: 0x100003190, symSize: 0x30 }
  - { offsetInCU: 0xAB1A4, offset: 0xAB1A4, size: 0x8, addend: 0x0, symName: __ZNSt3__14pairIKNS_12basic_stringIcNS_11char_traitsIcEENS_9allocatorIcEEEES6_EC1B7v160006IRA5_KcRA66_SA_LPv0EEEOT_OT0_, symObjAddr: 0x5D0, symBinAddr: 0x1000031C0, symSize: 0x30 }
  - { offsetInCU: 0xAB21D, offset: 0xAB21D, size: 0x8, addend: 0x0, symName: __ZNSt3__14pairIKNS_12basic_stringIcNS_11char_traitsIcEENS_9allocatorIcEEEES6_EC1B7v160006IRA5_KcRA72_SA_LPv0EEEOT_OT0_, symObjAddr: 0x600, symBinAddr: 0x1000031F0, symSize: 0x30 }
  - { offsetInCU: 0xAB27D, offset: 0xAB27D, size: 0x8, addend: 0x0, symName: __ZNSt3__14pairIKNS_12basic_stringIcNS_11char_traitsIcEENS_9allocatorIcEEEES6_EC1B7v160006IRA5_KcRA25_SA_LPv0EEEOT_OT0_, symObjAddr: 0x630, symBinAddr: 0x100003220, symSize: 0x30 }
  - { offsetInCU: 0xAB2F6, offset: 0xAB2F6, size: 0x8, addend: 0x0, symName: __ZNSt3__14pairIKNS_12basic_stringIcNS_11char_traitsIcEENS_9allocatorIcEEEES6_EC1B7v160006IRA3_KcRA28_SA_LPv0EEEOT_OT0_, symObjAddr: 0x660, symBinAddr: 0x100003250, symSize: 0x30 }
  - { offsetInCU: 0xAB37A, offset: 0xAB37A, size: 0x8, addend: 0x0, symName: __ZNSt3__14pairIKNS_12basic_stringIcNS_11char_traitsIcEENS_9allocatorIcEEEES6_EC1B7v160006IRA8_KcRA32_SA_LPv0EEEOT_OT0_, symObjAddr: 0x690, symBinAddr: 0x100003280, symSize: 0x30 }
  - { offsetInCU: 0xAB3F3, offset: 0xAB3F3, size: 0x8, addend: 0x0, symName: __ZNSt3__14pairIKNS_12basic_stringIcNS_11char_traitsIcEENS_9allocatorIcEEEES6_EC1B7v160006IRA5_KcRA29_SA_LPv0EEEOT_OT0_, symObjAddr: 0x6C0, symBinAddr: 0x1000032B0, symSize: 0x30 }
  - { offsetInCU: 0xAB453, offset: 0xAB453, size: 0x8, addend: 0x0, symName: __ZNSt3__14pairIKNS_12basic_stringIcNS_11char_traitsIcEENS_9allocatorIcEEEES6_EC1B7v160006IRA3_KcRA19_SA_LPv0EEEOT_OT0_, symObjAddr: 0x6F0, symBinAddr: 0x1000032E0, symSize: 0x30 }
  - { offsetInCU: 0xAB4B3, offset: 0xAB4B3, size: 0x8, addend: 0x0, symName: __ZNSt3__14pairIKNS_12basic_stringIcNS_11char_traitsIcEENS_9allocatorIcEEEES6_EC1B7v160006IRA4_KcRA29_SA_LPv0EEEOT_OT0_, symObjAddr: 0x720, symBinAddr: 0x100003310, symSize: 0x30 }
  - { offsetInCU: 0xAB52C, offset: 0xAB52C, size: 0x8, addend: 0x0, symName: __ZNSt3__14pairIKNS_12basic_stringIcNS_11char_traitsIcEENS_9allocatorIcEEEES6_EC1B7v160006IRA4_KcRA18_SA_LPv0EEEOT_OT0_, symObjAddr: 0x750, symBinAddr: 0x100003340, symSize: 0x30 }
  - { offsetInCU: 0xAB5A5, offset: 0xAB5A5, size: 0x8, addend: 0x0, symName: __ZNSt3__14pairIKNS_12basic_stringIcNS_11char_traitsIcEENS_9allocatorIcEEEES6_EC1B7v160006IRA4_KcRA22_SA_LPv0EEEOT_OT0_, symObjAddr: 0x780, symBinAddr: 0x100003370, symSize: 0x30 }
  - { offsetInCU: 0xAB605, offset: 0xAB605, size: 0x8, addend: 0x0, symName: __ZNSt3__14pairIKNS_12basic_stringIcNS_11char_traitsIcEENS_9allocatorIcEEEES6_EC1B7v160006IRA3_KcRA18_SA_LPv0EEEOT_OT0_, symObjAddr: 0x7B0, symBinAddr: 0x1000033A0, symSize: 0x30 }
  - { offsetInCU: 0xAB67E, offset: 0xAB67E, size: 0x8, addend: 0x0, symName: __ZNSt3__14pairIKNS_12basic_stringIcNS_11char_traitsIcEENS_9allocatorIcEEEES6_EC1B7v160006IRA4_KcRA27_SA_LPv0EEEOT_OT0_, symObjAddr: 0x7E0, symBinAddr: 0x1000033D0, symSize: 0x30 }
  - { offsetInCU: 0xAB6F7, offset: 0xAB6F7, size: 0x8, addend: 0x0, symName: __ZNSt3__14pairIKNS_12basic_stringIcNS_11char_traitsIcEENS_9allocatorIcEEEES6_EC1B7v160006IRA4_KcRA24_SA_LPv0EEEOT_OT0_, symObjAddr: 0x810, symBinAddr: 0x100003400, symSize: 0x30 }
  - { offsetInCU: 0xAB757, offset: 0xAB757, size: 0x8, addend: 0x0, symName: __ZNSt3__14pairIKNS_12basic_stringIcNS_11char_traitsIcEENS_9allocatorIcEEEES6_EC1B7v160006IRA6_KcRA22_SA_LPv0EEEOT_OT0_, symObjAddr: 0x840, symBinAddr: 0x100003430, symSize: 0x30 }
  - { offsetInCU: 0xAB7B7, offset: 0xAB7B7, size: 0x8, addend: 0x0, symName: __ZNSt3__14pairIKNS_12basic_stringIcNS_11char_traitsIcEENS_9allocatorIcEEEES6_EC1B7v160006IRA3_KcRA11_SA_LPv0EEEOT_OT0_, symObjAddr: 0x870, symBinAddr: 0x100003460, symSize: 0x30 }
  - { offsetInCU: 0xAB817, offset: 0xAB817, size: 0x8, addend: 0x0, symName: __ZNSt3__14pairIKNS_12basic_stringIcNS_11char_traitsIcEENS_9allocatorIcEEEES6_ED1Ev, symObjAddr: 0x8A0, symBinAddr: 0x100003490, symSize: 0x20 }
  - { offsetInCU: 0xAB843, offset: 0xAB843, size: 0x8, addend: 0x0, symName: __ZNSt3__113unordered_mapINS_12basic_stringIcNS_11char_traitsIcEENS_9allocatorIcEEEES6_NS_4hashIS6_EENS_8equal_toIS6_EENS4_INS_4pairIKS6_S6_EEEEEC1ESt16initializer_listISD_E, symObjAddr: 0x8C0, symBinAddr: 0x1000034B0, symSize: 0x30 }
  - { offsetInCU: 0xAB87E, offset: 0xAB87E, size: 0x8, addend: 0x0, symName: __ZNSt3__113unordered_mapINS_12basic_stringIcNS_11char_traitsIcEENS_9allocatorIcEEEES6_NS_4hashIS6_EENS_8equal_toIS6_EENS4_INS_4pairIKS6_S6_EEEEED1B7v160006Ev, symObjAddr: 0x8F0, symBinAddr: 0x1000034E0, symSize: 0x20 }
  - { offsetInCU: 0xAB8AE, offset: 0xAB8AE, size: 0x8, addend: 0x0, symName: __ZNSt3__112basic_stringIcNS_11char_traitsIcEENS_9allocatorIcEEEC1B7v160006IDnEEPKc, symObjAddr: 0xA40, symBinAddr: 0x100003630, symSize: 0x30 }
  - { offsetInCU: 0xAB8EC, offset: 0xAB8EC, size: 0x8, addend: 0x0, symName: _main, symObjAddr: 0xA70, symBinAddr: 0x100003660, symSize: 0x440 }
  - { offsetInCU: 0xABC69, offset: 0xABC69, size: 0x8, addend: 0x0, symName: __ZN8DatabaseC1Ev, symObjAddr: 0xEB0, symBinAddr: 0x100003AA0, symSize: 0x20 }
  - { offsetInCU: 0xABC93, offset: 0xABC93, size: 0x8, addend: 0x0, symName: __ZN4crow4CrowIJNS_11CORSHandlerEEEC1Ev, symObjAddr: 0xED0, symBinAddr: 0x100003AC0, symSize: 0x20 }
  - { offsetInCU: 0xABD42, offset: 0xABD42, size: 0x8, addend: 0x0, symName: __ZN6Config10getApiPortEv, symObjAddr: 0xEF0, symBinAddr: 0x100003AE0, symSize: 0x80 }
  - { offsetInCU: 0xABD56, offset: 0xABD56, size: 0x8, addend: 0x0, symName: __ZN6Config15getDatabaseNameEv, symObjAddr: 0xF70, symBinAddr: 0x100003B60, symSize: 0x80 }
  - { offsetInCU: 0xABD6A, offset: 0xABD6A, size: 0x8, addend: 0x0, symName: __ZN6Config15getDatabaseUserEv, symObjAddr: 0xFF0, symBinAddr: 0x100003BE0, symSize: 0x80 }
  - { offsetInCU: 0xABD7E, offset: 0xABD7E, size: 0x8, addend: 0x0, symName: __ZN6Config19getDatabasePasswordEv, symObjAddr: 0x1070, symBinAddr: 0x100003C60, symSize: 0x80 }
  - { offsetInCU: 0xABD92, offset: 0xABD92, size: 0x8, addend: 0x0, symName: __ZN6Config15getDatabaseHostEv, symObjAddr: 0x10F0, symBinAddr: 0x100003CE0, symSize: 0x80 }
  - { offsetInCU: 0xABDA6, offset: 0xABDA6, size: 0x8, addend: 0x0, symName: __ZN6Config15getDatabasePortEv, symObjAddr: 0x1170, symBinAddr: 0x100003D60, symSize: 0x80 }
  - { offsetInCU: 0xABDBA, offset: 0xABDBA, size: 0x8, addend: 0x0, symName: __ZN4crow4CrowIJNS_11CORSHandlerEEE8loglevelENS_8LogLevelE, symObjAddr: 0x11F0, symBinAddr: 0x100003DE0, symSize: 0x30 }
  - { offsetInCU: 0xABDEF, offset: 0xABDEF, size: 0x8, addend: 0x0, symName: __ZN4crow4CrowIJNS_11CORSHandlerEEE4portEt, symObjAddr: 0x1220, symBinAddr: 0x100003E10, symSize: 0x20 }
  - { offsetInCU: 0xABE24, offset: 0xABE24, size: 0x8, addend: 0x0, symName: __ZN4crow4CrowIJNS_11CORSHandlerEEE13multithreadedEv, symObjAddr: 0x1240, symBinAddr: 0x100003E30, symSize: 0x30 }
  - { offsetInCU: 0xABE4A, offset: 0xABE4A, size: 0x8, addend: 0x0, symName: __ZN4crow4CrowIJNS_11CORSHandlerEEE3runEv, symObjAddr: 0x1270, symBinAddr: 0x100003E60, symSize: 0x320 }
  - { offsetInCU: 0xABEC7, offset: 0xABEC7, size: 0x8, addend: 0x0, symName: __ZN4crow4CrowIJNS_11CORSHandlerEEED1Ev, symObjAddr: 0x1590, symBinAddr: 0x100004180, symSize: 0x20 }
  - { offsetInCU: 0xABEF4, offset: 0xABEF4, size: 0x8, addend: 0x0, symName: __ZN8DatabaseD1Ev, symObjAddr: 0x15B0, symBinAddr: 0x1000041A0, symSize: 0x20 }
  - { offsetInCU: 0xABF1E, offset: 0xABF1E, size: 0x8, addend: 0x0, symName: __ZNSt3__113basic_ostreamIcNS_11char_traitsIcEEElsB7v160006EPFRS3_S4_E, symObjAddr: 0x1610, symBinAddr: 0x100004200, symSize: 0x20 }
  - { offsetInCU: 0xABF53, offset: 0xABF53, size: 0x8, addend: 0x0, symName: __ZN4asio6detail7tss_ptrINS0_10call_stackINS0_14thread_contextENS0_16thread_info_baseEE7contextEEC1Ev, symObjAddr: 0x1690, symBinAddr: 0x100004280, symSize: 0x20 }
  - { offsetInCU: 0xABF7F, offset: 0xABF7F, size: 0x8, addend: 0x0, symName: __ZN4asio6detail7tss_ptrINS0_10call_stackINS0_14thread_contextENS0_16thread_info_baseEE7contextEED1Ev, symObjAddr: 0x16B0, symBinAddr: 0x1000042A0, symSize: 0x20 }
  - { offsetInCU: 0xABFB1, offset: 0xABFB1, size: 0x8, addend: 0x0, symName: __ZN4asio6detail10service_idINS0_9schedulerEEC1Ev, symObjAddr: 0x16D0, symBinAddr: 0x1000042C0, symSize: 0x20 }
  - { offsetInCU: 0xABFDE, offset: 0xABFDE, size: 0x8, addend: 0x0, symName: __ZN4asio6detail10service_idINS0_9schedulerEED1Ev, symObjAddr: 0x16F0, symBinAddr: 0x1000042E0, symSize: 0x20 }
  - { offsetInCU: 0xAC011, offset: 0xAC011, size: 0x8, addend: 0x0, symName: __ZN4asio6detail10service_idINS0_14kqueue_reactorEEC1Ev, symObjAddr: 0x1710, symBinAddr: 0x100004300, symSize: 0x20 }
  - { offsetInCU: 0xAC03E, offset: 0xAC03E, size: 0x8, addend: 0x0, symName: __ZN4asio6detail10service_idINS0_14kqueue_reactorEED1Ev, symObjAddr: 0x1730, symBinAddr: 0x100004320, symSize: 0x20 }
  - { offsetInCU: 0xAC06B, offset: 0xAC06B, size: 0x8, addend: 0x0, symName: __ZN4asio6detail7tss_ptrINS0_10call_stackINS0_14strand_service11strand_implEhE7contextEEC1Ev, symObjAddr: 0x1750, symBinAddr: 0x100004340, symSize: 0x20 }
  - { offsetInCU: 0xAC097, offset: 0xAC097, size: 0x8, addend: 0x0, symName: __ZN4asio6detail7tss_ptrINS0_10call_stackINS0_14strand_service11strand_implEhE7contextEED1Ev, symObjAddr: 0x1770, symBinAddr: 0x100004360, symSize: 0x20 }
  - { offsetInCU: 0xAC0C9, offset: 0xAC0C9, size: 0x8, addend: 0x0, symName: __ZN4asio6detail10service_idINS0_14strand_serviceEEC1Ev, symObjAddr: 0x1790, symBinAddr: 0x100004380, symSize: 0x20 }
  - { offsetInCU: 0xAC0F6, offset: 0xAC0F6, size: 0x8, addend: 0x0, symName: __ZN4asio6detail10service_idINS0_14strand_serviceEED1Ev, symObjAddr: 0x17B0, symBinAddr: 0x1000043A0, symSize: 0x20 }
  - { offsetInCU: 0xAC123, offset: 0xAC123, size: 0x8, addend: 0x0, symName: __ZN4asio6detail7tss_ptrINS0_10call_stackINS0_23strand_executor_service11strand_implEhE7contextEEC1Ev, symObjAddr: 0x17D0, symBinAddr: 0x1000043C0, symSize: 0x20 }
  - { offsetInCU: 0xAC14F, offset: 0xAC14F, size: 0x8, addend: 0x0, symName: __ZN4asio6detail7tss_ptrINS0_10call_stackINS0_23strand_executor_service11strand_implEhE7contextEED1Ev, symObjAddr: 0x17F0, symBinAddr: 0x1000043E0, symSize: 0x20 }
  - { offsetInCU: 0xAC17B, offset: 0xAC17B, size: 0x8, addend: 0x0, symName: __ZN4asio6detail17posix_global_implINS_14system_contextEED1Ev, symObjAddr: 0x1810, symBinAddr: 0x100004400, symSize: 0x20 }
  - { offsetInCU: 0xAC1AB, offset: 0xAC1AB, size: 0x8, addend: 0x0, symName: __ZN4asio6detail10service_idINS0_23reactive_socket_serviceINS_2ip3tcpEEEEC1Ev, symObjAddr: 0x1830, symBinAddr: 0x100004420, symSize: 0x20 }
  - { offsetInCU: 0xAC1D8, offset: 0xAC1D8, size: 0x8, addend: 0x0, symName: __ZN4asio6detail10service_idINS0_23reactive_socket_serviceINS_2ip3tcpEEEED1Ev, symObjAddr: 0x1850, symBinAddr: 0x100004440, symSize: 0x20 }
  - { offsetInCU: 0xAC20B, offset: 0xAC20B, size: 0x8, addend: 0x0, symName: __ZN4asio6detail10service_idINS0_22deadline_timer_serviceINS0_18chrono_time_traitsINSt3__16chrono12steady_clockENS_11wait_traitsIS6_EEEEEEEC1Ev, symObjAddr: 0x1870, symBinAddr: 0x100004460, symSize: 0x20 }
  - { offsetInCU: 0xAC238, offset: 0xAC238, size: 0x8, addend: 0x0, symName: __ZN4asio6detail10service_idINS0_22deadline_timer_serviceINS0_18chrono_time_traitsINSt3__16chrono12steady_clockENS_11wait_traitsIS6_EEEEEEED1Ev, symObjAddr: 0x1890, symBinAddr: 0x100004480, symSize: 0x20 }
  - { offsetInCU: 0xAC279, offset: 0xAC279, size: 0x8, addend: 0x0, symName: __ZNKSt9type_info4nameB7v160006Ev, symObjAddr: 0x18B0, symBinAddr: 0x1000044A0, symSize: 0x20 }
  - { offsetInCU: 0xAC2C5, offset: 0xAC2C5, size: 0x8, addend: 0x0, symName: __ZN4asio6detail10service_idINS0_18signal_set_serviceEEC1Ev, symObjAddr: 0x18D0, symBinAddr: 0x1000044C0, symSize: 0x20 }
  - { offsetInCU: 0xAC2F2, offset: 0xAC2F2, size: 0x8, addend: 0x0, symName: __ZN4asio6detail10service_idINS0_18signal_set_serviceEED1Ev, symObjAddr: 0x18F0, symBinAddr: 0x1000044E0, symSize: 0x20 }
  - { offsetInCU: 0xAC31F, offset: 0xAC31F, size: 0x8, addend: 0x0, symName: __ZNSt3__14pairIKNS_12basic_stringIcNS_11char_traitsIcEENS_9allocatorIcEEEES6_EC2B7v160006IRA6_KcRA10_SA_LPv0EEEOT_OT0_, symObjAddr: 0x1910, symBinAddr: 0x100004500, symSize: 0x60 }
  - { offsetInCU: 0xAC37F, offset: 0xAC37F, size: 0x8, addend: 0x0, symName: __ZNSt3__14pairIKNS_12basic_stringIcNS_11char_traitsIcEENS_9allocatorIcEEEES6_EC2B7v160006IRA4_KcRA10_SA_LPv0EEEOT_OT0_, symObjAddr: 0x1970, symBinAddr: 0x100004560, symSize: 0x60 }
  - { offsetInCU: 0xAC3DF, offset: 0xAC3DF, size: 0x8, addend: 0x0, symName: __ZNSt3__14pairIKNS_12basic_stringIcNS_11char_traitsIcEENS_9allocatorIcEEEES6_EC2B7v160006IRA5_KcRA10_SA_LPv0EEEOT_OT0_, symObjAddr: 0x19D0, symBinAddr: 0x1000045C0, symSize: 0x60 }
  - { offsetInCU: 0xAC43F, offset: 0xAC43F, size: 0x8, addend: 0x0, symName: __ZNSt3__14pairIKNS_12basic_stringIcNS_11char_traitsIcEENS_9allocatorIcEEEES6_EC2B7v160006IRA4_KcRA9_SA_LPv0EEEOT_OT0_, symObjAddr: 0x1A30, symBinAddr: 0x100004620, symSize: 0x60 }
  - { offsetInCU: 0xAC49F, offset: 0xAC49F, size: 0x8, addend: 0x0, symName: __ZNSt3__14pairIKNS_12basic_stringIcNS_11char_traitsIcEENS_9allocatorIcEEEES6_EC2B7v160006IRA4_KcRA11_SA_LPv0EEEOT_OT0_, symObjAddr: 0x1A90, symBinAddr: 0x100004680, symSize: 0x60 }
  - { offsetInCU: 0xAC4FF, offset: 0xAC4FF, size: 0x8, addend: 0x0, symName: __ZNSt3__14pairIKNS_12basic_stringIcNS_11char_traitsIcEENS_9allocatorIcEEEES6_EC2B7v160006IRA5_KcRA11_SA_LPv0EEEOT_OT0_, symObjAddr: 0x1AF0, symBinAddr: 0x1000046E0, symSize: 0x60 }
  - { offsetInCU: 0xAC55F, offset: 0xAC55F, size: 0x8, addend: 0x0, symName: __ZNSt3__14pairIKNS_12basic_stringIcNS_11char_traitsIcEENS_9allocatorIcEEEES6_EC2B7v160006IRA3_KcRA23_SA_LPv0EEEOT_OT0_, symObjAddr: 0x1B50, symBinAddr: 0x100004740, symSize: 0x60 }
  - { offsetInCU: 0xAC5BF, offset: 0xAC5BF, size: 0x8, addend: 0x0, symName: __ZNSt3__14pairIKNS_12basic_stringIcNS_11char_traitsIcEENS_9allocatorIcEEEES6_EC2B7v160006IRA5_KcRA21_SA_LPv0EEEOT_OT0_, symObjAddr: 0x1BB0, symBinAddr: 0x1000047A0, symSize: 0x60 }
  - { offsetInCU: 0xAC61F, offset: 0xAC61F, size: 0x8, addend: 0x0, symName: __ZNSt3__14pairIKNS_12basic_stringIcNS_11char_traitsIcEENS_9allocatorIcEEEES6_EC2B7v160006IRA4_KcRA20_SA_LPv0EEEOT_OT0_, symObjAddr: 0x1C10, symBinAddr: 0x100004800, symSize: 0x60 }
  - { offsetInCU: 0xAC67F, offset: 0xAC67F, size: 0x8, addend: 0x0, symName: __ZNSt3__14pairIKNS_12basic_stringIcNS_11char_traitsIcEENS_9allocatorIcEEEES6_EC2B7v160006IRA4_KcRA12_SA_LPv0EEEOT_OT0_, symObjAddr: 0x1C70, symBinAddr: 0x100004860, symSize: 0x60 }
  - { offsetInCU: 0xAC6DF, offset: 0xAC6DF, size: 0x8, addend: 0x0, symName: __ZNSt3__14pairIKNS_12basic_stringIcNS_11char_traitsIcEENS_9allocatorIcEEEES6_EC2B7v160006IRA4_KcRA33_SA_LPv0EEEOT_OT0_, symObjAddr: 0x1CD0, symBinAddr: 0x1000048C0, symSize: 0x60 }
  - { offsetInCU: 0xAC73F, offset: 0xAC73F, size: 0x8, addend: 0x0, symName: __ZNSt3__14pairIKNS_12basic_stringIcNS_11char_traitsIcEENS_9allocatorIcEEEES6_EC2B7v160006IRA4_KcRA17_SA_LPv0EEEOT_OT0_, symObjAddr: 0x1D30, symBinAddr: 0x100004920, symSize: 0x60 }
  - { offsetInCU: 0xAC79F, offset: 0xAC79F, size: 0x8, addend: 0x0, symName: __ZNSt3__14pairIKNS_12basic_stringIcNS_11char_traitsIcEENS_9allocatorIcEEEES6_EC2B7v160006IRA5_KcRA14_SA_LPv0EEEOT_OT0_, symObjAddr: 0x1D90, symBinAddr: 0x100004980, symSize: 0x60 }
  - { offsetInCU: 0xAC7FF, offset: 0xAC7FF, size: 0x8, addend: 0x0, symName: __ZNSt3__14pairIKNS_12basic_stringIcNS_11char_traitsIcEENS_9allocatorIcEEEES6_EC2B7v160006IRA4_KcRA14_SA_LPv0EEEOT_OT0_, symObjAddr: 0x1DF0, symBinAddr: 0x1000049E0, symSize: 0x60 }
  - { offsetInCU: 0xAC85F, offset: 0xAC85F, size: 0x8, addend: 0x0, symName: __ZNSt3__14pairIKNS_12basic_stringIcNS_11char_traitsIcEENS_9allocatorIcEEEES6_EC2B7v160006IRA5_KcRA19_SA_LPv0EEEOT_OT0_, symObjAddr: 0x1E50, symBinAddr: 0x100004A40, symSize: 0x60 }
  - { offsetInCU: 0xAC8BF, offset: 0xAC8BF, size: 0x8, addend: 0x0, symName: __ZNSt3__14pairIKNS_12basic_stringIcNS_11char_traitsIcEENS_9allocatorIcEEEES6_EC2B7v160006IRA4_KcRA13_SA_LPv0EEEOT_OT0_, symObjAddr: 0x1EB0, symBinAddr: 0x100004AA0, symSize: 0x60 }
  - { offsetInCU: 0xAC91F, offset: 0xAC91F, size: 0x8, addend: 0x0, symName: __ZNSt3__14pairIKNS_12basic_stringIcNS_11char_traitsIcEENS_9allocatorIcEEEES6_EC2B7v160006IRA4_KcRA15_SA_LPv0EEEOT_OT0_, symObjAddr: 0x1F10, symBinAddr: 0x100004B00, symSize: 0x60 }
  - { offsetInCU: 0xAC97F, offset: 0xAC97F, size: 0x8, addend: 0x0, symName: __ZNSt3__14pairIKNS_12basic_stringIcNS_11char_traitsIcEENS_9allocatorIcEEEES6_EC2B7v160006IRA6_KcRA11_SA_LPv0EEEOT_OT0_, symObjAddr: 0x1F70, symBinAddr: 0x100004B60, symSize: 0x60 }
  - { offsetInCU: 0xAC9DF, offset: 0xAC9DF, size: 0x8, addend: 0x0, symName: __ZNSt3__14pairIKNS_12basic_stringIcNS_11char_traitsIcEENS_9allocatorIcEEEES6_EC2B7v160006IRA4_KcRA25_SA_LPv0EEEOT_OT0_, symObjAddr: 0x1FD0, symBinAddr: 0x100004BC0, symSize: 0x60 }
  - { offsetInCU: 0xACA3F, offset: 0xACA3F, size: 0x8, addend: 0x0, symName: __ZNSt3__14pairIKNS_12basic_stringIcNS_11char_traitsIcEENS_9allocatorIcEEEES6_EC2B7v160006IRA5_KcRA17_SA_LPv0EEEOT_OT0_, symObjAddr: 0x2030, symBinAddr: 0x100004C20, symSize: 0x60 }
  - { offsetInCU: 0xACA9F, offset: 0xACA9F, size: 0x8, addend: 0x0, symName: __ZNSt3__14pairIKNS_12basic_stringIcNS_11char_traitsIcEENS_9allocatorIcEEEES6_EC2B7v160006IRA4_KcRA19_SA_LPv0EEEOT_OT0_, symObjAddr: 0x2090, symBinAddr: 0x100004C80, symSize: 0x60 }
  - { offsetInCU: 0xACAFF, offset: 0xACAFF, size: 0x8, addend: 0x0, symName: __ZNSt3__14pairIKNS_12basic_stringIcNS_11char_traitsIcEENS_9allocatorIcEEEES6_EC2B7v160006IRA4_KcRA16_SA_LPv0EEEOT_OT0_, symObjAddr: 0x20F0, symBinAddr: 0x100004CE0, symSize: 0x60 }
  - { offsetInCU: 0xACB5F, offset: 0xACB5F, size: 0x8, addend: 0x0, symName: __ZNSt3__14pairIKNS_12basic_stringIcNS_11char_traitsIcEENS_9allocatorIcEEEES6_EC2B7v160006IRA4_KcRA23_SA_LPv0EEEOT_OT0_, symObjAddr: 0x2150, symBinAddr: 0x100004D40, symSize: 0x60 }
  - { offsetInCU: 0xACBBF, offset: 0xACBBF, size: 0x8, addend: 0x0, symName: __ZNSt3__14pairIKNS_12basic_stringIcNS_11char_traitsIcEENS_9allocatorIcEEEES6_EC2B7v160006IRA5_KcRA30_SA_LPv0EEEOT_OT0_, symObjAddr: 0x21B0, symBinAddr: 0x100004DA0, symSize: 0x60 }
  - { offsetInCU: 0xACC1F, offset: 0xACC1F, size: 0x8, addend: 0x0, symName: __ZNSt3__14pairIKNS_12basic_stringIcNS_11char_traitsIcEENS_9allocatorIcEEEES6_EC2B7v160006IRA4_KcRA37_SA_LPv0EEEOT_OT0_, symObjAddr: 0x2210, symBinAddr: 0x100004E00, symSize: 0x60 }
  - { offsetInCU: 0xACC7F, offset: 0xACC7F, size: 0x8, addend: 0x0, symName: __ZNSt3__14pairIKNS_12basic_stringIcNS_11char_traitsIcEENS_9allocatorIcEEEES6_EC2B7v160006IRA4_KcRA30_SA_LPv0EEEOT_OT0_, symObjAddr: 0x2270, symBinAddr: 0x100004E60, symSize: 0x60 }
  - { offsetInCU: 0xACCDF, offset: 0xACCDF, size: 0x8, addend: 0x0, symName: __ZNSt3__14pairIKNS_12basic_stringIcNS_11char_traitsIcEENS_9allocatorIcEEEES6_EC2B7v160006IRA4_KcRA44_SA_LPv0EEEOT_OT0_, symObjAddr: 0x22D0, symBinAddr: 0x100004EC0, symSize: 0x60 }
  - { offsetInCU: 0xACD3F, offset: 0xACD3F, size: 0x8, addend: 0x0, symName: __ZNSt3__14pairIKNS_12basic_stringIcNS_11char_traitsIcEENS_9allocatorIcEEEES6_EC2B7v160006IRA4_KcRA48_SA_LPv0EEEOT_OT0_, symObjAddr: 0x2330, symBinAddr: 0x100004F20, symSize: 0x60 }
  - { offsetInCU: 0xACD9F, offset: 0xACD9F, size: 0x8, addend: 0x0, symName: __ZNSt3__14pairIKNS_12basic_stringIcNS_11char_traitsIcEENS_9allocatorIcEEEES6_EC2B7v160006IRA4_KcRA47_SA_LPv0EEEOT_OT0_, symObjAddr: 0x2390, symBinAddr: 0x100004F80, symSize: 0x60 }
  - { offsetInCU: 0xACDFF, offset: 0xACDFF, size: 0x8, addend: 0x0, symName: __ZNSt3__14pairIKNS_12basic_stringIcNS_11char_traitsIcEENS_9allocatorIcEEEES6_EC2B7v160006IRA4_KcRA40_SA_LPv0EEEOT_OT0_, symObjAddr: 0x23F0, symBinAddr: 0x100004FE0, symSize: 0x60 }
  - { offsetInCU: 0xACE5F, offset: 0xACE5F, size: 0x8, addend: 0x0, symName: __ZNSt3__14pairIKNS_12basic_stringIcNS_11char_traitsIcEENS_9allocatorIcEEEES6_EC2B7v160006IRA5_KcRA74_SA_LPv0EEEOT_OT0_, symObjAddr: 0x2450, symBinAddr: 0x100005040, symSize: 0x60 }
  - { offsetInCU: 0xACEBF, offset: 0xACEBF, size: 0x8, addend: 0x0, symName: __ZNSt3__14pairIKNS_12basic_stringIcNS_11char_traitsIcEENS_9allocatorIcEEEES6_EC2B7v160006IRA5_KcRA66_SA_LPv0EEEOT_OT0_, symObjAddr: 0x24B0, symBinAddr: 0x1000050A0, symSize: 0x60 }
  - { offsetInCU: 0xACF1F, offset: 0xACF1F, size: 0x8, addend: 0x0, symName: __ZNSt3__14pairIKNS_12basic_stringIcNS_11char_traitsIcEENS_9allocatorIcEEEES6_EC2B7v160006IRA5_KcRA72_SA_LPv0EEEOT_OT0_, symObjAddr: 0x2510, symBinAddr: 0x100005100, symSize: 0x60 }
  - { offsetInCU: 0xACF7F, offset: 0xACF7F, size: 0x8, addend: 0x0, symName: __ZNSt3__14pairIKNS_12basic_stringIcNS_11char_traitsIcEENS_9allocatorIcEEEES6_EC2B7v160006IRA5_KcRA25_SA_LPv0EEEOT_OT0_, symObjAddr: 0x2570, symBinAddr: 0x100005160, symSize: 0x60 }
  - { offsetInCU: 0xACFDF, offset: 0xACFDF, size: 0x8, addend: 0x0, symName: __ZNSt3__14pairIKNS_12basic_stringIcNS_11char_traitsIcEENS_9allocatorIcEEEES6_EC2B7v160006IRA3_KcRA28_SA_LPv0EEEOT_OT0_, symObjAddr: 0x25D0, symBinAddr: 0x1000051C0, symSize: 0x60 }
  - { offsetInCU: 0xAD03F, offset: 0xAD03F, size: 0x8, addend: 0x0, symName: __ZNSt3__14pairIKNS_12basic_stringIcNS_11char_traitsIcEENS_9allocatorIcEEEES6_EC2B7v160006IRA8_KcRA32_SA_LPv0EEEOT_OT0_, symObjAddr: 0x2630, symBinAddr: 0x100005220, symSize: 0x60 }
  - { offsetInCU: 0xAD09F, offset: 0xAD09F, size: 0x8, addend: 0x0, symName: __ZNSt3__14pairIKNS_12basic_stringIcNS_11char_traitsIcEENS_9allocatorIcEEEES6_EC2B7v160006IRA5_KcRA29_SA_LPv0EEEOT_OT0_, symObjAddr: 0x2690, symBinAddr: 0x100005280, symSize: 0x60 }
  - { offsetInCU: 0xAD0FF, offset: 0xAD0FF, size: 0x8, addend: 0x0, symName: __ZNSt3__14pairIKNS_12basic_stringIcNS_11char_traitsIcEENS_9allocatorIcEEEES6_EC2B7v160006IRA3_KcRA19_SA_LPv0EEEOT_OT0_, symObjAddr: 0x26F0, symBinAddr: 0x1000052E0, symSize: 0x60 }
  - { offsetInCU: 0xAD15F, offset: 0xAD15F, size: 0x8, addend: 0x0, symName: __ZNSt3__14pairIKNS_12basic_stringIcNS_11char_traitsIcEENS_9allocatorIcEEEES6_EC2B7v160006IRA4_KcRA29_SA_LPv0EEEOT_OT0_, symObjAddr: 0x2750, symBinAddr: 0x100005340, symSize: 0x60 }
  - { offsetInCU: 0xAD1BF, offset: 0xAD1BF, size: 0x8, addend: 0x0, symName: __ZNSt3__14pairIKNS_12basic_stringIcNS_11char_traitsIcEENS_9allocatorIcEEEES6_EC2B7v160006IRA4_KcRA18_SA_LPv0EEEOT_OT0_, symObjAddr: 0x27B0, symBinAddr: 0x1000053A0, symSize: 0x60 }
  - { offsetInCU: 0xAD21F, offset: 0xAD21F, size: 0x8, addend: 0x0, symName: __ZNSt3__14pairIKNS_12basic_stringIcNS_11char_traitsIcEENS_9allocatorIcEEEES6_EC2B7v160006IRA4_KcRA22_SA_LPv0EEEOT_OT0_, symObjAddr: 0x2810, symBinAddr: 0x100005400, symSize: 0x60 }
  - { offsetInCU: 0xAD27F, offset: 0xAD27F, size: 0x8, addend: 0x0, symName: __ZNSt3__14pairIKNS_12basic_stringIcNS_11char_traitsIcEENS_9allocatorIcEEEES6_EC2B7v160006IRA3_KcRA18_SA_LPv0EEEOT_OT0_, symObjAddr: 0x2870, symBinAddr: 0x100005460, symSize: 0x60 }
  - { offsetInCU: 0xAD2DF, offset: 0xAD2DF, size: 0x8, addend: 0x0, symName: __ZNSt3__14pairIKNS_12basic_stringIcNS_11char_traitsIcEENS_9allocatorIcEEEES6_EC2B7v160006IRA4_KcRA27_SA_LPv0EEEOT_OT0_, symObjAddr: 0x28D0, symBinAddr: 0x1000054C0, symSize: 0x60 }
  - { offsetInCU: 0xAD33F, offset: 0xAD33F, size: 0x8, addend: 0x0, symName: __ZNSt3__14pairIKNS_12basic_stringIcNS_11char_traitsIcEENS_9allocatorIcEEEES6_EC2B7v160006IRA4_KcRA24_SA_LPv0EEEOT_OT0_, symObjAddr: 0x2930, symBinAddr: 0x100005520, symSize: 0x60 }
  - { offsetInCU: 0xAD39F, offset: 0xAD39F, size: 0x8, addend: 0x0, symName: __ZNSt3__14pairIKNS_12basic_stringIcNS_11char_traitsIcEENS_9allocatorIcEEEES6_EC2B7v160006IRA6_KcRA22_SA_LPv0EEEOT_OT0_, symObjAddr: 0x2990, symBinAddr: 0x100005580, symSize: 0x60 }
  - { offsetInCU: 0xAD3FF, offset: 0xAD3FF, size: 0x8, addend: 0x0, symName: __ZNSt3__14pairIKNS_12basic_stringIcNS_11char_traitsIcEENS_9allocatorIcEEEES6_EC2B7v160006IRA3_KcRA11_SA_LPv0EEEOT_OT0_, symObjAddr: 0x29F0, symBinAddr: 0x1000055E0, symSize: 0x60 }
  - { offsetInCU: 0xAD45F, offset: 0xAD45F, size: 0x8, addend: 0x0, symName: __ZNSt3__14pairIKNS_12basic_stringIcNS_11char_traitsIcEENS_9allocatorIcEEEES6_ED2Ev, symObjAddr: 0x2A50, symBinAddr: 0x100005640, symSize: 0x30 }
  - { offsetInCU: 0xAD491, offset: 0xAD491, size: 0x8, addend: 0x0, symName: __ZN4asio6detail15system_categoryD1Ev, symObjAddr: 0x2AE0, symBinAddr: 0x1000056D0, symSize: 0x20 }
  - { offsetInCU: 0xAD4BD, offset: 0xAD4BD, size: 0x8, addend: 0x0, symName: __ZN4asio6detail15system_categoryD0Ev, symObjAddr: 0x2B00, symBinAddr: 0x1000056F0, symSize: 0x30 }
  - { offsetInCU: 0xAD4E9, offset: 0xAD4E9, size: 0x8, addend: 0x0, symName: __ZNK4asio6detail15system_category4nameEv, symObjAddr: 0x2B30, symBinAddr: 0x100005720, symSize: 0x20 }
  - { offsetInCU: 0xAD50F, offset: 0xAD50F, size: 0x8, addend: 0x0, symName: __ZNK4asio6detail15system_category7messageEi, symObjAddr: 0x2B50, symBinAddr: 0x100005740, symSize: 0xE0 }
  - { offsetInCU: 0xAD55E, offset: 0xAD55E, size: 0x8, addend: 0x0, symName: __ZN4asio6detail15system_categoryD2Ev, symObjAddr: 0x2C30, symBinAddr: 0x100005820, symSize: 0x20 }
  - { offsetInCU: 0xAD58A, offset: 0xAD58A, size: 0x8, addend: 0x0, symName: __ZN4asio6detail15system_category15strerror_resultEiPKc, symObjAddr: 0x2C50, symBinAddr: 0x100005840, symSize: 0x20 }
  - { offsetInCU: 0xAD5BF, offset: 0xAD5BF, size: 0x8, addend: 0x0, symName: __ZN4asio5error6detail14netdb_categoryD1Ev, symObjAddr: 0x2C70, symBinAddr: 0x100005860, symSize: 0x20 }
  - { offsetInCU: 0xAD5EB, offset: 0xAD5EB, size: 0x8, addend: 0x0, symName: __ZN4asio5error6detail14netdb_categoryD0Ev, symObjAddr: 0x2C90, symBinAddr: 0x100005880, symSize: 0x30 }
  - { offsetInCU: 0xAD617, offset: 0xAD617, size: 0x8, addend: 0x0, symName: __ZNK4asio5error6detail14netdb_category4nameEv, symObjAddr: 0x2CC0, symBinAddr: 0x1000058B0, symSize: 0x20 }
  - { offsetInCU: 0xAD63D, offset: 0xAD63D, size: 0x8, addend: 0x0, symName: __ZNK4asio5error6detail14netdb_category7messageEi, symObjAddr: 0x2CE0, symBinAddr: 0x1000058D0, symSize: 0xC0 }
  - { offsetInCU: 0xAD672, offset: 0xAD672, size: 0x8, addend: 0x0, symName: __ZN4asio5error6detail14netdb_categoryD2Ev, symObjAddr: 0x2DA0, symBinAddr: 0x100005990, symSize: 0x20 }
  - { offsetInCU: 0xAD6A4, offset: 0xAD6A4, size: 0x8, addend: 0x0, symName: __ZN4asio5error6detail17addrinfo_categoryD1Ev, symObjAddr: 0x2DC0, symBinAddr: 0x1000059B0, symSize: 0x20 }
  - { offsetInCU: 0xAD6D0, offset: 0xAD6D0, size: 0x8, addend: 0x0, symName: __ZN4asio5error6detail17addrinfo_categoryD0Ev, symObjAddr: 0x2DE0, symBinAddr: 0x1000059D0, symSize: 0x30 }
  - { offsetInCU: 0xAD6FC, offset: 0xAD6FC, size: 0x8, addend: 0x0, symName: __ZNK4asio5error6detail17addrinfo_category4nameEv, symObjAddr: 0x2E10, symBinAddr: 0x100005A00, symSize: 0x20 }
  - { offsetInCU: 0xAD722, offset: 0xAD722, size: 0x8, addend: 0x0, symName: __ZNK4asio5error6detail17addrinfo_category7messageEi, symObjAddr: 0x2E30, symBinAddr: 0x100005A20, symSize: 0x80 }
  - { offsetInCU: 0xAD757, offset: 0xAD757, size: 0x8, addend: 0x0, symName: __ZN4asio5error6detail17addrinfo_categoryD2Ev, symObjAddr: 0x2EB0, symBinAddr: 0x100005AA0, symSize: 0x20 }
  - { offsetInCU: 0xAD789, offset: 0xAD789, size: 0x8, addend: 0x0, symName: __ZN4asio5error6detail13misc_categoryD1Ev, symObjAddr: 0x2ED0, symBinAddr: 0x100005AC0, symSize: 0x20 }
  - { offsetInCU: 0xAD7B5, offset: 0xAD7B5, size: 0x8, addend: 0x0, symName: __ZN4asio5error6detail13misc_categoryD0Ev, symObjAddr: 0x2EF0, symBinAddr: 0x100005AE0, symSize: 0x30 }
  - { offsetInCU: 0xAD7E1, offset: 0xAD7E1, size: 0x8, addend: 0x0, symName: __ZNK4asio5error6detail13misc_category4nameEv, symObjAddr: 0x2F20, symBinAddr: 0x100005B10, symSize: 0x20 }
  - { offsetInCU: 0xAD807, offset: 0xAD807, size: 0x8, addend: 0x0, symName: __ZNK4asio5error6detail13misc_category7messageEi, symObjAddr: 0x2F40, symBinAddr: 0x100005B30, symSize: 0xC0 }
  - { offsetInCU: 0xAD83C, offset: 0xAD83C, size: 0x8, addend: 0x0, symName: __ZN4asio5error6detail13misc_categoryD2Ev, symObjAddr: 0x3000, symBinAddr: 0x100005BF0, symSize: 0x20 }
  - { offsetInCU: 0xAD868, offset: 0xAD868, size: 0x8, addend: 0x0, symName: __ZN8DatabaseC2Ev, symObjAddr: 0x3020, symBinAddr: 0x100005C10, symSize: 0x80 }
  - { offsetInCU: 0xAD892, offset: 0xAD892, size: 0x8, addend: 0x0, symName: __ZNSt3__15queueINS_10unique_ptrIN4pqxx10connectionENS_14default_deleteIS3_EEEENS_5dequeIS6_NS_9allocatorIS6_EEEEEC1B7v160006Ev, symObjAddr: 0x30A0, symBinAddr: 0x100005C90, symSize: 0x20 }
  - { offsetInCU: 0xAD8BC, offset: 0xAD8BC, size: 0x8, addend: 0x0, symName: __ZNSt3__15mutexC1B7v160006Ev, symObjAddr: 0x30C0, symBinAddr: 0x100005CB0, symSize: 0x20 }
  - { offsetInCU: 0xAD8E6, offset: 0xAD8E6, size: 0x8, addend: 0x0, symName: __ZNSt3__15queueINS_10unique_ptrIN4pqxx10connectionENS_14default_deleteIS3_EEEENS_5dequeIS6_NS_9allocatorIS6_EEEEED1Ev, symObjAddr: 0x30E0, symBinAddr: 0x100005CD0, symSize: 0x20 }
  - { offsetInCU: 0xAD914, offset: 0xAD914, size: 0x8, addend: 0x0, symName: __ZNSt3__15queueINS_10unique_ptrIN4pqxx10connectionENS_14default_deleteIS3_EEEENS_5dequeIS6_NS_9allocatorIS6_EEEEEC2B7v160006Ev, symObjAddr: 0x3100, symBinAddr: 0x100005CF0, symSize: 0x20 }
  - { offsetInCU: 0xAD93E, offset: 0xAD93E, size: 0x8, addend: 0x0, symName: __ZNSt3__15dequeINS_10unique_ptrIN4pqxx10connectionENS_14default_deleteIS3_EEEENS_9allocatorIS6_EEEC1B7v160006Ev, symObjAddr: 0x3120, symBinAddr: 0x100005D10, symSize: 0x20 }
  - { offsetInCU: 0xAD968, offset: 0xAD968, size: 0x8, addend: 0x0, symName: __ZNSt3__15dequeINS_10unique_ptrIN4pqxx10connectionENS_14default_deleteIS3_EEEENS_9allocatorIS6_EEEC2B7v160006Ev, symObjAddr: 0x3140, symBinAddr: 0x100005D30, symSize: 0x50 }
  - { offsetInCU: 0xAD992, offset: 0xAD992, size: 0x8, addend: 0x0, symName: __ZNSt3__114__split_bufferIPNS_10unique_ptrIN4pqxx10connectionENS_14default_deleteIS3_EEEENS_9allocatorIS7_EEEC1Ev, symObjAddr: 0x3190, symBinAddr: 0x100005D80, symSize: 0x20 }
  - { offsetInCU: 0xAD9C4, offset: 0xAD9C4, size: 0x8, addend: 0x0, symName: __ZNSt3__117__compressed_pairImNS_9allocatorINS_10unique_ptrIN4pqxx10connectionENS_14default_deleteIS4_EEEEEEEC1B7v160006IiNS_18__default_init_tagEEEOT_OT0_, symObjAddr: 0x31B0, symBinAddr: 0x100005DA0, symSize: 0x30 }
  - { offsetInCU: 0xADA1E, offset: 0xADA1E, size: 0x8, addend: 0x0, symName: __ZNSt3__114__split_bufferIPNS_10unique_ptrIN4pqxx10connectionENS_14default_deleteIS3_EEEENS_9allocatorIS7_EEEC2Ev, symObjAddr: 0x31E0, symBinAddr: 0x100005DD0, symSize: 0x60 }
  - { offsetInCU: 0xADA50, offset: 0xADA50, size: 0x8, addend: 0x0, symName: __ZNSt3__117__compressed_pairIPPNS_10unique_ptrIN4pqxx10connectionENS_14default_deleteIS3_EEEENS_9allocatorIS7_EEEC1B7v160006IDnNS_18__default_init_tagEEEOT_OT0_, symObjAddr: 0x3240, symBinAddr: 0x100005E30, symSize: 0x30 }
  - { offsetInCU: 0xADAAA, offset: 0xADAAA, size: 0x8, addend: 0x0, symName: __ZNSt3__117__compressed_pairIPPNS_10unique_ptrIN4pqxx10connectionENS_14default_deleteIS3_EEEENS_9allocatorIS7_EEEC2B7v160006IDnNS_18__default_init_tagEEEOT_OT0_, symObjAddr: 0x3270, symBinAddr: 0x100005E60, symSize: 0x40 }
  - { offsetInCU: 0xADB04, offset: 0xADB04, size: 0x8, addend: 0x0, symName: __ZNSt3__122__compressed_pair_elemIPPNS_10unique_ptrIN4pqxx10connectionENS_14default_deleteIS3_EEEELi0ELb0EEC2B7v160006IDnvEEOT_, symObjAddr: 0x32B0, symBinAddr: 0x100005EA0, symSize: 0x20 }
  - { offsetInCU: 0xADB47, offset: 0xADB47, size: 0x8, addend: 0x0, symName: __ZNSt3__122__compressed_pair_elemINS_9allocatorIPNS_10unique_ptrIN4pqxx10connectionENS_14default_deleteIS4_EEEEEELi1ELb1EEC2B7v160006ENS_18__default_init_tagE, symObjAddr: 0x32D0, symBinAddr: 0x100005EC0, symSize: 0x20 }
  - { offsetInCU: 0xADB7C, offset: 0xADB7C, size: 0x8, addend: 0x0, symName: __ZNSt3__19allocatorIPNS_10unique_ptrIN4pqxx10connectionENS_14default_deleteIS3_EEEEEC2B7v160006Ev, symObjAddr: 0x32F0, symBinAddr: 0x100005EE0, symSize: 0x20 }
  - { offsetInCU: 0xADBA6, offset: 0xADBA6, size: 0x8, addend: 0x0, symName: __ZNSt3__116__non_trivial_ifILb1ENS_9allocatorIPNS_10unique_ptrIN4pqxx10connectionENS_14default_deleteIS4_EEEEEEEC2B7v160006Ev, symObjAddr: 0x3310, symBinAddr: 0x100005F00, symSize: 0x10 }
  - { offsetInCU: 0xADBD0, offset: 0xADBD0, size: 0x8, addend: 0x0, symName: __ZNSt3__117__compressed_pairImNS_9allocatorINS_10unique_ptrIN4pqxx10connectionENS_14default_deleteIS4_EEEEEEEC2B7v160006IiNS_18__default_init_tagEEEOT_OT0_, symObjAddr: 0x3320, symBinAddr: 0x100005F10, symSize: 0x40 }
  - { offsetInCU: 0xADC2A, offset: 0xADC2A, size: 0x8, addend: 0x0, symName: __ZNSt3__122__compressed_pair_elemImLi0ELb0EEC2B7v160006IivEEOT_, symObjAddr: 0x3360, symBinAddr: 0x100005F50, symSize: 0x20 }
  - { offsetInCU: 0xADC6D, offset: 0xADC6D, size: 0x8, addend: 0x0, symName: __ZNSt3__122__compressed_pair_elemINS_9allocatorINS_10unique_ptrIN4pqxx10connectionENS_14default_deleteIS4_EEEEEELi1ELb1EEC2B7v160006ENS_18__default_init_tagE, symObjAddr: 0x3380, symBinAddr: 0x100005F70, symSize: 0x20 }
  - { offsetInCU: 0xADCA2, offset: 0xADCA2, size: 0x8, addend: 0x0, symName: __ZNSt3__19allocatorINS_10unique_ptrIN4pqxx10connectionENS_14default_deleteIS3_EEEEEC2B7v160006Ev, symObjAddr: 0x33A0, symBinAddr: 0x100005F90, symSize: 0x20 }
  - { offsetInCU: 0xADCCC, offset: 0xADCCC, size: 0x8, addend: 0x0, symName: __ZNSt3__116__non_trivial_ifILb1ENS_9allocatorINS_10unique_ptrIN4pqxx10connectionENS_14default_deleteIS4_EEEEEEEC2B7v160006Ev, symObjAddr: 0x33C0, symBinAddr: 0x100005FB0, symSize: 0x10 }
  - { offsetInCU: 0xADCF6, offset: 0xADCF6, size: 0x8, addend: 0x0, symName: __ZNSt3__15mutexC2B7v160006Ev, symObjAddr: 0x33D0, symBinAddr: 0x100005FC0, symSize: 0x30 }
  - { offsetInCU: 0xADD20, offset: 0xADD20, size: 0x8, addend: 0x0, symName: __ZNSt3__15queueINS_10unique_ptrIN4pqxx10connectionENS_14default_deleteIS3_EEEENS_5dequeIS6_NS_9allocatorIS6_EEEEED2Ev, symObjAddr: 0x3400, symBinAddr: 0x100005FF0, symSize: 0x20 }
  - { offsetInCU: 0xADD4E, offset: 0xADD4E, size: 0x8, addend: 0x0, symName: __ZNSt3__15dequeINS_10unique_ptrIN4pqxx10connectionENS_14default_deleteIS3_EEEENS_9allocatorIS6_EEED1B7v160006Ev, symObjAddr: 0x3420, symBinAddr: 0x100006010, symSize: 0x20 }
  - { offsetInCU: 0xADD78, offset: 0xADD78, size: 0x8, addend: 0x0, symName: __ZNSt3__15dequeINS_10unique_ptrIN4pqxx10connectionENS_14default_deleteIS3_EEEENS_9allocatorIS6_EEED2B7v160006Ev, symObjAddr: 0x3440, symBinAddr: 0x100006030, symSize: 0x80 }
  - { offsetInCU: 0xADDD2, offset: 0xADDD2, size: 0x8, addend: 0x0, symName: __ZNSt3__15dequeINS_10unique_ptrIN4pqxx10connectionENS_14default_deleteIS3_EEEENS_9allocatorIS6_EEE5clearEv, symObjAddr: 0x34C0, symBinAddr: 0x1000060B0, symSize: 0x180 }
  - { offsetInCU: 0xADE34, offset: 0xADE34, size: 0x8, addend: 0x0, symName: __ZNSt3__114__split_bufferIPNS_10unique_ptrIN4pqxx10connectionENS_14default_deleteIS3_EEEENS_9allocatorIS7_EEE5beginB7v160006Ev, symObjAddr: 0x3640, symBinAddr: 0x100006230, symSize: 0x20 }
  - { offsetInCU: 0xADE5A, offset: 0xADE5A, size: 0x8, addend: 0x0, symName: __ZNSt3__114__split_bufferIPNS_10unique_ptrIN4pqxx10connectionENS_14default_deleteIS3_EEEENS_9allocatorIS7_EEE3endB7v160006Ev, symObjAddr: 0x3660, symBinAddr: 0x100006250, symSize: 0x20 }
  - { offsetInCU: 0xADE80, offset: 0xADE80, size: 0x8, addend: 0x0, symName: __ZNSt3__116allocator_traitsINS_9allocatorINS_10unique_ptrIN4pqxx10connectionENS_14default_deleteIS4_EEEEEEE10deallocateB7v160006ERS8_PS7_m, symObjAddr: 0x3680, symBinAddr: 0x100006270, symSize: 0x30 }
  - { offsetInCU: 0xADEC2, offset: 0xADEC2, size: 0x8, addend: 0x0, symName: __ZNSt3__15dequeINS_10unique_ptrIN4pqxx10connectionENS_14default_deleteIS3_EEEENS_9allocatorIS6_EEE7__allocB7v160006Ev, symObjAddr: 0x36B0, symBinAddr: 0x1000062A0, symSize: 0x20 }
  - { offsetInCU: 0xADEE8, offset: 0xADEE8, size: 0x8, addend: 0x0, symName: __ZNSt3__114__split_bufferIPNS_10unique_ptrIN4pqxx10connectionENS_14default_deleteIS3_EEEENS_9allocatorIS7_EEED1Ev, symObjAddr: 0x36D0, symBinAddr: 0x1000062C0, symSize: 0x20 }
  - { offsetInCU: 0xADF14, offset: 0xADF14, size: 0x8, addend: 0x0, symName: __ZNSt3__15dequeINS_10unique_ptrIN4pqxx10connectionENS_14default_deleteIS3_EEEENS_9allocatorIS6_EEE5beginB7v160006Ev, symObjAddr: 0x36F0, symBinAddr: 0x1000062E0, symSize: 0xB0 }
  - { offsetInCU: 0xADF4B, offset: 0xADF4B, size: 0x8, addend: 0x0, symName: __ZNSt3__15dequeINS_10unique_ptrIN4pqxx10connectionENS_14default_deleteIS3_EEEENS_9allocatorIS6_EEE3endB7v160006Ev, symObjAddr: 0x37A0, symBinAddr: 0x100006390, symSize: 0xB0 }
  - { offsetInCU: 0xADF93, offset: 0xADF93, size: 0x8, addend: 0x0, symName: __ZNSt3__116allocator_traitsINS_9allocatorINS_10unique_ptrIN4pqxx10connectionENS_14default_deleteIS4_EEEEEEE7destroyB7v160006IS7_vEEvRS8_PT_, symObjAddr: 0x3880, symBinAddr: 0x100006470, symSize: 0x30 }
  - { offsetInCU: 0xADFD0, offset: 0xADFD0, size: 0x8, addend: 0x0, symName: __ZNKSt3__116__deque_iteratorINS_10unique_ptrIN4pqxx10connectionENS_14default_deleteIS3_EEEEPS6_RS6_PS7_lLl512EEdeB7v160006Ev, symObjAddr: 0x38B0, symBinAddr: 0x1000064A0, symSize: 0x20 }
  - { offsetInCU: 0xADFF6, offset: 0xADFF6, size: 0x8, addend: 0x0, symName: __ZNSt3__116__deque_iteratorINS_10unique_ptrIN4pqxx10connectionENS_14default_deleteIS3_EEEEPS6_RS6_PS7_lLl512EEppB7v160006Ev, symObjAddr: 0x38D0, symBinAddr: 0x1000064C0, symSize: 0x60 }
  - { offsetInCU: 0xAE01C, offset: 0xAE01C, size: 0x8, addend: 0x0, symName: __ZNSt3__15dequeINS_10unique_ptrIN4pqxx10connectionENS_14default_deleteIS3_EEEENS_9allocatorIS6_EEE6__sizeB7v160006Ev, symObjAddr: 0x3930, symBinAddr: 0x100006520, symSize: 0x20 }
  - { offsetInCU: 0xAE042, offset: 0xAE042, size: 0x8, addend: 0x0, symName: __ZNKSt3__114__split_bufferIPNS_10unique_ptrIN4pqxx10connectionENS_14default_deleteIS3_EEEENS_9allocatorIS7_EEE4sizeB7v160006Ev, symObjAddr: 0x3950, symBinAddr: 0x100006540, symSize: 0x20 }
  - { offsetInCU: 0xAE068, offset: 0xAE068, size: 0x8, addend: 0x0, symName: __ZNSt3__114__split_bufferIPNS_10unique_ptrIN4pqxx10connectionENS_14default_deleteIS3_EEEENS_9allocatorIS7_EEE5frontB7v160006Ev, symObjAddr: 0x3970, symBinAddr: 0x100006560, symSize: 0x20 }
  - { offsetInCU: 0xAE08E, offset: 0xAE08E, size: 0x8, addend: 0x0, symName: __ZNSt3__114__split_bufferIPNS_10unique_ptrIN4pqxx10connectionENS_14default_deleteIS3_EEEENS_9allocatorIS7_EEE9pop_frontB7v160006Ev, symObjAddr: 0x3990, symBinAddr: 0x100006580, symSize: 0x30 }
  - { offsetInCU: 0xAE0B4, offset: 0xAE0B4, size: 0x8, addend: 0x0, symName: __ZNKSt3__114__split_bufferIPNS_10unique_ptrIN4pqxx10connectionENS_14default_deleteIS3_EEEENS_9allocatorIS7_EEE5emptyB7v160006Ev, symObjAddr: 0x39C0, symBinAddr: 0x1000065B0, symSize: 0x20 }
  - { offsetInCU: 0xAE0DA, offset: 0xAE0DA, size: 0x8, addend: 0x0, symName: __ZNSt3__116__deque_iteratorINS_10unique_ptrIN4pqxx10connectionENS_14default_deleteIS3_EEEEPS6_RS6_PS7_lLl512EEC1B7v160006ES9_S7_, symObjAddr: 0x39E0, symBinAddr: 0x1000065D0, symSize: 0x30 }
  - { offsetInCU: 0xAE126, offset: 0xAE126, size: 0x8, addend: 0x0, symName: __ZNSt3__116__deque_iteratorINS_10unique_ptrIN4pqxx10connectionENS_14default_deleteIS3_EEEEPS6_RS6_PS7_lLl512EEC2B7v160006ES9_S7_, symObjAddr: 0x3A10, symBinAddr: 0x100006600, symSize: 0x30 }
  - { offsetInCU: 0xAE172, offset: 0xAE172, size: 0x8, addend: 0x0, symName: __ZNKSt3__15dequeINS_10unique_ptrIN4pqxx10connectionENS_14default_deleteIS3_EEEENS_9allocatorIS6_EEE4sizeB7v160006Ev, symObjAddr: 0x3A40, symBinAddr: 0x100006630, symSize: 0x20 }
  - { offsetInCU: 0xAE198, offset: 0xAE198, size: 0x8, addend: 0x0, symName: __ZNKSt3__15dequeINS_10unique_ptrIN4pqxx10connectionENS_14default_deleteIS3_EEEENS_9allocatorIS6_EEE6__sizeB7v160006Ev, symObjAddr: 0x3A60, symBinAddr: 0x100006650, symSize: 0x20 }
  - { offsetInCU: 0xAE1BE, offset: 0xAE1BE, size: 0x8, addend: 0x0, symName: __ZNKSt3__117__compressed_pairImNS_9allocatorINS_10unique_ptrIN4pqxx10connectionENS_14default_deleteIS4_EEEEEEE5firstB7v160006Ev, symObjAddr: 0x3A80, symBinAddr: 0x100006670, symSize: 0x20 }
  - { offsetInCU: 0xAE1E4, offset: 0xAE1E4, size: 0x8, addend: 0x0, symName: __ZNKSt3__122__compressed_pair_elemImLi0ELb0EE5__getB7v160006Ev, symObjAddr: 0x3AA0, symBinAddr: 0x100006690, symSize: 0x10 }
  - { offsetInCU: 0xAE20A, offset: 0xAE20A, size: 0x8, addend: 0x0, symName: __ZNSt3__19allocatorINS_10unique_ptrIN4pqxx10connectionENS_14default_deleteIS3_EEEEE7destroyB7v160006EPS6_, symObjAddr: 0x3AE0, symBinAddr: 0x1000066D0, symSize: 0x20 }
  - { offsetInCU: 0xAE23F, offset: 0xAE23F, size: 0x8, addend: 0x0, symName: __ZNSt3__110unique_ptrIN4pqxx10connectionENS_14default_deleteIS2_EEED1B7v160006Ev, symObjAddr: 0x3B00, symBinAddr: 0x1000066F0, symSize: 0x20 }
  - { offsetInCU: 0xAE269, offset: 0xAE269, size: 0x8, addend: 0x0, symName: __ZNSt3__110unique_ptrIN4pqxx10connectionENS_14default_deleteIS2_EEED2B7v160006Ev, symObjAddr: 0x3B20, symBinAddr: 0x100006710, symSize: 0x20 }
  - { offsetInCU: 0xAE293, offset: 0xAE293, size: 0x8, addend: 0x0, symName: __ZNSt3__110unique_ptrIN4pqxx10connectionENS_14default_deleteIS2_EEE5resetB7v160006EPS2_, symObjAddr: 0x3B40, symBinAddr: 0x100006730, symSize: 0x70 }
  - { offsetInCU: 0xAE2D7, offset: 0xAE2D7, size: 0x8, addend: 0x0, symName: __ZNSt3__117__compressed_pairIPN4pqxx10connectionENS_14default_deleteIS2_EEE5firstB7v160006Ev, symObjAddr: 0x3BB0, symBinAddr: 0x1000067A0, symSize: 0x20 }
  - { offsetInCU: 0xAE2FD, offset: 0xAE2FD, size: 0x8, addend: 0x0, symName: __ZNSt3__117__compressed_pairIPN4pqxx10connectionENS_14default_deleteIS2_EEE6secondB7v160006Ev, symObjAddr: 0x3BD0, symBinAddr: 0x1000067C0, symSize: 0x20 }
  - { offsetInCU: 0xAE323, offset: 0xAE323, size: 0x8, addend: 0x0, symName: __ZNKSt3__114default_deleteIN4pqxx10connectionEEclB7v160006EPS2_, symObjAddr: 0x3BF0, symBinAddr: 0x1000067E0, symSize: 0x40 }
  - { offsetInCU: 0xAE358, offset: 0xAE358, size: 0x8, addend: 0x0, symName: __ZNSt3__122__compressed_pair_elemIPN4pqxx10connectionELi0ELb0EE5__getB7v160006Ev, symObjAddr: 0x3C30, symBinAddr: 0x100006820, symSize: 0x10 }
  - { offsetInCU: 0xAE37E, offset: 0xAE37E, size: 0x8, addend: 0x0, symName: __ZNSt3__122__compressed_pair_elemINS_14default_deleteIN4pqxx10connectionEEELi1ELb1EE5__getB7v160006Ev, symObjAddr: 0x3C40, symBinAddr: 0x100006830, symSize: 0x10 }
  - { offsetInCU: 0xAE3A4, offset: 0xAE3A4, size: 0x8, addend: 0x0, symName: __ZN4pqxx10connectionD1Ev, symObjAddr: 0x3C50, symBinAddr: 0x100006840, symSize: 0x20 }
  - { offsetInCU: 0xAE3CE, offset: 0xAE3CE, size: 0x8, addend: 0x0, symName: __ZN4pqxx10connectionD2Ev, symObjAddr: 0x3C70, symBinAddr: 0x100006860, symSize: 0x90 }
  - { offsetInCU: 0xAE40B, offset: 0xAE40B, size: 0x8, addend: 0x0, symName: __ZNSt3__18multimapINS_12basic_stringIcNS_11char_traitsIcEENS_9allocatorIcEEEEPN4pqxx21notification_receiverENS_4lessIS6_EENS4_INS_4pairIKS6_S9_EEEEED1B7v160006Ev, symObjAddr: 0x3D00, symBinAddr: 0x1000068F0, symSize: 0x20 }
  - { offsetInCU: 0xAE435, offset: 0xAE435, size: 0x8, addend: 0x0, symName: __ZNSt3__14listIPN4pqxx12errorhandlerENS_9allocatorIS3_EEED1Ev, symObjAddr: 0x3D20, symBinAddr: 0x100006910, symSize: 0x20 }
  - { offsetInCU: 0xAE462, offset: 0xAE462, size: 0x8, addend: 0x0, symName: __ZNSt3__18multimapINS_12basic_stringIcNS_11char_traitsIcEENS_9allocatorIcEEEEPN4pqxx21notification_receiverENS_4lessIS6_EENS4_INS_4pairIKS6_S9_EEEEED2B7v160006Ev, symObjAddr: 0x3D40, symBinAddr: 0x100006930, symSize: 0x20 }
  - { offsetInCU: 0xAE48C, offset: 0xAE48C, size: 0x8, addend: 0x0, symName: __ZNSt3__16__treeINS_12__value_typeINS_12basic_stringIcNS_11char_traitsIcEENS_9allocatorIcEEEEPN4pqxx21notification_receiverEEENS_19__map_value_compareIS7_SB_NS_4lessIS7_EELb1EEENS5_ISB_EEED1Ev, symObjAddr: 0x3D60, symBinAddr: 0x100006950, symSize: 0x20 }
  - { offsetInCU: 0xAE4B8, offset: 0xAE4B8, size: 0x8, addend: 0x0, symName: __ZNSt3__16__treeINS_12__value_typeINS_12basic_stringIcNS_11char_traitsIcEENS_9allocatorIcEEEEPN4pqxx21notification_receiverEEENS_19__map_value_compareIS7_SB_NS_4lessIS7_EELb1EEENS5_ISB_EEED2Ev, symObjAddr: 0x3D80, symBinAddr: 0x100006970, symSize: 0x30 }
  - { offsetInCU: 0xAE4E4, offset: 0xAE4E4, size: 0x8, addend: 0x0, symName: __ZNSt3__16__treeINS_12__value_typeINS_12basic_stringIcNS_11char_traitsIcEENS_9allocatorIcEEEEPN4pqxx21notification_receiverEEENS_19__map_value_compareIS7_SB_NS_4lessIS7_EELb1EEENS5_ISB_EEE7destroyEPNS_11__tree_nodeISB_PvEE, symObjAddr: 0x3DB0, symBinAddr: 0x1000069A0, symSize: 0xB0 }
  - { offsetInCU: 0xAE531, offset: 0xAE531, size: 0x8, addend: 0x0, symName: __ZNKSt3__16__treeINS_12__value_typeINS_12basic_stringIcNS_11char_traitsIcEENS_9allocatorIcEEEEPN4pqxx21notification_receiverEEENS_19__map_value_compareIS7_SB_NS_4lessIS7_EELb1EEENS5_ISB_EEE6__rootB7v160006Ev, symObjAddr: 0x3E60, symBinAddr: 0x100006A50, symSize: 0x20 }
  - { offsetInCU: 0xAE557, offset: 0xAE557, size: 0x8, addend: 0x0, symName: __ZNSt3__16__treeINS_12__value_typeINS_12basic_stringIcNS_11char_traitsIcEENS_9allocatorIcEEEEPN4pqxx21notification_receiverEEENS_19__map_value_compareIS7_SB_NS_4lessIS7_EELb1EEENS5_ISB_EEE12__node_allocB7v160006Ev, symObjAddr: 0x3E80, symBinAddr: 0x100006A70, symSize: 0x20 }
  - { offsetInCU: 0xAE583, offset: 0xAE583, size: 0x8, addend: 0x0, symName: __ZNSt3__116allocator_traitsINS_9allocatorINS_11__tree_nodeINS_12__value_typeINS_12basic_stringIcNS_11char_traitsIcEENS1_IcEEEEPN4pqxx21notification_receiverEEEPvEEEEE7destroyB7v160006INS_4pairIKS8_SB_EEvvEEvRSF_PT_, symObjAddr: 0x3EA0, symBinAddr: 0x100006A90, symSize: 0x20 }
  - { offsetInCU: 0xAE5BD, offset: 0xAE5BD, size: 0x8, addend: 0x0, symName: __ZNSt3__122__tree_key_value_typesINS_12__value_typeINS_12basic_stringIcNS_11char_traitsIcEENS_9allocatorIcEEEEPN4pqxx21notification_receiverEEEE9__get_ptrB7v160006ERSB_, symObjAddr: 0x3EC0, symBinAddr: 0x100006AB0, symSize: 0x20 }
  - { offsetInCU: 0xAE5E1, offset: 0xAE5E1, size: 0x8, addend: 0x0, symName: __ZNSt3__116allocator_traitsINS_9allocatorINS_11__tree_nodeINS_12__value_typeINS_12basic_stringIcNS_11char_traitsIcEENS1_IcEEEEPN4pqxx21notification_receiverEEEPvEEEEE10deallocateB7v160006ERSF_PSE_m, symObjAddr: 0x3EE0, symBinAddr: 0x100006AD0, symSize: 0x30 }
  - { offsetInCU: 0xAE623, offset: 0xAE623, size: 0x8, addend: 0x0, symName: __ZNSt3__117__compressed_pairINS_15__tree_end_nodeIPNS_16__tree_node_baseIPvEEEENS_9allocatorINS_11__tree_nodeINS_12__value_typeINS_12basic_stringIcNS_11char_traitsIcEENS7_IcEEEEPN4pqxx21notification_receiverEEES3_EEEEE6secondB7v160006Ev, symObjAddr: 0x3F10, symBinAddr: 0x100006B00, symSize: 0x20 }
  - { offsetInCU: 0xAE649, offset: 0xAE649, size: 0x8, addend: 0x0, symName: __ZNSt3__122__compressed_pair_elemINS_9allocatorINS_11__tree_nodeINS_12__value_typeINS_12basic_stringIcNS_11char_traitsIcEENS1_IcEEEEPN4pqxx21notification_receiverEEEPvEEEELi1ELb1EE5__getB7v160006Ev, symObjAddr: 0x3F30, symBinAddr: 0x100006B20, symSize: 0x10 }
  - { offsetInCU: 0xAE66F, offset: 0xAE66F, size: 0x8, addend: 0x0, symName: __ZNSt3__14pairIKNS_12basic_stringIcNS_11char_traitsIcEENS_9allocatorIcEEEEPN4pqxx21notification_receiverEED1Ev, symObjAddr: 0x3F40, symBinAddr: 0x100006B30, symSize: 0x20 }
  - { offsetInCU: 0xAE69B, offset: 0xAE69B, size: 0x8, addend: 0x0, symName: __ZNSt3__14pairIKNS_12basic_stringIcNS_11char_traitsIcEENS_9allocatorIcEEEEPN4pqxx21notification_receiverEED2Ev, symObjAddr: 0x3F60, symBinAddr: 0x100006B50, symSize: 0x20 }
  - { offsetInCU: 0xAE6C7, offset: 0xAE6C7, size: 0x8, addend: 0x0, symName: __ZNSt3__112__value_typeINS_12basic_stringIcNS_11char_traitsIcEENS_9allocatorIcEEEEPN4pqxx21notification_receiverEE11__get_valueB7v160006Ev, symObjAddr: 0x3F80, symBinAddr: 0x100006B70, symSize: 0x20 }
  - { offsetInCU: 0xAE6ED, offset: 0xAE6ED, size: 0x8, addend: 0x0, symName: __ZNSt3__19allocatorINS_11__tree_nodeINS_12__value_typeINS_12basic_stringIcNS_11char_traitsIcEENS0_IcEEEEPN4pqxx21notification_receiverEEEPvEEE10deallocateB7v160006EPSD_m, symObjAddr: 0x3FD0, symBinAddr: 0x100006BC0, symSize: 0x40 }
  - { offsetInCU: 0xAE731, offset: 0xAE731, size: 0x8, addend: 0x0, symName: __ZNKSt3__16__treeINS_12__value_typeINS_12basic_stringIcNS_11char_traitsIcEENS_9allocatorIcEEEEPN4pqxx21notification_receiverEEENS_19__map_value_compareIS7_SB_NS_4lessIS7_EELb1EEENS5_ISB_EEE10__end_nodeB7v160006Ev, symObjAddr: 0x4130, symBinAddr: 0x100006D20, symSize: 0x30 }
  - { offsetInCU: 0xAE757, offset: 0xAE757, size: 0x8, addend: 0x0, symName: __ZNSt3__114pointer_traitsIPNS_15__tree_end_nodeIPNS_16__tree_node_baseIPvEEEEE10pointer_toB7v160006ERS6_, symObjAddr: 0x4160, symBinAddr: 0x100006D50, symSize: 0x10 }
  - { offsetInCU: 0xAE77B, offset: 0xAE77B, size: 0x8, addend: 0x0, symName: __ZNKSt3__117__compressed_pairINS_15__tree_end_nodeIPNS_16__tree_node_baseIPvEEEENS_9allocatorINS_11__tree_nodeINS_12__value_typeINS_12basic_stringIcNS_11char_traitsIcEENS7_IcEEEEPN4pqxx21notification_receiverEEES3_EEEEE5firstB7v160006Ev, symObjAddr: 0x4170, symBinAddr: 0x100006D60, symSize: 0x20 }
  - { offsetInCU: 0xAE7A1, offset: 0xAE7A1, size: 0x8, addend: 0x0, symName: __ZNKSt3__122__compressed_pair_elemINS_15__tree_end_nodeIPNS_16__tree_node_baseIPvEEEELi0ELb0EE5__getB7v160006Ev, symObjAddr: 0x4190, symBinAddr: 0x100006D80, symSize: 0x10 }
  - { offsetInCU: 0xAE7C7, offset: 0xAE7C7, size: 0x8, addend: 0x0, symName: __ZNSt3__14listIPN4pqxx12errorhandlerENS_9allocatorIS3_EEED2Ev, symObjAddr: 0x41A0, symBinAddr: 0x100006D90, symSize: 0x20 }
  - { offsetInCU: 0xAE7F4, offset: 0xAE7F4, size: 0x8, addend: 0x0, symName: __ZNSt3__110__list_impIPN4pqxx12errorhandlerENS_9allocatorIS3_EEED2Ev, symObjAddr: 0x41C0, symBinAddr: 0x100006DB0, symSize: 0x40 }
  - { offsetInCU: 0xAE820, offset: 0xAE820, size: 0x8, addend: 0x0, symName: __ZNSt3__110__list_impIPN4pqxx12errorhandlerENS_9allocatorIS3_EEE5clearEv, symObjAddr: 0x4200, symBinAddr: 0x100006DF0, symSize: 0xF0 }
  - { offsetInCU: 0xAE892, offset: 0xAE892, size: 0x8, addend: 0x0, symName: __ZNKSt3__110__list_impIPN4pqxx12errorhandlerENS_9allocatorIS3_EEE5emptyB7v160006Ev, symObjAddr: 0x4300, symBinAddr: 0x100006EF0, symSize: 0x30 }
  - { offsetInCU: 0xAE8B8, offset: 0xAE8B8, size: 0x8, addend: 0x0, symName: __ZNSt3__110__list_impIPN4pqxx12errorhandlerENS_9allocatorIS3_EEE12__node_allocB7v160006Ev, symObjAddr: 0x4330, symBinAddr: 0x100006F20, symSize: 0x20 }
  - { offsetInCU: 0xAE8DE, offset: 0xAE8DE, size: 0x8, addend: 0x0, symName: __ZNKSt3__110__list_impIPN4pqxx12errorhandlerENS_9allocatorIS3_EEE13__end_as_linkB7v160006Ev, symObjAddr: 0x4350, symBinAddr: 0x100006F40, symSize: 0x50 }
  - { offsetInCU: 0xAE904, offset: 0xAE904, size: 0x8, addend: 0x0, symName: __ZNSt3__110__list_impIPN4pqxx12errorhandlerENS_9allocatorIS3_EEE14__unlink_nodesEPNS_16__list_node_baseIS3_PvEESA_, symObjAddr: 0x43A0, symBinAddr: 0x100006F90, symSize: 0x40 }
  - { offsetInCU: 0xAE939, offset: 0xAE939, size: 0x8, addend: 0x0, symName: __ZNSt3__110__list_impIPN4pqxx12errorhandlerENS_9allocatorIS3_EEE4__szB7v160006Ev, symObjAddr: 0x43E0, symBinAddr: 0x100006FD0, symSize: 0x20 }
  - { offsetInCU: 0xAE95F, offset: 0xAE95F, size: 0x8, addend: 0x0, symName: __ZNSt3__116__list_node_baseIPN4pqxx12errorhandlerEPvE9__as_nodeB7v160006Ev, symObjAddr: 0x4400, symBinAddr: 0x100006FF0, symSize: 0x20 }
  - { offsetInCU: 0xAE98B, offset: 0xAE98B, size: 0x8, addend: 0x0, symName: __ZNSt3__116allocator_traitsINS_9allocatorINS_11__list_nodeIPN4pqxx12errorhandlerEPvEEEEE7destroyB7v160006IS5_vvEEvRS8_PT_, symObjAddr: 0x4420, symBinAddr: 0x100007010, symSize: 0x10 }
  - { offsetInCU: 0xAE9C5, offset: 0xAE9C5, size: 0x8, addend: 0x0, symName: __ZNSt3__116allocator_traitsINS_9allocatorINS_11__list_nodeIPN4pqxx12errorhandlerEPvEEEEE10deallocateB7v160006ERS8_PS7_m, symObjAddr: 0x4430, symBinAddr: 0x100007020, symSize: 0x30 }
  - { offsetInCU: 0xAEA07, offset: 0xAEA07, size: 0x8, addend: 0x0, symName: __ZNKSt3__110__list_impIPN4pqxx12errorhandlerENS_9allocatorIS3_EEE4__szB7v160006Ev, symObjAddr: 0x4470, symBinAddr: 0x100007060, symSize: 0x20 }
  - { offsetInCU: 0xAEA2D, offset: 0xAEA2D, size: 0x8, addend: 0x0, symName: __ZNKSt3__117__compressed_pairImNS_9allocatorINS_11__list_nodeIPN4pqxx12errorhandlerEPvEEEEE5firstB7v160006Ev, symObjAddr: 0x4490, symBinAddr: 0x100007080, symSize: 0x20 }
  - { offsetInCU: 0xAEA53, offset: 0xAEA53, size: 0x8, addend: 0x0, symName: __ZNSt3__117__compressed_pairImNS_9allocatorINS_11__list_nodeIPN4pqxx12errorhandlerEPvEEEEE6secondB7v160006Ev, symObjAddr: 0x44B0, symBinAddr: 0x1000070A0, symSize: 0x20 }
  - { offsetInCU: 0xAEA79, offset: 0xAEA79, size: 0x8, addend: 0x0, symName: __ZNSt3__122__compressed_pair_elemINS_9allocatorINS_11__list_nodeIPN4pqxx12errorhandlerEPvEEEELi1ELb1EE5__getB7v160006Ev, symObjAddr: 0x44D0, symBinAddr: 0x1000070C0, symSize: 0x10 }
  - { offsetInCU: 0xAEA9F, offset: 0xAEA9F, size: 0x8, addend: 0x0, symName: __ZNSt3__126__list_node_pointer_traitsIPN4pqxx12errorhandlerEPvE26__unsafe_link_pointer_castB7v160006EPNS_16__list_node_baseIS3_S4_EE, symObjAddr: 0x44E0, symBinAddr: 0x1000070D0, symSize: 0x10 }
  - { offsetInCU: 0xAEAC3, offset: 0xAEAC3, size: 0x8, addend: 0x0, symName: __ZNSt3__116__list_node_baseIPN4pqxx12errorhandlerEPvE6__selfB7v160006Ev, symObjAddr: 0x44F0, symBinAddr: 0x1000070E0, symSize: 0x20 }
  - { offsetInCU: 0xAEAEF, offset: 0xAEAEF, size: 0x8, addend: 0x0, symName: __ZNSt3__114pointer_traitsIPNS_16__list_node_baseIPN4pqxx12errorhandlerEPvEEE10pointer_toB7v160006ERS6_, symObjAddr: 0x4510, symBinAddr: 0x100007100, symSize: 0x10 }
  - { offsetInCU: 0xAEB13, offset: 0xAEB13, size: 0x8, addend: 0x0, symName: __ZNSt3__117__compressed_pairImNS_9allocatorINS_11__list_nodeIPN4pqxx12errorhandlerEPvEEEEE5firstB7v160006Ev, symObjAddr: 0x4520, symBinAddr: 0x100007110, symSize: 0x20 }
  - { offsetInCU: 0xAEB39, offset: 0xAEB39, size: 0x8, addend: 0x0, symName: __ZNSt3__122__compressed_pair_elemImLi0ELb0EE5__getB7v160006Ev, symObjAddr: 0x4540, symBinAddr: 0x100007130, symSize: 0x10 }
  - { offsetInCU: 0xAEB5F, offset: 0xAEB5F, size: 0x8, addend: 0x0, symName: __ZNSt3__19allocatorINS_11__list_nodeIPN4pqxx12errorhandlerEPvEEE10deallocateB7v160006EPS6_m, symObjAddr: 0x4550, symBinAddr: 0x100007140, symSize: 0x50 }
  - { offsetInCU: 0xAEBA3, offset: 0xAEBA3, size: 0x8, addend: 0x0, symName: __ZNSt3__117__compressed_pairImNS_9allocatorINS_10unique_ptrIN4pqxx10connectionENS_14default_deleteIS4_EEEEEEE5firstB7v160006Ev, symObjAddr: 0x45A0, symBinAddr: 0x100007190, symSize: 0x20 }
  - { offsetInCU: 0xAEBC9, offset: 0xAEBC9, size: 0x8, addend: 0x0, symName: __ZNSt3__114__split_bufferIPNS_10unique_ptrIN4pqxx10connectionENS_14default_deleteIS3_EEEENS_9allocatorIS7_EEE19__destruct_at_beginB7v160006EPS7_, symObjAddr: 0x45C0, symBinAddr: 0x1000071B0, symSize: 0x30 }
  - { offsetInCU: 0xAEBFE, offset: 0xAEBFE, size: 0x8, addend: 0x0, symName: __ZNSt3__114__split_bufferIPNS_10unique_ptrIN4pqxx10connectionENS_14default_deleteIS3_EEEENS_9allocatorIS7_EEE19__destruct_at_beginEPS7_NS_17integral_constantIbLb1EEE, symObjAddr: 0x45F0, symBinAddr: 0x1000071E0, symSize: 0x20 }
  - { offsetInCU: 0xAEC40, offset: 0xAEC40, size: 0x8, addend: 0x0, symName: __ZNSt3__19allocatorINS_10unique_ptrIN4pqxx10connectionENS_14default_deleteIS3_EEEEE10deallocateB7v160006EPS6_m, symObjAddr: 0x4610, symBinAddr: 0x100007200, symSize: 0x40 }
  - { offsetInCU: 0xAEC84, offset: 0xAEC84, size: 0x8, addend: 0x0, symName: __ZNSt3__117__compressed_pairImNS_9allocatorINS_10unique_ptrIN4pqxx10connectionENS_14default_deleteIS4_EEEEEEE6secondB7v160006Ev, symObjAddr: 0x4650, symBinAddr: 0x100007240, symSize: 0x20 }
  - { offsetInCU: 0xAECAA, offset: 0xAECAA, size: 0x8, addend: 0x0, symName: __ZNSt3__122__compressed_pair_elemINS_9allocatorINS_10unique_ptrIN4pqxx10connectionENS_14default_deleteIS4_EEEEEELi1ELb1EE5__getB7v160006Ev, symObjAddr: 0x4670, symBinAddr: 0x100007260, symSize: 0x10 }
  - { offsetInCU: 0xAECD0, offset: 0xAECD0, size: 0x8, addend: 0x0, symName: __ZNSt3__114__split_bufferIPNS_10unique_ptrIN4pqxx10connectionENS_14default_deleteIS3_EEEENS_9allocatorIS7_EEED2Ev, symObjAddr: 0x4680, symBinAddr: 0x100007270, symSize: 0x70 }
  - { offsetInCU: 0xAECFC, offset: 0xAECFC, size: 0x8, addend: 0x0, symName: __ZNSt3__114__split_bufferIPNS_10unique_ptrIN4pqxx10connectionENS_14default_deleteIS3_EEEENS_9allocatorIS7_EEE5clearB7v160006Ev, symObjAddr: 0x46F0, symBinAddr: 0x1000072E0, symSize: 0x20 }
  - { offsetInCU: 0xAED22, offset: 0xAED22, size: 0x8, addend: 0x0, symName: __ZNSt3__116allocator_traitsINS_9allocatorIPNS_10unique_ptrIN4pqxx10connectionENS_14default_deleteIS4_EEEEEEE10deallocateB7v160006ERS9_PS8_m, symObjAddr: 0x4710, symBinAddr: 0x100007300, symSize: 0x30 }
  - { offsetInCU: 0xAED64, offset: 0xAED64, size: 0x8, addend: 0x0, symName: __ZNSt3__114__split_bufferIPNS_10unique_ptrIN4pqxx10connectionENS_14default_deleteIS3_EEEENS_9allocatorIS7_EEE7__allocB7v160006Ev, symObjAddr: 0x4740, symBinAddr: 0x100007330, symSize: 0x20 }
  - { offsetInCU: 0xAED8A, offset: 0xAED8A, size: 0x8, addend: 0x0, symName: __ZNKSt3__114__split_bufferIPNS_10unique_ptrIN4pqxx10connectionENS_14default_deleteIS3_EEEENS_9allocatorIS7_EEE8capacityB7v160006Ev, symObjAddr: 0x4760, symBinAddr: 0x100007350, symSize: 0x30 }
  - { offsetInCU: 0xAEDB0, offset: 0xAEDB0, size: 0x8, addend: 0x0, symName: __ZNSt3__114__split_bufferIPNS_10unique_ptrIN4pqxx10connectionENS_14default_deleteIS3_EEEENS_9allocatorIS7_EEE17__destruct_at_endB7v160006EPS7_, symObjAddr: 0x4790, symBinAddr: 0x100007380, symSize: 0x30 }
  - { offsetInCU: 0xAEDE5, offset: 0xAEDE5, size: 0x8, addend: 0x0, symName: __ZNSt3__114__split_bufferIPNS_10unique_ptrIN4pqxx10connectionENS_14default_deleteIS3_EEEENS_9allocatorIS7_EEE17__destruct_at_endB7v160006EPS7_NS_17integral_constantIbLb0EEE, symObjAddr: 0x47C0, symBinAddr: 0x1000073B0, symSize: 0x80 }
  - { offsetInCU: 0xAEE27, offset: 0xAEE27, size: 0x8, addend: 0x0, symName: __ZNSt3__116allocator_traitsINS_9allocatorIPNS_10unique_ptrIN4pqxx10connectionENS_14default_deleteIS4_EEEEEEE7destroyB7v160006IS8_vEEvRS9_PT_, symObjAddr: 0x4840, symBinAddr: 0x100007430, symSize: 0x30 }
  - { offsetInCU: 0xAEE64, offset: 0xAEE64, size: 0x8, addend: 0x0, symName: __ZNSt3__19allocatorIPNS_10unique_ptrIN4pqxx10connectionENS_14default_deleteIS3_EEEEE7destroyB7v160006EPS7_, symObjAddr: 0x4880, symBinAddr: 0x100007470, symSize: 0x10 }
  - { offsetInCU: 0xAEE99, offset: 0xAEE99, size: 0x8, addend: 0x0, symName: __ZNSt3__19allocatorIPNS_10unique_ptrIN4pqxx10connectionENS_14default_deleteIS3_EEEEE10deallocateB7v160006EPS7_m, symObjAddr: 0x4890, symBinAddr: 0x100007480, symSize: 0x40 }
  - { offsetInCU: 0xAEEDD, offset: 0xAEEDD, size: 0x8, addend: 0x0, symName: __ZNSt3__117__compressed_pairIPPNS_10unique_ptrIN4pqxx10connectionENS_14default_deleteIS3_EEEENS_9allocatorIS7_EEE6secondB7v160006Ev, symObjAddr: 0x48D0, symBinAddr: 0x1000074C0, symSize: 0x20 }
  - { offsetInCU: 0xAEF03, offset: 0xAEF03, size: 0x8, addend: 0x0, symName: __ZNSt3__122__compressed_pair_elemINS_9allocatorIPNS_10unique_ptrIN4pqxx10connectionENS_14default_deleteIS4_EEEEEELi1ELb1EE5__getB7v160006Ev, symObjAddr: 0x48F0, symBinAddr: 0x1000074E0, symSize: 0x10 }
  - { offsetInCU: 0xAEF29, offset: 0xAEF29, size: 0x8, addend: 0x0, symName: __ZNKSt3__114__split_bufferIPNS_10unique_ptrIN4pqxx10connectionENS_14default_deleteIS3_EEEENS_9allocatorIS7_EEE9__end_capB7v160006Ev, symObjAddr: 0x4900, symBinAddr: 0x1000074F0, symSize: 0x20 }
  - { offsetInCU: 0xAEF4F, offset: 0xAEF4F, size: 0x8, addend: 0x0, symName: __ZNKSt3__117__compressed_pairIPPNS_10unique_ptrIN4pqxx10connectionENS_14default_deleteIS3_EEEENS_9allocatorIS7_EEE5firstB7v160006Ev, symObjAddr: 0x4920, symBinAddr: 0x100007510, symSize: 0x20 }
  - { offsetInCU: 0xAEF75, offset: 0xAEF75, size: 0x8, addend: 0x0, symName: __ZNKSt3__122__compressed_pair_elemIPPNS_10unique_ptrIN4pqxx10connectionENS_14default_deleteIS3_EEEELi0ELb0EE5__getB7v160006Ev, symObjAddr: 0x4940, symBinAddr: 0x100007530, symSize: 0x10 }
  - { offsetInCU: 0xAEF9B, offset: 0xAEF9B, size: 0x8, addend: 0x0, symName: __ZN6Config6getEnvEPKcRKNSt3__112basic_stringIcNS2_11char_traitsIcEENS2_9allocatorIcEEEE, symObjAddr: 0x4950, symBinAddr: 0x100007540, symSize: 0x1A0 }
  - { offsetInCU: 0xAEFDD, offset: 0xAEFDD, size: 0x8, addend: 0x0, symName: __ZNKSt3__112basic_stringIcNS_11char_traitsIcEENS_9allocatorIcEEE5emptyB7v160006Ev, symObjAddr: 0x4AF0, symBinAddr: 0x1000076E0, symSize: 0x30 }
  - { offsetInCU: 0xAF003, offset: 0xAF003, size: 0x8, addend: 0x0, symName: __ZNKSt3__112basic_stringIcNS_11char_traitsIcEENS_9allocatorIcEEE4sizeB7v160006Ev, symObjAddr: 0x4B70, symBinAddr: 0x100007760, symSize: 0x50 }
  - { offsetInCU: 0xAF029, offset: 0xAF029, size: 0x8, addend: 0x0, symName: __ZNKSt3__112basic_stringIcNS_11char_traitsIcEENS_9allocatorIcEEE9__is_longB7v160006Ev, symObjAddr: 0x4BC0, symBinAddr: 0x1000077B0, symSize: 0x30 }
  - { offsetInCU: 0xAF04F, offset: 0xAF04F, size: 0x8, addend: 0x0, symName: __ZNKSt3__112basic_stringIcNS_11char_traitsIcEENS_9allocatorIcEEE15__get_long_sizeB7v160006Ev, symObjAddr: 0x4BF0, symBinAddr: 0x1000077E0, symSize: 0x20 }
  - { offsetInCU: 0xAF075, offset: 0xAF075, size: 0x8, addend: 0x0, symName: __ZNKSt3__112basic_stringIcNS_11char_traitsIcEENS_9allocatorIcEEE16__get_short_sizeB7v160006Ev, symObjAddr: 0x4C10, symBinAddr: 0x100007800, symSize: 0x30 }
  - { offsetInCU: 0xAF09B, offset: 0xAF09B, size: 0x8, addend: 0x0, symName: __ZNKSt3__117__compressed_pairINS_12basic_stringIcNS_11char_traitsIcEENS_9allocatorIcEEE5__repES5_E5firstB7v160006Ev, symObjAddr: 0x4C40, symBinAddr: 0x100007830, symSize: 0x20 }
  - { offsetInCU: 0xAF0C1, offset: 0xAF0C1, size: 0x8, addend: 0x0, symName: __ZNKSt3__122__compressed_pair_elemINS_12basic_stringIcNS_11char_traitsIcEENS_9allocatorIcEEE5__repELi0ELb0EE5__getB7v160006Ev, symObjAddr: 0x4C60, symBinAddr: 0x100007850, symSize: 0x10 }
  - { offsetInCU: 0xAF0E7, offset: 0xAF0E7, size: 0x8, addend: 0x0, symName: __ZNSt3__112basic_stringIcNS_11char_traitsIcEENS_9allocatorIcEEEC1B7v160006EOS5_, symObjAddr: 0x4C70, symBinAddr: 0x100007860, symSize: 0x30 }
  - { offsetInCU: 0xAF120, offset: 0xAF120, size: 0x8, addend: 0x0, symName: __ZNSt3__112basic_stringIcNS_11char_traitsIcEENS_9allocatorIcEEEC2B7v160006EOS5_, symObjAddr: 0x4CA0, symBinAddr: 0x100007890, symSize: 0x90 }
  - { offsetInCU: 0xAF159, offset: 0xAF159, size: 0x8, addend: 0x0, symName: __ZNSt3__112basic_stringIcNS_11char_traitsIcEENS_9allocatorIcEEE14__default_initB7v160006Ev, symObjAddr: 0x4D30, symBinAddr: 0x100007920, symSize: 0x50 }
  - { offsetInCU: 0xAF17F, offset: 0xAF17F, size: 0x8, addend: 0x0, symName: __ZNSt3__117__compressed_pairINS_12basic_stringIcNS_11char_traitsIcEENS_9allocatorIcEEE5__repES5_E5firstB7v160006Ev, symObjAddr: 0x4DA0, symBinAddr: 0x100007990, symSize: 0x20 }
  - { offsetInCU: 0xAF1A5, offset: 0xAF1A5, size: 0x8, addend: 0x0, symName: __ZNSt3__122__compressed_pair_elemINS_12basic_stringIcNS_11char_traitsIcEENS_9allocatorIcEEE5__repELi0ELb0EE5__getB7v160006Ev, symObjAddr: 0x4DC0, symBinAddr: 0x1000079B0, symSize: 0x10 }
  - { offsetInCU: 0xAF1CB, offset: 0xAF1CB, size: 0x8, addend: 0x0, symName: __ZN4crow4CrowIJNS_11CORSHandlerEEED2Ev, symObjAddr: 0x4DD0, symBinAddr: 0x1000079C0, symSize: 0xB0 }
  - { offsetInCU: 0xAF1F8, offset: 0xAF1F8, size: 0x8, addend: 0x0, symName: __ZNSt3__16vectorIPN4crow9websocket10connectionENS_9allocatorIS4_EEED1B7v160006Ev, symObjAddr: 0x4E80, symBinAddr: 0x100007A70, symSize: 0x20 }
  - { offsetInCU: 0xAF222, offset: 0xAF222, size: 0x8, addend: 0x0, symName: __ZNSt3__16vectorIiNS_9allocatorIiEEED1B7v160006Ev, symObjAddr: 0x4EA0, symBinAddr: 0x100007A90, symSize: 0x20 }
  - { offsetInCU: 0xAF24C, offset: 0xAF24C, size: 0x8, addend: 0x0, symName: __ZNSt3__110unique_ptrIN4crow6ServerINS1_4CrowIJNS1_11CORSHandlerEEEENS1_13SocketAdaptorEJS4_EEENS_14default_deleteIS7_EEED1B7v160006Ev, symObjAddr: 0x4EC0, symBinAddr: 0x100007AB0, symSize: 0x20 }
  - { offsetInCU: 0xAF276, offset: 0xAF276, size: 0x8, addend: 0x0, symName: __ZNSt3__15tupleIJN4crow11CORSHandlerEEED1Ev, symObjAddr: 0x4EE0, symBinAddr: 0x100007AD0, symSize: 0x20 }
  - { offsetInCU: 0xAF2A3, offset: 0xAF2A3, size: 0x8, addend: 0x0, symName: __ZNSt3__18functionIFvvEED1Ev, symObjAddr: 0x4F00, symBinAddr: 0x100007AF0, symSize: 0x20 }
  - { offsetInCU: 0xAF2CF, offset: 0xAF2CF, size: 0x8, addend: 0x0, symName: __ZN4crow6RouterD1Ev, symObjAddr: 0x4F20, symBinAddr: 0x100007B10, symSize: 0x20 }
  - { offsetInCU: 0xAF2FC, offset: 0xAF2FC, size: 0x8, addend: 0x0, symName: __ZNSt3__16vectorIPN4crow9websocket10connectionENS_9allocatorIS4_EEED2B7v160006Ev, symObjAddr: 0x4F40, symBinAddr: 0x100007B30, symSize: 0x40 }
  - { offsetInCU: 0xAF326, offset: 0xAF326, size: 0x8, addend: 0x0, symName: __ZNSt3__16vectorIPN4crow9websocket10connectionENS_9allocatorIS4_EEE16__destroy_vectorC1ERS7_, symObjAddr: 0x4F80, symBinAddr: 0x100007B70, symSize: 0x30 }
  - { offsetInCU: 0xAF35F, offset: 0xAF35F, size: 0x8, addend: 0x0, symName: __ZNSt3__16vectorIPN4crow9websocket10connectionENS_9allocatorIS4_EEE16__destroy_vectorclB7v160006Ev, symObjAddr: 0x4FB0, symBinAddr: 0x100007BA0, symSize: 0x90 }
  - { offsetInCU: 0xAF385, offset: 0xAF385, size: 0x8, addend: 0x0, symName: __ZNSt3__16vectorIPN4crow9websocket10connectionENS_9allocatorIS4_EEE16__destroy_vectorC2ERS7_, symObjAddr: 0x5040, symBinAddr: 0x100007C30, symSize: 0x20 }
  - { offsetInCU: 0xAF3BE, offset: 0xAF3BE, size: 0x8, addend: 0x0, symName: __ZNKSt3__16vectorIPN4crow9websocket10connectionENS_9allocatorIS4_EEE17__annotate_deleteB7v160006Ev, symObjAddr: 0x5060, symBinAddr: 0x100007C50, symSize: 0xB0 }
  - { offsetInCU: 0xAF3E4, offset: 0xAF3E4, size: 0x8, addend: 0x0, symName: __ZNSt3__16vectorIPN4crow9websocket10connectionENS_9allocatorIS4_EEE7__clearB7v160006Ev, symObjAddr: 0x5120, symBinAddr: 0x100007D10, symSize: 0x20 }
  - { offsetInCU: 0xAF40A, offset: 0xAF40A, size: 0x8, addend: 0x0, symName: __ZNSt3__116allocator_traitsINS_9allocatorIPN4crow9websocket10connectionEEEE10deallocateB7v160006ERS6_PS5_m, symObjAddr: 0x5140, symBinAddr: 0x100007D30, symSize: 0x30 }
  - { offsetInCU: 0xAF44C, offset: 0xAF44C, size: 0x8, addend: 0x0, symName: __ZNSt3__16vectorIPN4crow9websocket10connectionENS_9allocatorIS4_EEE7__allocB7v160006Ev, symObjAddr: 0x5170, symBinAddr: 0x100007D60, symSize: 0x20 }
  - { offsetInCU: 0xAF472, offset: 0xAF472, size: 0x8, addend: 0x0, symName: __ZNKSt3__16vectorIPN4crow9websocket10connectionENS_9allocatorIS4_EEE8capacityB7v160006Ev, symObjAddr: 0x5190, symBinAddr: 0x100007D80, symSize: 0x30 }
  - { offsetInCU: 0xAF498, offset: 0xAF498, size: 0x8, addend: 0x0, symName: __ZNKSt3__16vectorIPN4crow9websocket10connectionENS_9allocatorIS4_EEE31__annotate_contiguous_containerB7v160006EPKvS9_S9_S9_, symObjAddr: 0x51C0, symBinAddr: 0x100007DB0, symSize: 0x20 }
  - { offsetInCU: 0xAF4EA, offset: 0xAF4EA, size: 0x8, addend: 0x0, symName: __ZNKSt3__16vectorIPN4crow9websocket10connectionENS_9allocatorIS4_EEE4dataB7v160006Ev, symObjAddr: 0x51E0, symBinAddr: 0x100007DD0, symSize: 0x20 }
  - { offsetInCU: 0xAF510, offset: 0xAF510, size: 0x8, addend: 0x0, symName: __ZNKSt3__16vectorIPN4crow9websocket10connectionENS_9allocatorIS4_EEE4sizeB7v160006Ev, symObjAddr: 0x5200, symBinAddr: 0x100007DF0, symSize: 0x20 }
  - { offsetInCU: 0xAF536, offset: 0xAF536, size: 0x8, addend: 0x0, symName: __ZNSt3__16vectorIPN4crow9websocket10connectionENS_9allocatorIS4_EEE22__base_destruct_at_endB7v160006EPS4_, symObjAddr: 0x5230, symBinAddr: 0x100007E20, symSize: 0x80 }
  - { offsetInCU: 0xAF57A, offset: 0xAF57A, size: 0x8, addend: 0x0, symName: __ZNSt3__116allocator_traitsINS_9allocatorIPN4crow9websocket10connectionEEEE7destroyB7v160006IS5_vEEvRS6_PT_, symObjAddr: 0x52B0, symBinAddr: 0x100007EA0, symSize: 0x30 }
  - { offsetInCU: 0xAF5B7, offset: 0xAF5B7, size: 0x8, addend: 0x0, symName: __ZNSt3__19allocatorIPN4crow9websocket10connectionEE7destroyB7v160006EPS4_, symObjAddr: 0x52E0, symBinAddr: 0x100007ED0, symSize: 0x10 }
  - { offsetInCU: 0xAF5EC, offset: 0xAF5EC, size: 0x8, addend: 0x0, symName: __ZNSt3__19allocatorIPN4crow9websocket10connectionEE10deallocateB7v160006EPS4_m, symObjAddr: 0x52F0, symBinAddr: 0x100007EE0, symSize: 0x40 }
  - { offsetInCU: 0xAF630, offset: 0xAF630, size: 0x8, addend: 0x0, symName: __ZNSt3__117__compressed_pairIPPN4crow9websocket10connectionENS_9allocatorIS4_EEE6secondB7v160006Ev, symObjAddr: 0x5330, symBinAddr: 0x100007F20, symSize: 0x20 }
  - { offsetInCU: 0xAF656, offset: 0xAF656, size: 0x8, addend: 0x0, symName: __ZNSt3__122__compressed_pair_elemINS_9allocatorIPN4crow9websocket10connectionEEELi1ELb1EE5__getB7v160006Ev, symObjAddr: 0x5350, symBinAddr: 0x100007F40, symSize: 0x10 }
  - { offsetInCU: 0xAF67C, offset: 0xAF67C, size: 0x8, addend: 0x0, symName: __ZNKSt3__16vectorIPN4crow9websocket10connectionENS_9allocatorIS4_EEE9__end_capB7v160006Ev, symObjAddr: 0x5360, symBinAddr: 0x100007F50, symSize: 0x20 }
  - { offsetInCU: 0xAF6A2, offset: 0xAF6A2, size: 0x8, addend: 0x0, symName: __ZNKSt3__117__compressed_pairIPPN4crow9websocket10connectionENS_9allocatorIS4_EEE5firstB7v160006Ev, symObjAddr: 0x5380, symBinAddr: 0x100007F70, symSize: 0x20 }
  - { offsetInCU: 0xAF6C8, offset: 0xAF6C8, size: 0x8, addend: 0x0, symName: __ZNKSt3__122__compressed_pair_elemIPPN4crow9websocket10connectionELi0ELb0EE5__getB7v160006Ev, symObjAddr: 0x53A0, symBinAddr: 0x100007F90, symSize: 0x10 }
  - { offsetInCU: 0xAF6EE, offset: 0xAF6EE, size: 0x8, addend: 0x0, symName: __ZNSt3__16vectorIiNS_9allocatorIiEEED2B7v160006Ev, symObjAddr: 0x53B0, symBinAddr: 0x100007FA0, symSize: 0x40 }
  - { offsetInCU: 0xAF718, offset: 0xAF718, size: 0x8, addend: 0x0, symName: __ZNSt3__16vectorIiNS_9allocatorIiEEE16__destroy_vectorC1ERS3_, symObjAddr: 0x53F0, symBinAddr: 0x100007FE0, symSize: 0x30 }
  - { offsetInCU: 0xAF751, offset: 0xAF751, size: 0x8, addend: 0x0, symName: __ZNSt3__16vectorIiNS_9allocatorIiEEE16__destroy_vectorclB7v160006Ev, symObjAddr: 0x5420, symBinAddr: 0x100008010, symSize: 0x90 }
  - { offsetInCU: 0xAF777, offset: 0xAF777, size: 0x8, addend: 0x0, symName: __ZNSt3__16vectorIiNS_9allocatorIiEEE16__destroy_vectorC2ERS3_, symObjAddr: 0x54B0, symBinAddr: 0x1000080A0, symSize: 0x20 }
  - { offsetInCU: 0xAF7B0, offset: 0xAF7B0, size: 0x8, addend: 0x0, symName: __ZNKSt3__16vectorIiNS_9allocatorIiEEE17__annotate_deleteB7v160006Ev, symObjAddr: 0x54D0, symBinAddr: 0x1000080C0, symSize: 0xB0 }
  - { offsetInCU: 0xAF7D6, offset: 0xAF7D6, size: 0x8, addend: 0x0, symName: __ZNSt3__16vectorIiNS_9allocatorIiEEE7__clearB7v160006Ev, symObjAddr: 0x5590, symBinAddr: 0x100008180, symSize: 0x20 }
  - { offsetInCU: 0xAF7FC, offset: 0xAF7FC, size: 0x8, addend: 0x0, symName: __ZNSt3__116allocator_traitsINS_9allocatorIiEEE10deallocateB7v160006ERS2_Pim, symObjAddr: 0x55B0, symBinAddr: 0x1000081A0, symSize: 0x30 }
  - { offsetInCU: 0xAF83E, offset: 0xAF83E, size: 0x8, addend: 0x0, symName: __ZNSt3__16vectorIiNS_9allocatorIiEEE7__allocB7v160006Ev, symObjAddr: 0x55E0, symBinAddr: 0x1000081D0, symSize: 0x20 }
  - { offsetInCU: 0xAF864, offset: 0xAF864, size: 0x8, addend: 0x0, symName: __ZNKSt3__16vectorIiNS_9allocatorIiEEE8capacityB7v160006Ev, symObjAddr: 0x5600, symBinAddr: 0x1000081F0, symSize: 0x30 }
  - { offsetInCU: 0xAF88A, offset: 0xAF88A, size: 0x8, addend: 0x0, symName: __ZNKSt3__16vectorIiNS_9allocatorIiEEE31__annotate_contiguous_containerB7v160006EPKvS5_S5_S5_, symObjAddr: 0x5630, symBinAddr: 0x100008220, symSize: 0x20 }
  - { offsetInCU: 0xAF8DC, offset: 0xAF8DC, size: 0x8, addend: 0x0, symName: __ZNKSt3__16vectorIiNS_9allocatorIiEEE4dataB7v160006Ev, symObjAddr: 0x5650, symBinAddr: 0x100008240, symSize: 0x20 }
  - { offsetInCU: 0xAF902, offset: 0xAF902, size: 0x8, addend: 0x0, symName: __ZNKSt3__16vectorIiNS_9allocatorIiEEE4sizeB7v160006Ev, symObjAddr: 0x5670, symBinAddr: 0x100008260, symSize: 0x20 }
  - { offsetInCU: 0xAF928, offset: 0xAF928, size: 0x8, addend: 0x0, symName: __ZNSt3__16vectorIiNS_9allocatorIiEEE22__base_destruct_at_endB7v160006EPi, symObjAddr: 0x56A0, symBinAddr: 0x100008290, symSize: 0x80 }
  - { offsetInCU: 0xAF96C, offset: 0xAF96C, size: 0x8, addend: 0x0, symName: __ZNSt3__116allocator_traitsINS_9allocatorIiEEE7destroyB7v160006IivEEvRS2_PT_, symObjAddr: 0x5720, symBinAddr: 0x100008310, symSize: 0x30 }
  - { offsetInCU: 0xAF9A9, offset: 0xAF9A9, size: 0x8, addend: 0x0, symName: __ZNSt3__19allocatorIiE7destroyB7v160006EPi, symObjAddr: 0x5750, symBinAddr: 0x100008340, symSize: 0x10 }
  - { offsetInCU: 0xAF9DE, offset: 0xAF9DE, size: 0x8, addend: 0x0, symName: __ZNSt3__19allocatorIiE10deallocateB7v160006EPim, symObjAddr: 0x5760, symBinAddr: 0x100008350, symSize: 0x40 }
  - { offsetInCU: 0xAFA22, offset: 0xAFA22, size: 0x8, addend: 0x0, symName: __ZNSt3__117__compressed_pairIPiNS_9allocatorIiEEE6secondB7v160006Ev, symObjAddr: 0x57A0, symBinAddr: 0x100008390, symSize: 0x20 }
  - { offsetInCU: 0xAFA48, offset: 0xAFA48, size: 0x8, addend: 0x0, symName: __ZNSt3__122__compressed_pair_elemINS_9allocatorIiEELi1ELb1EE5__getB7v160006Ev, symObjAddr: 0x57C0, symBinAddr: 0x1000083B0, symSize: 0x10 }
  - { offsetInCU: 0xAFA6E, offset: 0xAFA6E, size: 0x8, addend: 0x0, symName: __ZNKSt3__16vectorIiNS_9allocatorIiEEE9__end_capB7v160006Ev, symObjAddr: 0x57D0, symBinAddr: 0x1000083C0, symSize: 0x20 }
  - { offsetInCU: 0xAFA94, offset: 0xAFA94, size: 0x8, addend: 0x0, symName: __ZNKSt3__117__compressed_pairIPiNS_9allocatorIiEEE5firstB7v160006Ev, symObjAddr: 0x57F0, symBinAddr: 0x1000083E0, symSize: 0x20 }
  - { offsetInCU: 0xAFABA, offset: 0xAFABA, size: 0x8, addend: 0x0, symName: __ZNKSt3__122__compressed_pair_elemIPiLi0ELb0EE5__getB7v160006Ev, symObjAddr: 0x5810, symBinAddr: 0x100008400, symSize: 0x10 }
  - { offsetInCU: 0xAFAE0, offset: 0xAFAE0, size: 0x8, addend: 0x0, symName: __ZNSt3__110unique_ptrIN4crow6ServerINS1_4CrowIJNS1_11CORSHandlerEEEENS1_13SocketAdaptorEJS4_EEENS_14default_deleteIS7_EEED2B7v160006Ev, symObjAddr: 0x5820, symBinAddr: 0x100008410, symSize: 0x20 }
  - { offsetInCU: 0xAFB0A, offset: 0xAFB0A, size: 0x8, addend: 0x0, symName: __ZNSt3__110unique_ptrIN4crow6ServerINS1_4CrowIJNS1_11CORSHandlerEEEENS1_13SocketAdaptorEJS4_EEENS_14default_deleteIS7_EEE5resetB7v160006EPS7_, symObjAddr: 0x5840, symBinAddr: 0x100008430, symSize: 0x70 }
  - { offsetInCU: 0xAFB4E, offset: 0xAFB4E, size: 0x8, addend: 0x0, symName: __ZNSt3__117__compressed_pairIPN4crow6ServerINS1_4CrowIJNS1_11CORSHandlerEEEENS1_13SocketAdaptorEJS4_EEENS_14default_deleteIS7_EEE5firstB7v160006Ev, symObjAddr: 0x58B0, symBinAddr: 0x1000084A0, symSize: 0x20 }
  - { offsetInCU: 0xAFB74, offset: 0xAFB74, size: 0x8, addend: 0x0, symName: __ZNSt3__117__compressed_pairIPN4crow6ServerINS1_4CrowIJNS1_11CORSHandlerEEEENS1_13SocketAdaptorEJS4_EEENS_14default_deleteIS7_EEE6secondB7v160006Ev, symObjAddr: 0x58D0, symBinAddr: 0x1000084C0, symSize: 0x20 }
  - { offsetInCU: 0xAFB9A, offset: 0xAFB9A, size: 0x8, addend: 0x0, symName: __ZNKSt3__114default_deleteIN4crow6ServerINS1_4CrowIJNS1_11CORSHandlerEEEENS1_13SocketAdaptorEJS4_EEEEclB7v160006EPS7_, symObjAddr: 0x58F0, symBinAddr: 0x1000084E0, symSize: 0x40 }
  - { offsetInCU: 0xAFBCF, offset: 0xAFBCF, size: 0x8, addend: 0x0, symName: __ZNSt3__122__compressed_pair_elemIPN4crow6ServerINS1_4CrowIJNS1_11CORSHandlerEEEENS1_13SocketAdaptorEJS4_EEELi0ELb0EE5__getB7v160006Ev, symObjAddr: 0x5930, symBinAddr: 0x100008520, symSize: 0x10 }
  - { offsetInCU: 0xAFBF5, offset: 0xAFBF5, size: 0x8, addend: 0x0, symName: __ZNSt3__122__compressed_pair_elemINS_14default_deleteIN4crow6ServerINS2_4CrowIJNS2_11CORSHandlerEEEENS2_13SocketAdaptorEJS5_EEEEELi1ELb1EE5__getB7v160006Ev, symObjAddr: 0x5940, symBinAddr: 0x100008530, symSize: 0x10 }
  - { offsetInCU: 0xAFC1B, offset: 0xAFC1B, size: 0x8, addend: 0x0, symName: __ZN4crow6ServerINS_4CrowIJNS_11CORSHandlerEEEENS_13SocketAdaptorEJS2_EED1Ev, symObjAddr: 0x5950, symBinAddr: 0x100008540, symSize: 0x20 }
  - { offsetInCU: 0xAFC48, offset: 0xAFC48, size: 0x8, addend: 0x0, symName: __ZN4crow6ServerINS_4CrowIJNS_11CORSHandlerEEEENS_13SocketAdaptorEJS2_EED2Ev, symObjAddr: 0x5970, symBinAddr: 0x100008560, symSize: 0xE0 }
  - { offsetInCU: 0xAFC75, offset: 0xAFC75, size: 0x8, addend: 0x0, symName: __ZNSt3__16vectorINS_6atomicIjEENS_9allocatorIS2_EEED1B7v160006Ev, symObjAddr: 0x5A50, symBinAddr: 0x100008640, symSize: 0x20 }
  - { offsetInCU: 0xAFC9F, offset: 0xAFC9F, size: 0x8, addend: 0x0, symName: __ZN4asio20basic_waitable_timerINSt3__16chrono12steady_clockENS_11wait_traitsIS3_EENS_15any_io_executorEED1Ev, symObjAddr: 0x5A70, symBinAddr: 0x100008660, symSize: 0x20 }
  - { offsetInCU: 0xAFCC9, offset: 0xAFCC9, size: 0x8, addend: 0x0, symName: __ZN4asio16basic_signal_setINS_15any_io_executorEED1Ev, symObjAddr: 0x5A90, symBinAddr: 0x100008680, symSize: 0x20 }
  - { offsetInCU: 0xAFCF3, offset: 0xAFCF3, size: 0x8, addend: 0x0, symName: __ZN4asio21basic_socket_acceptorINS_2ip3tcpENS_15any_io_executorEED1Ev, symObjAddr: 0x5AB0, symBinAddr: 0x1000086A0, symSize: 0x20 }
  - { offsetInCU: 0xAFD1D, offset: 0xAFD1D, size: 0x8, addend: 0x0, symName: __ZNSt3__16vectorINS_8functionIFNS_12basic_stringIcNS_11char_traitsIcEENS_9allocatorIcEEEEvEEENS5_IS9_EEED1B7v160006Ev, symObjAddr: 0x5AD0, symBinAddr: 0x1000086C0, symSize: 0x20 }
  - { offsetInCU: 0xAFD47, offset: 0xAFD47, size: 0x8, addend: 0x0, symName: __ZNSt3__16vectorIPN4crow6detail10task_timerENS_9allocatorIS4_EEED1B7v160006Ev, symObjAddr: 0x5AF0, symBinAddr: 0x1000086E0, symSize: 0x20 }
  - { offsetInCU: 0xAFD71, offset: 0xAFD71, size: 0x8, addend: 0x0, symName: __ZNSt3__16vectorINS_10unique_ptrIN4asio10io_contextENS_14default_deleteIS3_EEEENS_9allocatorIS6_EEED1B7v160006Ev, symObjAddr: 0x5B10, symBinAddr: 0x100008700, symSize: 0x20 }
  - { offsetInCU: 0xAFD9B, offset: 0xAFD9B, size: 0x8, addend: 0x0, symName: __ZN4asio10io_contextD1Ev, symObjAddr: 0x5B30, symBinAddr: 0x100008720, symSize: 0x20 }
  - { offsetInCU: 0xAFDC8, offset: 0xAFDC8, size: 0x8, addend: 0x0, symName: __ZNSt3__16vectorINS_6atomicIjEENS_9allocatorIS2_EEED2B7v160006Ev, symObjAddr: 0x5B50, symBinAddr: 0x100008740, symSize: 0x40 }
  - { offsetInCU: 0xAFDF2, offset: 0xAFDF2, size: 0x8, addend: 0x0, symName: __ZNSt3__16vectorINS_6atomicIjEENS_9allocatorIS2_EEE16__destroy_vectorC1ERS5_, symObjAddr: 0x5B90, symBinAddr: 0x100008780, symSize: 0x30 }
  - { offsetInCU: 0xAFE2B, offset: 0xAFE2B, size: 0x8, addend: 0x0, symName: __ZNSt3__16vectorINS_6atomicIjEENS_9allocatorIS2_EEE16__destroy_vectorclB7v160006Ev, symObjAddr: 0x5BC0, symBinAddr: 0x1000087B0, symSize: 0x90 }
  - { offsetInCU: 0xAFE51, offset: 0xAFE51, size: 0x8, addend: 0x0, symName: __ZNSt3__16vectorINS_6atomicIjEENS_9allocatorIS2_EEE16__destroy_vectorC2ERS5_, symObjAddr: 0x5C50, symBinAddr: 0x100008840, symSize: 0x20 }
  - { offsetInCU: 0xAFE8A, offset: 0xAFE8A, size: 0x8, addend: 0x0, symName: __ZNKSt3__16vectorINS_6atomicIjEENS_9allocatorIS2_EEE17__annotate_deleteB7v160006Ev, symObjAddr: 0x5C70, symBinAddr: 0x100008860, symSize: 0xB0 }
  - { offsetInCU: 0xAFEB0, offset: 0xAFEB0, size: 0x8, addend: 0x0, symName: __ZNSt3__16vectorINS_6atomicIjEENS_9allocatorIS2_EEE7__clearB7v160006Ev, symObjAddr: 0x5D30, symBinAddr: 0x100008920, symSize: 0x20 }
  - { offsetInCU: 0xAFED6, offset: 0xAFED6, size: 0x8, addend: 0x0, symName: __ZNSt3__116allocator_traitsINS_9allocatorINS_6atomicIjEEEEE10deallocateB7v160006ERS4_PS3_m, symObjAddr: 0x5D50, symBinAddr: 0x100008940, symSize: 0x30 }
  - { offsetInCU: 0xAFF18, offset: 0xAFF18, size: 0x8, addend: 0x0, symName: __ZNSt3__16vectorINS_6atomicIjEENS_9allocatorIS2_EEE7__allocB7v160006Ev, symObjAddr: 0x5D80, symBinAddr: 0x100008970, symSize: 0x20 }
  - { offsetInCU: 0xAFF3E, offset: 0xAFF3E, size: 0x8, addend: 0x0, symName: __ZNKSt3__16vectorINS_6atomicIjEENS_9allocatorIS2_EEE8capacityB7v160006Ev, symObjAddr: 0x5DA0, symBinAddr: 0x100008990, symSize: 0x30 }
  - { offsetInCU: 0xAFF64, offset: 0xAFF64, size: 0x8, addend: 0x0, symName: __ZNKSt3__16vectorINS_6atomicIjEENS_9allocatorIS2_EEE31__annotate_contiguous_containerB7v160006EPKvS7_S7_S7_, symObjAddr: 0x5DD0, symBinAddr: 0x1000089C0, symSize: 0x20 }
  - { offsetInCU: 0xAFFB6, offset: 0xAFFB6, size: 0x8, addend: 0x0, symName: __ZNKSt3__16vectorINS_6atomicIjEENS_9allocatorIS2_EEE4dataB7v160006Ev, symObjAddr: 0x5DF0, symBinAddr: 0x1000089E0, symSize: 0x20 }
  - { offsetInCU: 0xAFFDC, offset: 0xAFFDC, size: 0x8, addend: 0x0, symName: __ZNKSt3__16vectorINS_6atomicIjEENS_9allocatorIS2_EEE4sizeB7v160006Ev, symObjAddr: 0x5E10, symBinAddr: 0x100008A00, symSize: 0x20 }
  - { offsetInCU: 0xB0002, offset: 0xB0002, size: 0x8, addend: 0x0, symName: __ZNSt3__16vectorINS_6atomicIjEENS_9allocatorIS2_EEE22__base_destruct_at_endB7v160006EPS2_, symObjAddr: 0x5E40, symBinAddr: 0x100008A30, symSize: 0x80 }
  - { offsetInCU: 0xB0046, offset: 0xB0046, size: 0x8, addend: 0x0, symName: __ZNSt3__116allocator_traitsINS_9allocatorINS_6atomicIjEEEEE7destroyB7v160006IS3_vEEvRS4_PT_, symObjAddr: 0x5EC0, symBinAddr: 0x100008AB0, symSize: 0x30 }
  - { offsetInCU: 0xB0083, offset: 0xB0083, size: 0x8, addend: 0x0, symName: __ZNSt3__19allocatorINS_6atomicIjEEE7destroyB7v160006EPS2_, symObjAddr: 0x5EF0, symBinAddr: 0x100008AE0, symSize: 0x10 }
  - { offsetInCU: 0xB00B8, offset: 0xB00B8, size: 0x8, addend: 0x0, symName: __ZNSt3__19allocatorINS_6atomicIjEEE10deallocateB7v160006EPS2_m, symObjAddr: 0x5F00, symBinAddr: 0x100008AF0, symSize: 0x40 }
  - { offsetInCU: 0xB00FC, offset: 0xB00FC, size: 0x8, addend: 0x0, symName: __ZNSt3__117__compressed_pairIPNS_6atomicIjEENS_9allocatorIS2_EEE6secondB7v160006Ev, symObjAddr: 0x5F40, symBinAddr: 0x100008B30, symSize: 0x20 }
  - { offsetInCU: 0xB0122, offset: 0xB0122, size: 0x8, addend: 0x0, symName: __ZNSt3__122__compressed_pair_elemINS_9allocatorINS_6atomicIjEEEELi1ELb1EE5__getB7v160006Ev, symObjAddr: 0x5F60, symBinAddr: 0x100008B50, symSize: 0x10 }
  - { offsetInCU: 0xB0148, offset: 0xB0148, size: 0x8, addend: 0x0, symName: __ZNKSt3__16vectorINS_6atomicIjEENS_9allocatorIS2_EEE9__end_capB7v160006Ev, symObjAddr: 0x5F70, symBinAddr: 0x100008B60, symSize: 0x20 }
  - { offsetInCU: 0xB016E, offset: 0xB016E, size: 0x8, addend: 0x0, symName: __ZNKSt3__117__compressed_pairIPNS_6atomicIjEENS_9allocatorIS2_EEE5firstB7v160006Ev, symObjAddr: 0x5F90, symBinAddr: 0x100008B80, symSize: 0x20 }
  - { offsetInCU: 0xB0194, offset: 0xB0194, size: 0x8, addend: 0x0, symName: __ZNKSt3__122__compressed_pair_elemIPNS_6atomicIjEELi0ELb0EE5__getB7v160006Ev, symObjAddr: 0x5FB0, symBinAddr: 0x100008BA0, symSize: 0x10 }
  - { offsetInCU: 0xB01BA, offset: 0xB01BA, size: 0x8, addend: 0x0, symName: __ZN4asio20basic_waitable_timerINSt3__16chrono12steady_clockENS_11wait_traitsIS3_EENS_15any_io_executorEED2Ev, symObjAddr: 0x5FC0, symBinAddr: 0x100008BB0, symSize: 0x20 }
  - { offsetInCU: 0xB01E4, offset: 0xB01E4, size: 0x8, addend: 0x0, symName: __ZN4asio6detail14io_object_implINS0_22deadline_timer_serviceINS0_18chrono_time_traitsINSt3__16chrono12steady_clockENS_11wait_traitsIS6_EEEEEENS_15any_io_executorEED1Ev, symObjAddr: 0x5FE0, symBinAddr: 0x100008BD0, symSize: 0x20 }
  - { offsetInCU: 0xB020E, offset: 0xB020E, size: 0x8, addend: 0x0, symName: __ZN4asio6detail14io_object_implINS0_22deadline_timer_serviceINS0_18chrono_time_traitsINSt3__16chrono12steady_clockENS_11wait_traitsIS6_EEEEEENS_15any_io_executorEED2Ev, symObjAddr: 0x6000, symBinAddr: 0x100008BF0, symSize: 0x50 }
  - { offsetInCU: 0xB0238, offset: 0xB0238, size: 0x8, addend: 0x0, symName: __ZN4asio6detail22deadline_timer_serviceINS0_18chrono_time_traitsINSt3__16chrono12steady_clockENS_11wait_traitsIS5_EEEEE7destroyERNS9_19implementation_typeE, symObjAddr: 0x6050, symBinAddr: 0x100008C40, symSize: 0x40 }
  - { offsetInCU: 0xB027C, offset: 0xB027C, size: 0x8, addend: 0x0, symName: __ZN4asio15any_io_executorD1Ev, symObjAddr: 0x6090, symBinAddr: 0x100008C80, symSize: 0x20 }
  - { offsetInCU: 0xB02AF, offset: 0xB02AF, size: 0x8, addend: 0x0, symName: __ZN4asio6detail22deadline_timer_serviceINS0_18chrono_time_traitsINSt3__16chrono12steady_clockENS_11wait_traitsIS5_EEEEE19implementation_typeD1Ev, symObjAddr: 0x60B0, symBinAddr: 0x100008CA0, symSize: 0x20 }
  - { offsetInCU: 0xB02DB, offset: 0xB02DB, size: 0x8, addend: 0x0, symName: __ZNSt3__110error_codeC1B7v160006Ev, symObjAddr: 0x60D0, symBinAddr: 0x100008CC0, symSize: 0x20 }
  - { offsetInCU: 0xB0305, offset: 0xB0305, size: 0x8, addend: 0x0, symName: __ZN4asio6detail22deadline_timer_serviceINS0_18chrono_time_traitsINSt3__16chrono12steady_clockENS_11wait_traitsIS5_EEEEE6cancelERNS9_19implementation_typeERNS3_10error_codeE, symObjAddr: 0x60F0, symBinAddr: 0x100008CE0, symSize: 0xD0 }
  - { offsetInCU: 0xB0358, offset: 0xB0358, size: 0x8, addend: 0x0, symName: __ZNSt3__110error_codeC2B7v160006Ev, symObjAddr: 0x61C0, symBinAddr: 0x100008DB0, symSize: 0x30 }
  - { offsetInCU: 0xB0388, offset: 0xB0388, size: 0x8, addend: 0x0, symName: __ZN4asio6detail14kqueue_reactor12cancel_timerINS0_18chrono_time_traitsINSt3__16chrono12steady_clockENS_11wait_traitsIS6_EEEEEEmRNS0_11timer_queueIT_EERNSC_14per_timer_dataEm, symObjAddr: 0x61F0, symBinAddr: 0x100008DE0, symSize: 0xF0 }
  - { offsetInCU: 0xB0418, offset: 0xB0418, size: 0x8, addend: 0x0, symName: __ZNSt3__114numeric_limitsImE3maxB7v160006Ev, symObjAddr: 0x62E0, symBinAddr: 0x100008ED0, symSize: 0x10 }
  - { offsetInCU: 0xB042C, offset: 0xB042C, size: 0x8, addend: 0x0, symName: __ZN4asio6detail27conditionally_enabled_mutex11scoped_lockC1ERS1_, symObjAddr: 0x62F0, symBinAddr: 0x100008EE0, symSize: 0x30 }
  - { offsetInCU: 0xB0465, offset: 0xB0465, size: 0x8, addend: 0x0, symName: __ZN4asio6detail8op_queueINS0_19scheduler_operationEEC1Ev, symObjAddr: 0x6320, symBinAddr: 0x100008F10, symSize: 0x20 }
  - { offsetInCU: 0xB048F, offset: 0xB048F, size: 0x8, addend: 0x0, symName: __ZN4asio6detail11timer_queueINS0_18chrono_time_traitsINSt3__16chrono12steady_clockENS_11wait_traitsIS5_EEEEE12cancel_timerERNS9_14per_timer_dataERNS0_8op_queueINS0_19scheduler_operationEEEm, symObjAddr: 0x6340, symBinAddr: 0x100008F30, symSize: 0x100 }
  - { offsetInCU: 0xB050E, offset: 0xB050E, size: 0x8, addend: 0x0, symName: __ZN4asio6detail27conditionally_enabled_mutex11scoped_lock6unlockEv, symObjAddr: 0x6440, symBinAddr: 0x100009030, symSize: 0x40 }
  - { offsetInCU: 0xB0534, offset: 0xB0534, size: 0x8, addend: 0x0, symName: __ZN4asio6detail9scheduler25post_deferred_completionsERNS0_8op_queueINS0_19scheduler_operationEEE, symObjAddr: 0x6480, symBinAddr: 0x100009070, symSize: 0xE0 }
  - { offsetInCU: 0xB0598, offset: 0xB0598, size: 0x8, addend: 0x0, symName: __ZN4asio6detail8op_queueINS0_19scheduler_operationEED1Ev, symObjAddr: 0x6560, symBinAddr: 0x100009150, symSize: 0x20 }
  - { offsetInCU: 0xB05C2, offset: 0xB05C2, size: 0x8, addend: 0x0, symName: __ZN4asio6detail27conditionally_enabled_mutex11scoped_lockD1Ev, symObjAddr: 0x6580, symBinAddr: 0x100009170, symSize: 0x20 }
  - { offsetInCU: 0xB05EC, offset: 0xB05EC, size: 0x8, addend: 0x0, symName: __ZN4asio6detail27conditionally_enabled_mutex11scoped_lockC2ERS1_, symObjAddr: 0x65A0, symBinAddr: 0x100009190, symSize: 0x90 }
  - { offsetInCU: 0xB0625, offset: 0xB0625, size: 0x8, addend: 0x0, symName: __ZN4asio6detail11noncopyableC2Ev, symObjAddr: 0x6630, symBinAddr: 0x100009220, symSize: 0x10 }
  - { offsetInCU: 0xB064F, offset: 0xB064F, size: 0x8, addend: 0x0, symName: __ZN4asio6detail11posix_mutex4lockEv, symObjAddr: 0x6640, symBinAddr: 0x100009230, symSize: 0x20 }
  - { offsetInCU: 0xB0675, offset: 0xB0675, size: 0x8, addend: 0x0, symName: __ZN4asio6detail11noncopyableD2Ev, symObjAddr: 0x6660, symBinAddr: 0x100009250, symSize: 0x10 }
  - { offsetInCU: 0xB069F, offset: 0xB069F, size: 0x8, addend: 0x0, symName: __ZN4asio6detail8op_queueINS0_19scheduler_operationEEC2Ev, symObjAddr: 0x6670, symBinAddr: 0x100009260, symSize: 0x40 }
  - { offsetInCU: 0xB06C9, offset: 0xB06C9, size: 0x8, addend: 0x0, symName: __ZN4asio6detail8op_queueINS0_7wait_opEE5frontEv, symObjAddr: 0x66B0, symBinAddr: 0x1000092A0, symSize: 0x20 }
  - { offsetInCU: 0xB06F5, offset: 0xB06F5, size: 0x8, addend: 0x0, symName: __ZNSt3__110error_codeaSB7v160006IN4asio5error12basic_errorsEEENS_9enable_ifIXsr18is_error_code_enumIT_EE5valueERS0_E4typeES6_, symObjAddr: 0x66D0, symBinAddr: 0x1000092C0, symSize: 0x60 }
  - { offsetInCU: 0xB073C, offset: 0xB073C, size: 0x8, addend: 0x0, symName: __ZN4asio6detail8op_queueINS0_7wait_opEE3popEv, symObjAddr: 0x6730, symBinAddr: 0x100009320, symSize: 0x70 }
  - { offsetInCU: 0xB077F, offset: 0xB077F, size: 0x8, addend: 0x0, symName: __ZN4asio6detail8op_queueINS0_19scheduler_operationEE4pushEPS2_, symObjAddr: 0x67A0, symBinAddr: 0x100009390, symSize: 0x70 }
  - { offsetInCU: 0xB07B4, offset: 0xB07B4, size: 0x8, addend: 0x0, symName: __ZNK4asio6detail8op_queueINS0_7wait_opEE5emptyEv, symObjAddr: 0x6810, symBinAddr: 0x100009400, symSize: 0x20 }
  - { offsetInCU: 0xB07DA, offset: 0xB07DA, size: 0x8, addend: 0x0, symName: __ZN4asio6detail11timer_queueINS0_18chrono_time_traitsINSt3__16chrono12steady_clockENS_11wait_traitsIS5_EEEEE12remove_timerERNS9_14per_timer_dataE, symObjAddr: 0x6830, symBinAddr: 0x100009420, symSize: 0x1F0 }
  - { offsetInCU: 0xB081E, offset: 0xB081E, size: 0x8, addend: 0x0, symName: __ZNSt3__110error_codeC1B7v160006EiRKNS_14error_categoryE, symObjAddr: 0x6A60, symBinAddr: 0x100009650, symSize: 0x30 }
  - { offsetInCU: 0xB0866, offset: 0xB0866, size: 0x8, addend: 0x0, symName: __ZNSt3__110error_codeC2B7v160006EiRKNS_14error_categoryE, symObjAddr: 0x6A90, symBinAddr: 0x100009680, symSize: 0x30 }
  - { offsetInCU: 0xB08AE, offset: 0xB08AE, size: 0x8, addend: 0x0, symName: __ZN4asio6detail15op_queue_access4nextINS0_7wait_opEEEPT_S5_, symObjAddr: 0x6AC0, symBinAddr: 0x1000096B0, symSize: 0x20 }
  - { offsetInCU: 0xB08E1, offset: 0xB08E1, size: 0x8, addend: 0x0, symName: __ZN4asio6detail15op_queue_access4nextINS0_7wait_opES3_EEvRPT_PT0_, symObjAddr: 0x6AE0, symBinAddr: 0x1000096D0, symSize: 0x20 }
  - { offsetInCU: 0xB092C, offset: 0xB092C, size: 0x8, addend: 0x0, symName: __ZN4asio6detail15op_queue_access4nextINS0_19scheduler_operationES3_EEvRPT_PT0_, symObjAddr: 0x6B00, symBinAddr: 0x1000096F0, symSize: 0x20 }
  - { offsetInCU: 0xB0971, offset: 0xB0971, size: 0x8, addend: 0x0, symName: __ZNKSt3__16vectorIN4asio6detail11timer_queueINS2_18chrono_time_traitsINS_6chrono12steady_clockENS1_11wait_traitsIS6_EEEEE10heap_entryENS_9allocatorISB_EEE5emptyB7v160006Ev, symObjAddr: 0x6B20, symBinAddr: 0x100009710, symSize: 0x20 }
  - { offsetInCU: 0xB0997, offset: 0xB0997, size: 0x8, addend: 0x0, symName: __ZNKSt3__16vectorIN4asio6detail11timer_queueINS2_18chrono_time_traitsINS_6chrono12steady_clockENS1_11wait_traitsIS6_EEEEE10heap_entryENS_9allocatorISB_EEE4sizeB7v160006Ev, symObjAddr: 0x6B40, symBinAddr: 0x100009730, symSize: 0x20 }
  - { offsetInCU: 0xB09BD, offset: 0xB09BD, size: 0x8, addend: 0x0, symName: __ZNSt3__16vectorIN4asio6detail11timer_queueINS2_18chrono_time_traitsINS_6chrono12steady_clockENS1_11wait_traitsIS6_EEEEE10heap_entryENS_9allocatorISB_EEE8pop_backEv, symObjAddr: 0x6B60, symBinAddr: 0x100009750, symSize: 0x30 }
  - { offsetInCU: 0xB09E5, offset: 0xB09E5, size: 0x8, addend: 0x0, symName: __ZN4asio6detail11timer_queueINS0_18chrono_time_traitsINSt3__16chrono12steady_clockENS_11wait_traitsIS5_EEEEE9swap_heapEmm, symObjAddr: 0x6B90, symBinAddr: 0x100009780, symSize: 0xE0 }
  - { offsetInCU: 0xB0A38, offset: 0xB0A38, size: 0x8, addend: 0x0, symName: __ZN4asio6detail18chrono_time_traitsINSt3__16chrono12steady_clockENS_11wait_traitsIS4_EEE9less_thanERKNS3_10time_pointIS4_NS3_8durationIxNS2_5ratioILl1ELl1000000000EEEEEEESF_, symObjAddr: 0x6C70, symBinAddr: 0x100009860, symSize: 0x30 }
  - { offsetInCU: 0xB0A6B, offset: 0xB0A6B, size: 0x8, addend: 0x0, symName: __ZNSt3__16vectorIN4asio6detail11timer_queueINS2_18chrono_time_traitsINS_6chrono12steady_clockENS1_11wait_traitsIS6_EEEEE10heap_entryENS_9allocatorISB_EEEixB7v160006Em, symObjAddr: 0x6CA0, symBinAddr: 0x100009890, symSize: 0x20 }
  - { offsetInCU: 0xB0AA2, offset: 0xB0AA2, size: 0x8, addend: 0x0, symName: __ZN4asio6detail11timer_queueINS0_18chrono_time_traitsINSt3__16chrono12steady_clockENS_11wait_traitsIS5_EEEEE7up_heapEm, symObjAddr: 0x6CC0, symBinAddr: 0x1000098B0, symSize: 0xA0 }
  - { offsetInCU: 0xB0AF4, offset: 0xB0AF4, size: 0x8, addend: 0x0, symName: __ZN4asio6detail11timer_queueINS0_18chrono_time_traitsINSt3__16chrono12steady_clockENS_11wait_traitsIS5_EEEEE9down_heapEm, symObjAddr: 0x6D60, symBinAddr: 0x100009950, symSize: 0x160 }
  - { offsetInCU: 0xB0B55, offset: 0xB0B55, size: 0x8, addend: 0x0, symName: __ZNSt3__16vectorIN4asio6detail11timer_queueINS2_18chrono_time_traitsINS_6chrono12steady_clockENS1_11wait_traitsIS6_EEEEE10heap_entryENS_9allocatorISB_EEE17__destruct_at_endB7v160006EPSB_, symObjAddr: 0x6EC0, symBinAddr: 0x100009AB0, symSize: 0x60 }
  - { offsetInCU: 0xB0B99, offset: 0xB0B99, size: 0x8, addend: 0x0, symName: __ZNSt3__16vectorIN4asio6detail11timer_queueINS2_18chrono_time_traitsINS_6chrono12steady_clockENS1_11wait_traitsIS6_EEEEE10heap_entryENS_9allocatorISB_EEE27__invalidate_iterators_pastB7v160006EPSB_, symObjAddr: 0x6F20, symBinAddr: 0x100009B10, symSize: 0x10 }
  - { offsetInCU: 0xB0BD0, offset: 0xB0BD0, size: 0x8, addend: 0x0, symName: __ZNSt3__16vectorIN4asio6detail11timer_queueINS2_18chrono_time_traitsINS_6chrono12steady_clockENS1_11wait_traitsIS6_EEEEE10heap_entryENS_9allocatorISB_EEE22__base_destruct_at_endB7v160006EPSB_, symObjAddr: 0x6F30, symBinAddr: 0x100009B20, symSize: 0x80 }
  - { offsetInCU: 0xB0C14, offset: 0xB0C14, size: 0x8, addend: 0x0, symName: __ZNKSt3__16vectorIN4asio6detail11timer_queueINS2_18chrono_time_traitsINS_6chrono12steady_clockENS1_11wait_traitsIS6_EEEEE10heap_entryENS_9allocatorISB_EEE17__annotate_shrinkB7v160006Em, symObjAddr: 0x6FB0, symBinAddr: 0x100009BA0, symSize: 0xA0 }
  - { offsetInCU: 0xB0C49, offset: 0xB0C49, size: 0x8, addend: 0x0, symName: __ZNSt3__116allocator_traitsINS_9allocatorIN4asio6detail11timer_queueINS3_18chrono_time_traitsINS_6chrono12steady_clockENS2_11wait_traitsIS7_EEEEE10heap_entryEEEE7destroyB7v160006ISC_vEEvRSD_PT_, symObjAddr: 0x7050, symBinAddr: 0x100009C40, symSize: 0x30 }
  - { offsetInCU: 0xB0C86, offset: 0xB0C86, size: 0x8, addend: 0x0, symName: __ZNSt3__16vectorIN4asio6detail11timer_queueINS2_18chrono_time_traitsINS_6chrono12steady_clockENS1_11wait_traitsIS6_EEEEE10heap_entryENS_9allocatorISB_EEE7__allocB7v160006Ev, symObjAddr: 0x7080, symBinAddr: 0x100009C70, symSize: 0x20 }
  - { offsetInCU: 0xB0CAC, offset: 0xB0CAC, size: 0x8, addend: 0x0, symName: __ZNSt3__19allocatorIN4asio6detail11timer_queueINS2_18chrono_time_traitsINS_6chrono12steady_clockENS1_11wait_traitsIS6_EEEEE10heap_entryEE7destroyB7v160006EPSB_, symObjAddr: 0x70B0, symBinAddr: 0x100009CA0, symSize: 0x10 }
  - { offsetInCU: 0xB0CE1, offset: 0xB0CE1, size: 0x8, addend: 0x0, symName: __ZNSt3__117__compressed_pairIPN4asio6detail11timer_queueINS2_18chrono_time_traitsINS_6chrono12steady_clockENS1_11wait_traitsIS6_EEEEE10heap_entryENS_9allocatorISB_EEE6secondB7v160006Ev, symObjAddr: 0x70C0, symBinAddr: 0x100009CB0, symSize: 0x20 }
  - { offsetInCU: 0xB0D07, offset: 0xB0D07, size: 0x8, addend: 0x0, symName: __ZNSt3__122__compressed_pair_elemINS_9allocatorIN4asio6detail11timer_queueINS3_18chrono_time_traitsINS_6chrono12steady_clockENS2_11wait_traitsIS7_EEEEE10heap_entryEEELi1ELb1EE5__getB7v160006Ev, symObjAddr: 0x70E0, symBinAddr: 0x100009CD0, symSize: 0x10 }
  - { offsetInCU: 0xB0D2D, offset: 0xB0D2D, size: 0x8, addend: 0x0, symName: __ZNKSt3__16vectorIN4asio6detail11timer_queueINS2_18chrono_time_traitsINS_6chrono12steady_clockENS1_11wait_traitsIS6_EEEEE10heap_entryENS_9allocatorISB_EEE31__annotate_contiguous_containerB7v160006EPKvSG_SG_SG_, symObjAddr: 0x70F0, symBinAddr: 0x100009CE0, symSize: 0x20 }
  - { offsetInCU: 0xB0D7F, offset: 0xB0D7F, size: 0x8, addend: 0x0, symName: __ZNKSt3__16vectorIN4asio6detail11timer_queueINS2_18chrono_time_traitsINS_6chrono12steady_clockENS1_11wait_traitsIS6_EEEEE10heap_entryENS_9allocatorISB_EEE4dataB7v160006Ev, symObjAddr: 0x7110, symBinAddr: 0x100009D00, symSize: 0x20 }
  - { offsetInCU: 0xB0DA5, offset: 0xB0DA5, size: 0x8, addend: 0x0, symName: __ZNKSt3__16vectorIN4asio6detail11timer_queueINS2_18chrono_time_traitsINS_6chrono12steady_clockENS1_11wait_traitsIS6_EEEEE10heap_entryENS_9allocatorISB_EEE8capacityB7v160006Ev, symObjAddr: 0x7130, symBinAddr: 0x100009D20, symSize: 0x30 }
  - { offsetInCU: 0xB0DCB, offset: 0xB0DCB, size: 0x8, addend: 0x0, symName: __ZNKSt3__16vectorIN4asio6detail11timer_queueINS2_18chrono_time_traitsINS_6chrono12steady_clockENS1_11wait_traitsIS6_EEEEE10heap_entryENS_9allocatorISB_EEE9__end_capB7v160006Ev, symObjAddr: 0x7160, symBinAddr: 0x100009D50, symSize: 0x20 }
  - { offsetInCU: 0xB0DF1, offset: 0xB0DF1, size: 0x8, addend: 0x0, symName: __ZNKSt3__117__compressed_pairIPN4asio6detail11timer_queueINS2_18chrono_time_traitsINS_6chrono12steady_clockENS1_11wait_traitsIS6_EEEEE10heap_entryENS_9allocatorISB_EEE5firstB7v160006Ev, symObjAddr: 0x7180, symBinAddr: 0x100009D70, symSize: 0x20 }
  - { offsetInCU: 0xB0E17, offset: 0xB0E17, size: 0x8, addend: 0x0, symName: __ZNKSt3__122__compressed_pair_elemIPN4asio6detail11timer_queueINS2_18chrono_time_traitsINS_6chrono12steady_clockENS1_11wait_traitsIS6_EEEEE10heap_entryELi0ELb0EE5__getB7v160006Ev, symObjAddr: 0x71A0, symBinAddr: 0x100009D90, symSize: 0x10 }
  - { offsetInCU: 0xB0E3D, offset: 0xB0E3D, size: 0x8, addend: 0x0, symName: __ZNKSt3__16chrono10time_pointINS0_12steady_clockENS0_8durationIxNS_5ratioILl1ELl1000000000EEEEEE16time_since_epochB7v160006Ev, symObjAddr: 0x7230, symBinAddr: 0x100009E20, symSize: 0x20 }
  - { offsetInCU: 0xB0E6E, offset: 0xB0E6E, size: 0x8, addend: 0x0, symName: __ZNKSt3__16chrono13__duration_ltINS0_8durationIxNS_5ratioILl1ELl1000000000EEEEES5_EclB7v160006ERKS5_S8_, symObjAddr: 0x7250, symBinAddr: 0x100009E40, symSize: 0x50 }
  - { offsetInCU: 0xB0EB2, offset: 0xB0EB2, size: 0x8, addend: 0x0, symName: __ZNKSt3__16chrono8durationIxNS_5ratioILl1ELl1000000000EEEE5countB7v160006Ev, symObjAddr: 0x72A0, symBinAddr: 0x100009E90, symSize: 0x20 }
  - { offsetInCU: 0xB0ED8, offset: 0xB0ED8, size: 0x8, addend: 0x0, symName: __ZN4asio6detail27conditionally_enabled_mutex6unlockEv, symObjAddr: 0x72C0, symBinAddr: 0x100009EB0, symSize: 0x40 }
  - { offsetInCU: 0xB0EFE, offset: 0xB0EFE, size: 0x8, addend: 0x0, symName: __ZN4asio6detail11posix_mutex6unlockEv, symObjAddr: 0x7300, symBinAddr: 0x100009EF0, symSize: 0x20 }
  - { offsetInCU: 0xB0F24, offset: 0xB0F24, size: 0x8, addend: 0x0, symName: __ZNK4asio6detail8op_queueINS0_19scheduler_operationEE5emptyEv, symObjAddr: 0x7320, symBinAddr: 0x100009F10, symSize: 0x20 }
  - { offsetInCU: 0xB0F4A, offset: 0xB0F4A, size: 0x8, addend: 0x0, symName: __ZN4asio6detail10call_stackINS0_14thread_contextENS0_16thread_info_baseEE8containsEPS2_, symObjAddr: 0x7340, symBinAddr: 0x100009F30, symSize: 0x70 }
  - { offsetInCU: 0xB0F7D, offset: 0xB0F7D, size: 0x8, addend: 0x0, symName: __ZN4asio6detail8op_queueINS0_19scheduler_operationEE4pushIS2_EEvRNS1_IT_EE, symObjAddr: 0x73B0, symBinAddr: 0x100009FA0, symSize: 0xA0 }
  - { offsetInCU: 0xB0FD1, offset: 0xB0FD1, size: 0x8, addend: 0x0, symName: __ZN4asio6detail9scheduler26wake_one_thread_and_unlockERNS0_27conditionally_enabled_mutex11scoped_lockE, symObjAddr: 0x7450, symBinAddr: 0x10000A040, symSize: 0x80 }
  - { offsetInCU: 0xB1009, offset: 0xB1009, size: 0x8, addend: 0x0, symName: __ZNK4asio6detail13posix_tss_ptrINS0_10call_stackINS0_14thread_contextENS0_16thread_info_baseEE7contextEEcvPS6_Ev, symObjAddr: 0x74D0, symBinAddr: 0x10000A0C0, symSize: 0x20 }
  - { offsetInCU: 0xB102F, offset: 0xB102F, size: 0x8, addend: 0x0, symName: __ZN4asio6detail15op_queue_access5frontINS0_19scheduler_operationEEERPT_RNS0_8op_queueIS4_EE, symObjAddr: 0x74F0, symBinAddr: 0x10000A0E0, symSize: 0x10 }
  - { offsetInCU: 0xB105C, offset: 0xB105C, size: 0x8, addend: 0x0, symName: __ZN4asio6detail15op_queue_access4backINS0_19scheduler_operationEEERPT_RNS0_8op_queueIS4_EE, symObjAddr: 0x7500, symBinAddr: 0x10000A0F0, symSize: 0x20 }
  - { offsetInCU: 0xB1089, offset: 0xB1089, size: 0x8, addend: 0x0, symName: __ZN4asio6detail27conditionally_enabled_event27maybe_unlock_and_signal_oneERNS0_27conditionally_enabled_mutex11scoped_lockE, symObjAddr: 0x7520, symBinAddr: 0x10000A110, symSize: 0x60 }
  - { offsetInCU: 0xB10BE, offset: 0xB10BE, size: 0x8, addend: 0x0, symName: __ZN4asio6detail11posix_event27maybe_unlock_and_signal_oneINS0_27conditionally_enabled_mutex11scoped_lockEEEbRT_, symObjAddr: 0x7580, symBinAddr: 0x10000A170, symSize: 0xA0 }
  - { offsetInCU: 0xB10FC, offset: 0xB10FC, size: 0x8, addend: 0x0, symName: __ZNK4asio6detail27conditionally_enabled_mutex11scoped_lock6lockedEv, symObjAddr: 0x7620, symBinAddr: 0x10000A210, symSize: 0x20 }
  - { offsetInCU: 0xB1122, offset: 0xB1122, size: 0x8, addend: 0x0, symName: __ZN4asio6detail8op_queueINS0_19scheduler_operationEED2Ev, symObjAddr: 0x7640, symBinAddr: 0x10000A230, symSize: 0x70 }
  - { offsetInCU: 0xB1162, offset: 0xB1162, size: 0x8, addend: 0x0, symName: __ZN4asio6detail8op_queueINS0_19scheduler_operationEE3popEv, symObjAddr: 0x76B0, symBinAddr: 0x10000A2A0, symSize: 0x70 }
  - { offsetInCU: 0xB11A5, offset: 0xB11A5, size: 0x8, addend: 0x0, symName: __ZN4asio6detail15op_queue_access7destroyINS0_19scheduler_operationEEEvPT_, symObjAddr: 0x7720, symBinAddr: 0x10000A310, symSize: 0x20 }
  - { offsetInCU: 0xB11D2, offset: 0xB11D2, size: 0x8, addend: 0x0, symName: __ZN4asio6detail15op_queue_access4nextINS0_19scheduler_operationEEEPT_S5_, symObjAddr: 0x7740, symBinAddr: 0x10000A330, symSize: 0x20 }
  - { offsetInCU: 0xB11FF, offset: 0xB11FF, size: 0x8, addend: 0x0, symName: __ZN4asio6detail19scheduler_operation7destroyEv, symObjAddr: 0x7760, symBinAddr: 0x10000A350, symSize: 0x40 }
  - { offsetInCU: 0xB1225, offset: 0xB1225, size: 0x8, addend: 0x0, symName: __ZN4asio6detail27conditionally_enabled_mutex11scoped_lockD2Ev, symObjAddr: 0x77A0, symBinAddr: 0x10000A390, symSize: 0x50 }
  - { offsetInCU: 0xB124F, offset: 0xB124F, size: 0x8, addend: 0x0, symName: __ZNSt3__123__libcpp_numeric_limitsImLb1EE3maxB7v160006Ev, symObjAddr: 0x77F0, symBinAddr: 0x10000A3E0, symSize: 0x10 }
  - { offsetInCU: 0xB1263, offset: 0xB1263, size: 0x8, addend: 0x0, symName: __ZN4asio15any_io_executorD2Ev, symObjAddr: 0x7800, symBinAddr: 0x10000A3F0, symSize: 0x20 }
  - { offsetInCU: 0xB1290, offset: 0xB1290, size: 0x8, addend: 0x0, symName: __ZN4asio9execution12any_executorIJNS0_12context_as_tIRNS_17execution_contextEEENS0_6detail8blocking7never_tILi0EEENS0_11prefer_onlyINS7_10possibly_tILi0EEEEENSA_INS6_16outstanding_work9tracked_tILi0EEEEENSA_INSE_11untracked_tILi0EEEEENSA_INS6_12relationship6fork_tILi0EEEEENSA_INSL_14continuation_tILi0EEEEEEED2Ev, symObjAddr: 0x7820, symBinAddr: 0x10000A410, symSize: 0x20 }
  - { offsetInCU: 0xB12BD, offset: 0xB12BD, size: 0x8, addend: 0x0, symName: __ZN4asio9execution6detail17any_executor_baseD2Ev, symObjAddr: 0x7840, symBinAddr: 0x10000A430, symSize: 0x50 }
  - { offsetInCU: 0xB12E7, offset: 0xB12E7, size: 0x8, addend: 0x0, symName: __ZNK4asio9execution6detail17any_executor_basentEv, symObjAddr: 0x7890, symBinAddr: 0x10000A480, symSize: 0x20 }
  - { offsetInCU: 0xB130D, offset: 0xB130D, size: 0x8, addend: 0x0, symName: __ZN4asio6detail22deadline_timer_serviceINS0_18chrono_time_traitsINSt3__16chrono12steady_clockENS_11wait_traitsIS5_EEEEE19implementation_typeD2Ev, symObjAddr: 0x78B0, symBinAddr: 0x10000A4A0, symSize: 0x30 }
  - { offsetInCU: 0xB1339, offset: 0xB1339, size: 0x8, addend: 0x0, symName: __ZN4asio6detail11timer_queueINS0_18chrono_time_traitsINSt3__16chrono12steady_clockENS_11wait_traitsIS5_EEEEE14per_timer_dataD1Ev, symObjAddr: 0x78E0, symBinAddr: 0x10000A4D0, symSize: 0x20 }
  - { offsetInCU: 0xB1365, offset: 0xB1365, size: 0x8, addend: 0x0, symName: __ZN4asio6detail11timer_queueINS0_18chrono_time_traitsINSt3__16chrono12steady_clockENS_11wait_traitsIS5_EEEEE14per_timer_dataD2Ev, symObjAddr: 0x7900, symBinAddr: 0x10000A4F0, symSize: 0x20 }
  - { offsetInCU: 0xB1391, offset: 0xB1391, size: 0x8, addend: 0x0, symName: __ZN4asio6detail8op_queueINS0_7wait_opEED1Ev, symObjAddr: 0x7920, symBinAddr: 0x10000A510, symSize: 0x20 }
  - { offsetInCU: 0xB13BB, offset: 0xB13BB, size: 0x8, addend: 0x0, symName: __ZN4asio6detail8op_queueINS0_7wait_opEED2Ev, symObjAddr: 0x7940, symBinAddr: 0x10000A530, symSize: 0x70 }
  - { offsetInCU: 0xB13FB, offset: 0xB13FB, size: 0x8, addend: 0x0, symName: __ZN4asio6detail15op_queue_access7destroyINS0_7wait_opEEEvPT_, symObjAddr: 0x79B0, symBinAddr: 0x10000A5A0, symSize: 0x20 }
  - { offsetInCU: 0xB1428, offset: 0xB1428, size: 0x8, addend: 0x0, symName: __ZN4asio16basic_signal_setINS_15any_io_executorEED2Ev, symObjAddr: 0x79D0, symBinAddr: 0x10000A5C0, symSize: 0x30 }
  - { offsetInCU: 0xB1452, offset: 0xB1452, size: 0x8, addend: 0x0, symName: __ZN4asio6detail14io_object_implINS0_18signal_set_serviceENS_15any_io_executorEED1Ev, symObjAddr: 0x7A00, symBinAddr: 0x10000A5F0, symSize: 0x20 }
  - { offsetInCU: 0xB147C, offset: 0xB147C, size: 0x8, addend: 0x0, symName: __ZN4asio15signal_set_baseD2Ev, symObjAddr: 0x7A20, symBinAddr: 0x10000A610, symSize: 0x10 }
  - { offsetInCU: 0xB14A6, offset: 0xB14A6, size: 0x8, addend: 0x0, symName: __ZN4asio6detail14io_object_implINS0_18signal_set_serviceENS_15any_io_executorEED2Ev, symObjAddr: 0x7A30, symBinAddr: 0x10000A620, symSize: 0x50 }
  - { offsetInCU: 0xB14D0, offset: 0xB14D0, size: 0x8, addend: 0x0, symName: __ZN4asio6detail18signal_set_service7destroyERNS1_19implementation_typeE, symObjAddr: 0x7A80, symBinAddr: 0x10000A670, symSize: 0x60 }
  - { offsetInCU: 0xB1517, offset: 0xB1517, size: 0x8, addend: 0x0, symName: __ZN4asio6detail18signal_set_service19implementation_typeD1Ev, symObjAddr: 0x7AE0, symBinAddr: 0x10000A6D0, symSize: 0x20 }
  - { offsetInCU: 0xB1543, offset: 0xB1543, size: 0x8, addend: 0x0, symName: __ZN4asio6detail18signal_set_service5clearERNS1_19implementation_typeERNSt3__110error_codeE, symObjAddr: 0x7B00, symBinAddr: 0x10000A6F0, symSize: 0x280 }
  - { offsetInCU: 0xB15D8, offset: 0xB15D8, size: 0x8, addend: 0x0, symName: __ZN4asio6detail18signal_set_service6cancelERNS1_19implementation_typeERNSt3__110error_codeE, symObjAddr: 0x7D80, symBinAddr: 0x10000A970, symSize: 0x140 }
  - { offsetInCU: 0xB166B, offset: 0xB166B, size: 0x8, addend: 0x0, symName: __ZN4asio6detail11scoped_lockINS0_18posix_static_mutexEEC1ERS2_, symObjAddr: 0x7ED0, symBinAddr: 0x10000AAC0, symSize: 0x30 }
  - { offsetInCU: 0xB16A4, offset: 0xB16A4, size: 0x8, addend: 0x0, symName: __ZN4asio6detail11scoped_lockINS0_18posix_static_mutexEED1Ev, symObjAddr: 0x7F00, symBinAddr: 0x10000AAF0, symSize: 0x20 }
  - { offsetInCU: 0xB16CE, offset: 0xB16CE, size: 0x8, addend: 0x0, symName: __ZN4asio6detail11scoped_lockINS0_18posix_static_mutexEEC2ERS2_, symObjAddr: 0x7F20, symBinAddr: 0x10000AB10, symSize: 0x70 }
  - { offsetInCU: 0xB1707, offset: 0xB1707, size: 0x8, addend: 0x0, symName: __ZN4asio6detail18posix_static_mutex4lockEv, symObjAddr: 0x7F90, symBinAddr: 0x10000AB80, symSize: 0x20 }
  - { offsetInCU: 0xB172D, offset: 0xB172D, size: 0x8, addend: 0x0, symName: __ZN4asio6detail11scoped_lockINS0_18posix_static_mutexEED2Ev, symObjAddr: 0x7FB0, symBinAddr: 0x10000ABA0, symSize: 0x50 }
  - { offsetInCU: 0xB1757, offset: 0xB1757, size: 0x8, addend: 0x0, symName: __ZN4asio6detail18posix_static_mutex6unlockEv, symObjAddr: 0x8000, symBinAddr: 0x10000ABF0, symSize: 0x20 }
  - { offsetInCU: 0xB177D, offset: 0xB177D, size: 0x8, addend: 0x0, symName: __ZN4asio6detail8op_queueINS0_9signal_opEE5frontEv, symObjAddr: 0x8020, symBinAddr: 0x10000AC10, symSize: 0x20 }
  - { offsetInCU: 0xB17A3, offset: 0xB17A3, size: 0x8, addend: 0x0, symName: __ZN4asio6detail8op_queueINS0_9signal_opEE3popEv, symObjAddr: 0x8040, symBinAddr: 0x10000AC30, symSize: 0x70 }
  - { offsetInCU: 0xB17E6, offset: 0xB17E6, size: 0x8, addend: 0x0, symName: __ZN4asio6detail15op_queue_access4nextINS0_9signal_opEEEPT_S5_, symObjAddr: 0x80B0, symBinAddr: 0x10000ACA0, symSize: 0x20 }
  - { offsetInCU: 0xB1819, offset: 0xB1819, size: 0x8, addend: 0x0, symName: __ZN4asio6detail15op_queue_access4nextINS0_9signal_opES3_EEvRPT_PT0_, symObjAddr: 0x80D0, symBinAddr: 0x10000ACC0, symSize: 0x20 }
  - { offsetInCU: 0xB185E, offset: 0xB185E, size: 0x8, addend: 0x0, symName: __ZN4asio6detail18signal_set_service19implementation_typeD2Ev, symObjAddr: 0x80F0, symBinAddr: 0x10000ACE0, symSize: 0x20 }
  - { offsetInCU: 0xB188A, offset: 0xB188A, size: 0x8, addend: 0x0, symName: __ZN4asio6detail8op_queueINS0_9signal_opEED1Ev, symObjAddr: 0x8110, symBinAddr: 0x10000AD00, symSize: 0x20 }
  - { offsetInCU: 0xB18B4, offset: 0xB18B4, size: 0x8, addend: 0x0, symName: __ZN4asio6detail8op_queueINS0_9signal_opEED2Ev, symObjAddr: 0x8130, symBinAddr: 0x10000AD20, symSize: 0x70 }
  - { offsetInCU: 0xB18F4, offset: 0xB18F4, size: 0x8, addend: 0x0, symName: __ZN4asio6detail15op_queue_access7destroyINS0_9signal_opEEEvPT_, symObjAddr: 0x81A0, symBinAddr: 0x10000AD90, symSize: 0x20 }
  - { offsetInCU: 0xB1921, offset: 0xB1921, size: 0x8, addend: 0x0, symName: __ZN4asio21basic_socket_acceptorINS_2ip3tcpENS_15any_io_executorEED2Ev, symObjAddr: 0x81C0, symBinAddr: 0x10000ADB0, symSize: 0x30 }
  - { offsetInCU: 0xB194B, offset: 0xB194B, size: 0x8, addend: 0x0, symName: __ZN4asio6detail14io_object_implINS0_23reactive_socket_serviceINS_2ip3tcpEEENS_15any_io_executorEED1Ev, symObjAddr: 0x81F0, symBinAddr: 0x10000ADE0, symSize: 0x20 }
  - { offsetInCU: 0xB1975, offset: 0xB1975, size: 0x8, addend: 0x0, symName: __ZN4asio11socket_baseD2Ev, symObjAddr: 0x8210, symBinAddr: 0x10000AE00, symSize: 0x10 }
  - { offsetInCU: 0xB199F, offset: 0xB199F, size: 0x8, addend: 0x0, symName: __ZN4asio6detail14io_object_implINS0_23reactive_socket_serviceINS_2ip3tcpEEENS_15any_io_executorEED2Ev, symObjAddr: 0x8220, symBinAddr: 0x10000AE10, symSize: 0x50 }
  - { offsetInCU: 0xB19C9, offset: 0xB19C9, size: 0x8, addend: 0x0, symName: __ZN4asio6detail28reactive_socket_service_base7destroyERNS1_24base_implementation_typeE, symObjAddr: 0x8270, symBinAddr: 0x10000AE60, symSize: 0xA0 }
  - { offsetInCU: 0xB1A20, offset: 0xB1A20, size: 0x8, addend: 0x0, symName: __ZN4asio6detail14kqueue_reactor21deregister_descriptorEiRPNS1_16descriptor_stateEb, symObjAddr: 0x8310, symBinAddr: 0x10000AF00, symSize: 0x350 }
  - { offsetInCU: 0xB1B29, offset: 0xB1B29, size: 0x8, addend: 0x0, symName: __ZN4asio6detail14kqueue_reactor23cleanup_descriptor_dataERPNS1_16descriptor_stateE, symObjAddr: 0x87F0, symBinAddr: 0x10000B3E0, symSize: 0x50 }
  - { offsetInCU: 0xB1B61, offset: 0xB1B61, size: 0x8, addend: 0x0, symName: __ZN4asio6detail8op_queueINS0_10reactor_opEE5frontEv, symObjAddr: 0x8840, symBinAddr: 0x10000B430, symSize: 0x20 }
  - { offsetInCU: 0xB1B87, offset: 0xB1B87, size: 0x8, addend: 0x0, symName: __ZN4asio6detail8op_queueINS0_10reactor_opEE3popEv, symObjAddr: 0x8860, symBinAddr: 0x10000B450, symSize: 0x70 }
  - { offsetInCU: 0xB1BCA, offset: 0xB1BCA, size: 0x8, addend: 0x0, symName: __ZN4asio6detail15op_queue_access4nextINS0_10reactor_opEEEPT_S5_, symObjAddr: 0x88D0, symBinAddr: 0x10000B4C0, symSize: 0x20 }
  - { offsetInCU: 0xB1BFD, offset: 0xB1BFD, size: 0x8, addend: 0x0, symName: __ZN4asio6detail15op_queue_access4nextINS0_10reactor_opES3_EEvRPT_PT0_, symObjAddr: 0x88F0, symBinAddr: 0x10000B4E0, symSize: 0x20 }
  - { offsetInCU: 0xB1C42, offset: 0xB1C42, size: 0x8, addend: 0x0, symName: __ZNSt3__110error_codeC1B7v160006IN4asio5error12basic_errorsEEET_PNS_9enable_ifIXsr18is_error_code_enumIS5_EE5valueEvE4typeE, symObjAddr: 0x8BC0, symBinAddr: 0x10000B7B0, symSize: 0x30 }
  - { offsetInCU: 0xB1C8F, offset: 0xB1C8F, size: 0x8, addend: 0x0, symName: __ZNSt3__110error_code6assignB7v160006EiRKNS_14error_categoryE, symObjAddr: 0x8C70, symBinAddr: 0x10000B860, symSize: 0x30 }
  - { offsetInCU: 0xB1CD3, offset: 0xB1CD3, size: 0x8, addend: 0x0, symName: __ZNKSt3__110error_code8categoryB7v160006Ev, symObjAddr: 0x8CA0, symBinAddr: 0x10000B890, symSize: 0x20 }
  - { offsetInCU: 0xB1CF9, offset: 0xB1CF9, size: 0x8, addend: 0x0, symName: __ZNKSt3__114error_categoryeqB7v160006ERKS0_, symObjAddr: 0x8CC0, symBinAddr: 0x10000B8B0, symSize: 0x20 }
  - { offsetInCU: 0xB1D2E, offset: 0xB1D2E, size: 0x8, addend: 0x0, symName: __ZNKSt3__110error_code5valueB7v160006Ev, symObjAddr: 0x8CE0, symBinAddr: 0x10000B8D0, symSize: 0x10 }
  - { offsetInCU: 0xB1D54, offset: 0xB1D54, size: 0x8, addend: 0x0, symName: __ZNSt3__110error_codeC2B7v160006IN4asio5error12basic_errorsEEET_PNS_9enable_ifIXsr18is_error_code_enumIS5_EE5valueEvE4typeE, symObjAddr: 0x8CF0, symBinAddr: 0x10000B8E0, symSize: 0x60 }
  - { offsetInCU: 0xB1DB1, offset: 0xB1DB1, size: 0x8, addend: 0x0, symName: __ZN4asio6detail14kqueue_reactor21free_descriptor_stateEPNS1_16descriptor_stateE, symObjAddr: 0x8D50, symBinAddr: 0x10000B940, symSize: 0x70 }
  - { offsetInCU: 0xB1DF8, offset: 0xB1DF8, size: 0x8, addend: 0x0, symName: __ZN4asio6detail11object_poolINS0_14kqueue_reactor16descriptor_stateEE4freeEPS3_, symObjAddr: 0x8DC0, symBinAddr: 0x10000B9B0, symSize: 0x100 }
  - { offsetInCU: 0xB1E33, offset: 0xB1E33, size: 0x8, addend: 0x0, symName: __ZN4asio6detail18object_pool_access4nextINS0_14kqueue_reactor16descriptor_stateEEERPT_S6_, symObjAddr: 0x8EC0, symBinAddr: 0x10000BAB0, symSize: 0x10 }
  - { offsetInCU: 0xB1E60, offset: 0xB1E60, size: 0x8, addend: 0x0, symName: __ZN4asio6detail18object_pool_access4prevINS0_14kqueue_reactor16descriptor_stateEEERPT_S6_, symObjAddr: 0x8ED0, symBinAddr: 0x10000BAC0, symSize: 0x20 }
  - { offsetInCU: 0xB1E8D, offset: 0xB1E8D, size: 0x8, addend: 0x0, symName: __ZNSt3__16vectorINS_8functionIFNS_12basic_stringIcNS_11char_traitsIcEENS_9allocatorIcEEEEvEEENS5_IS9_EEED2B7v160006Ev, symObjAddr: 0x8EF0, symBinAddr: 0x10000BAE0, symSize: 0x40 }
  - { offsetInCU: 0xB1EB7, offset: 0xB1EB7, size: 0x8, addend: 0x0, symName: __ZNSt3__16vectorINS_8functionIFNS_12basic_stringIcNS_11char_traitsIcEENS_9allocatorIcEEEEvEEENS5_IS9_EEE16__destroy_vectorC1ERSB_, symObjAddr: 0x8F30, symBinAddr: 0x10000BB20, symSize: 0x30 }
  - { offsetInCU: 0xB1EF0, offset: 0xB1EF0, size: 0x8, addend: 0x0, symName: __ZNSt3__16vectorINS_8functionIFNS_12basic_stringIcNS_11char_traitsIcEENS_9allocatorIcEEEEvEEENS5_IS9_EEE16__destroy_vectorclB7v160006Ev, symObjAddr: 0x8F60, symBinAddr: 0x10000BB50, symSize: 0x90 }
  - { offsetInCU: 0xB1F16, offset: 0xB1F16, size: 0x8, addend: 0x0, symName: __ZNSt3__16vectorINS_8functionIFNS_12basic_stringIcNS_11char_traitsIcEENS_9allocatorIcEEEEvEEENS5_IS9_EEE16__destroy_vectorC2ERSB_, symObjAddr: 0x8FF0, symBinAddr: 0x10000BBE0, symSize: 0x20 }
  - { offsetInCU: 0xB1F4F, offset: 0xB1F4F, size: 0x8, addend: 0x0, symName: __ZNKSt3__16vectorINS_8functionIFNS_12basic_stringIcNS_11char_traitsIcEENS_9allocatorIcEEEEvEEENS5_IS9_EEE17__annotate_deleteB7v160006Ev, symObjAddr: 0x9010, symBinAddr: 0x10000BC00, symSize: 0xB0 }
  - { offsetInCU: 0xB1F75, offset: 0xB1F75, size: 0x8, addend: 0x0, symName: __ZNSt3__16vectorINS_8functionIFNS_12basic_stringIcNS_11char_traitsIcEENS_9allocatorIcEEEEvEEENS5_IS9_EEE7__clearB7v160006Ev, symObjAddr: 0x90D0, symBinAddr: 0x10000BCC0, symSize: 0x20 }
  - { offsetInCU: 0xB1F9B, offset: 0xB1F9B, size: 0x8, addend: 0x0, symName: __ZNSt3__116allocator_traitsINS_9allocatorINS_8functionIFNS_12basic_stringIcNS_11char_traitsIcEENS1_IcEEEEvEEEEEE10deallocateB7v160006ERSA_PS9_m, symObjAddr: 0x90F0, symBinAddr: 0x10000BCE0, symSize: 0x30 }
  - { offsetInCU: 0xB1FDD, offset: 0xB1FDD, size: 0x8, addend: 0x0, symName: __ZNSt3__16vectorINS_8functionIFNS_12basic_stringIcNS_11char_traitsIcEENS_9allocatorIcEEEEvEEENS5_IS9_EEE7__allocB7v160006Ev, symObjAddr: 0x9120, symBinAddr: 0x10000BD10, symSize: 0x20 }
  - { offsetInCU: 0xB2003, offset: 0xB2003, size: 0x8, addend: 0x0, symName: __ZNKSt3__16vectorINS_8functionIFNS_12basic_stringIcNS_11char_traitsIcEENS_9allocatorIcEEEEvEEENS5_IS9_EEE8capacityB7v160006Ev, symObjAddr: 0x9140, symBinAddr: 0x10000BD30, symSize: 0x40 }
  - { offsetInCU: 0xB2029, offset: 0xB2029, size: 0x8, addend: 0x0, symName: __ZNKSt3__16vectorINS_8functionIFNS_12basic_stringIcNS_11char_traitsIcEENS_9allocatorIcEEEEvEEENS5_IS9_EEE31__annotate_contiguous_containerB7v160006EPKvSD_SD_SD_, symObjAddr: 0x9180, symBinAddr: 0x10000BD70, symSize: 0x20 }
  - { offsetInCU: 0xB207B, offset: 0xB207B, size: 0x8, addend: 0x0, symName: __ZNKSt3__16vectorINS_8functionIFNS_12basic_stringIcNS_11char_traitsIcEENS_9allocatorIcEEEEvEEENS5_IS9_EEE4dataB7v160006Ev, symObjAddr: 0x91A0, symBinAddr: 0x10000BD90, symSize: 0x20 }
  - { offsetInCU: 0xB20A1, offset: 0xB20A1, size: 0x8, addend: 0x0, symName: __ZNKSt3__16vectorINS_8functionIFNS_12basic_stringIcNS_11char_traitsIcEENS_9allocatorIcEEEEvEEENS5_IS9_EEE4sizeB7v160006Ev, symObjAddr: 0x91C0, symBinAddr: 0x10000BDB0, symSize: 0x30 }
  - { offsetInCU: 0xB20C7, offset: 0xB20C7, size: 0x8, addend: 0x0, symName: __ZNSt3__16vectorINS_8functionIFNS_12basic_stringIcNS_11char_traitsIcEENS_9allocatorIcEEEEvEEENS5_IS9_EEE22__base_destruct_at_endB7v160006EPS9_, symObjAddr: 0x9200, symBinAddr: 0x10000BDF0, symSize: 0x80 }
  - { offsetInCU: 0xB210B, offset: 0xB210B, size: 0x8, addend: 0x0, symName: __ZNSt3__116allocator_traitsINS_9allocatorINS_8functionIFNS_12basic_stringIcNS_11char_traitsIcEENS1_IcEEEEvEEEEEE7destroyB7v160006IS9_vEEvRSA_PT_, symObjAddr: 0x9280, symBinAddr: 0x10000BE70, symSize: 0x30 }
  - { offsetInCU: 0xB2148, offset: 0xB2148, size: 0x8, addend: 0x0, symName: __ZNSt3__19allocatorINS_8functionIFNS_12basic_stringIcNS_11char_traitsIcEENS0_IcEEEEvEEEE7destroyB7v160006EPS8_, symObjAddr: 0x92B0, symBinAddr: 0x10000BEA0, symSize: 0x20 }
  - { offsetInCU: 0xB217D, offset: 0xB217D, size: 0x8, addend: 0x0, symName: __ZNSt3__18functionIFNS_12basic_stringIcNS_11char_traitsIcEENS_9allocatorIcEEEEvEED1Ev, symObjAddr: 0x92D0, symBinAddr: 0x10000BEC0, symSize: 0x20 }
  - { offsetInCU: 0xB21A9, offset: 0xB21A9, size: 0x8, addend: 0x0, symName: __ZNSt3__18functionIFNS_12basic_stringIcNS_11char_traitsIcEENS_9allocatorIcEEEEvEED2Ev, symObjAddr: 0x92F0, symBinAddr: 0x10000BEE0, symSize: 0x20 }
  - { offsetInCU: 0xB21D5, offset: 0xB21D5, size: 0x8, addend: 0x0, symName: __ZNSt3__110__function12__value_funcIFNS_12basic_stringIcNS_11char_traitsIcEENS_9allocatorIcEEEEvEED1B7v160006Ev, symObjAddr: 0x9310, symBinAddr: 0x10000BF00, symSize: 0x20 }
  - { offsetInCU: 0xB21FF, offset: 0xB21FF, size: 0x8, addend: 0x0, symName: __ZNSt3__110__function12__value_funcIFNS_12basic_stringIcNS_11char_traitsIcEENS_9allocatorIcEEEEvEED2B7v160006Ev, symObjAddr: 0x9330, symBinAddr: 0x10000BF20, symSize: 0x60 }
  - { offsetInCU: 0xB2229, offset: 0xB2229, size: 0x8, addend: 0x0, symName: __ZNSt3__19allocatorINS_8functionIFNS_12basic_stringIcNS_11char_traitsIcEENS0_IcEEEEvEEEE10deallocateB7v160006EPS8_m, symObjAddr: 0x9390, symBinAddr: 0x10000BF80, symSize: 0x50 }
  - { offsetInCU: 0xB226D, offset: 0xB226D, size: 0x8, addend: 0x0, symName: __ZNSt3__117__compressed_pairIPNS_8functionIFNS_12basic_stringIcNS_11char_traitsIcEENS_9allocatorIcEEEEvEEENS5_IS9_EEE6secondB7v160006Ev, symObjAddr: 0x93E0, symBinAddr: 0x10000BFD0, symSize: 0x20 }
  - { offsetInCU: 0xB2293, offset: 0xB2293, size: 0x8, addend: 0x0, symName: __ZNSt3__122__compressed_pair_elemINS_9allocatorINS_8functionIFNS_12basic_stringIcNS_11char_traitsIcEENS1_IcEEEEvEEEEELi1ELb1EE5__getB7v160006Ev, symObjAddr: 0x9400, symBinAddr: 0x10000BFF0, symSize: 0x10 }
  - { offsetInCU: 0xB22B9, offset: 0xB22B9, size: 0x8, addend: 0x0, symName: __ZNKSt3__16vectorINS_8functionIFNS_12basic_stringIcNS_11char_traitsIcEENS_9allocatorIcEEEEvEEENS5_IS9_EEE9__end_capB7v160006Ev, symObjAddr: 0x9410, symBinAddr: 0x10000C000, symSize: 0x20 }
  - { offsetInCU: 0xB22DF, offset: 0xB22DF, size: 0x8, addend: 0x0, symName: __ZNKSt3__117__compressed_pairIPNS_8functionIFNS_12basic_stringIcNS_11char_traitsIcEENS_9allocatorIcEEEEvEEENS5_IS9_EEE5firstB7v160006Ev, symObjAddr: 0x9430, symBinAddr: 0x10000C020, symSize: 0x20 }
  - { offsetInCU: 0xB2305, offset: 0xB2305, size: 0x8, addend: 0x0, symName: __ZNKSt3__122__compressed_pair_elemIPNS_8functionIFNS_12basic_stringIcNS_11char_traitsIcEENS_9allocatorIcEEEEvEEELi0ELb0EE5__getB7v160006Ev, symObjAddr: 0x9450, symBinAddr: 0x10000C040, symSize: 0x10 }
  - { offsetInCU: 0xB232B, offset: 0xB232B, size: 0x8, addend: 0x0, symName: __ZNSt3__16vectorIPN4crow6detail10task_timerENS_9allocatorIS4_EEED2B7v160006Ev, symObjAddr: 0x9460, symBinAddr: 0x10000C050, symSize: 0x40 }
  - { offsetInCU: 0xB2355, offset: 0xB2355, size: 0x8, addend: 0x0, symName: __ZNSt3__16vectorIPN4crow6detail10task_timerENS_9allocatorIS4_EEE16__destroy_vectorC1ERS7_, symObjAddr: 0x94A0, symBinAddr: 0x10000C090, symSize: 0x30 }
  - { offsetInCU: 0xB238E, offset: 0xB238E, size: 0x8, addend: 0x0, symName: __ZNSt3__16vectorIPN4crow6detail10task_timerENS_9allocatorIS4_EEE16__destroy_vectorclB7v160006Ev, symObjAddr: 0x94D0, symBinAddr: 0x10000C0C0, symSize: 0x90 }
  - { offsetInCU: 0xB23B4, offset: 0xB23B4, size: 0x8, addend: 0x0, symName: __ZNSt3__16vectorIPN4crow6detail10task_timerENS_9allocatorIS4_EEE16__destroy_vectorC2ERS7_, symObjAddr: 0x9560, symBinAddr: 0x10000C150, symSize: 0x20 }
  - { offsetInCU: 0xB23ED, offset: 0xB23ED, size: 0x8, addend: 0x0, symName: __ZNKSt3__16vectorIPN4crow6detail10task_timerENS_9allocatorIS4_EEE17__annotate_deleteB7v160006Ev, symObjAddr: 0x9580, symBinAddr: 0x10000C170, symSize: 0xB0 }
  - { offsetInCU: 0xB2413, offset: 0xB2413, size: 0x8, addend: 0x0, symName: __ZNSt3__16vectorIPN4crow6detail10task_timerENS_9allocatorIS4_EEE7__clearB7v160006Ev, symObjAddr: 0x9640, symBinAddr: 0x10000C230, symSize: 0x20 }
  - { offsetInCU: 0xB2439, offset: 0xB2439, size: 0x8, addend: 0x0, symName: __ZNSt3__116allocator_traitsINS_9allocatorIPN4crow6detail10task_timerEEEE10deallocateB7v160006ERS6_PS5_m, symObjAddr: 0x9660, symBinAddr: 0x10000C250, symSize: 0x30 }
  - { offsetInCU: 0xB247B, offset: 0xB247B, size: 0x8, addend: 0x0, symName: __ZNSt3__16vectorIPN4crow6detail10task_timerENS_9allocatorIS4_EEE7__allocB7v160006Ev, symObjAddr: 0x9690, symBinAddr: 0x10000C280, symSize: 0x20 }
  - { offsetInCU: 0xB24A1, offset: 0xB24A1, size: 0x8, addend: 0x0, symName: __ZNKSt3__16vectorIPN4crow6detail10task_timerENS_9allocatorIS4_EEE8capacityB7v160006Ev, symObjAddr: 0x96B0, symBinAddr: 0x10000C2A0, symSize: 0x30 }
  - { offsetInCU: 0xB24C7, offset: 0xB24C7, size: 0x8, addend: 0x0, symName: __ZNKSt3__16vectorIPN4crow6detail10task_timerENS_9allocatorIS4_EEE31__annotate_contiguous_containerB7v160006EPKvS9_S9_S9_, symObjAddr: 0x96E0, symBinAddr: 0x10000C2D0, symSize: 0x20 }
  - { offsetInCU: 0xB2519, offset: 0xB2519, size: 0x8, addend: 0x0, symName: __ZNKSt3__16vectorIPN4crow6detail10task_timerENS_9allocatorIS4_EEE4dataB7v160006Ev, symObjAddr: 0x9700, symBinAddr: 0x10000C2F0, symSize: 0x20 }
  - { offsetInCU: 0xB253F, offset: 0xB253F, size: 0x8, addend: 0x0, symName: __ZNKSt3__16vectorIPN4crow6detail10task_timerENS_9allocatorIS4_EEE4sizeB7v160006Ev, symObjAddr: 0x9720, symBinAddr: 0x10000C310, symSize: 0x20 }
  - { offsetInCU: 0xB2565, offset: 0xB2565, size: 0x8, addend: 0x0, symName: __ZNSt3__16vectorIPN4crow6detail10task_timerENS_9allocatorIS4_EEE22__base_destruct_at_endB7v160006EPS4_, symObjAddr: 0x9750, symBinAddr: 0x10000C340, symSize: 0x80 }
  - { offsetInCU: 0xB25A9, offset: 0xB25A9, size: 0x8, addend: 0x0, symName: __ZNSt3__116allocator_traitsINS_9allocatorIPN4crow6detail10task_timerEEEE7destroyB7v160006IS5_vEEvRS6_PT_, symObjAddr: 0x97D0, symBinAddr: 0x10000C3C0, symSize: 0x30 }
  - { offsetInCU: 0xB25E6, offset: 0xB25E6, size: 0x8, addend: 0x0, symName: __ZNSt3__19allocatorIPN4crow6detail10task_timerEE7destroyB7v160006EPS4_, symObjAddr: 0x9800, symBinAddr: 0x10000C3F0, symSize: 0x10 }
  - { offsetInCU: 0xB261B, offset: 0xB261B, size: 0x8, addend: 0x0, symName: __ZNSt3__19allocatorIPN4crow6detail10task_timerEE10deallocateB7v160006EPS4_m, symObjAddr: 0x9810, symBinAddr: 0x10000C400, symSize: 0x40 }
  - { offsetInCU: 0xB265F, offset: 0xB265F, size: 0x8, addend: 0x0, symName: __ZNSt3__117__compressed_pairIPPN4crow6detail10task_timerENS_9allocatorIS4_EEE6secondB7v160006Ev, symObjAddr: 0x9850, symBinAddr: 0x10000C440, symSize: 0x20 }
  - { offsetInCU: 0xB2685, offset: 0xB2685, size: 0x8, addend: 0x0, symName: __ZNSt3__122__compressed_pair_elemINS_9allocatorIPN4crow6detail10task_timerEEELi1ELb1EE5__getB7v160006Ev, symObjAddr: 0x9870, symBinAddr: 0x10000C460, symSize: 0x10 }
  - { offsetInCU: 0xB26AB, offset: 0xB26AB, size: 0x8, addend: 0x0, symName: __ZNKSt3__16vectorIPN4crow6detail10task_timerENS_9allocatorIS4_EEE9__end_capB7v160006Ev, symObjAddr: 0x9880, symBinAddr: 0x10000C470, symSize: 0x20 }
  - { offsetInCU: 0xB26D1, offset: 0xB26D1, size: 0x8, addend: 0x0, symName: __ZNKSt3__117__compressed_pairIPPN4crow6detail10task_timerENS_9allocatorIS4_EEE5firstB7v160006Ev, symObjAddr: 0x98A0, symBinAddr: 0x10000C490, symSize: 0x20 }
  - { offsetInCU: 0xB26F7, offset: 0xB26F7, size: 0x8, addend: 0x0, symName: __ZNKSt3__122__compressed_pair_elemIPPN4crow6detail10task_timerELi0ELb0EE5__getB7v160006Ev, symObjAddr: 0x98C0, symBinAddr: 0x10000C4B0, symSize: 0x10 }
  - { offsetInCU: 0xB271D, offset: 0xB271D, size: 0x8, addend: 0x0, symName: __ZNSt3__16vectorINS_10unique_ptrIN4asio10io_contextENS_14default_deleteIS3_EEEENS_9allocatorIS6_EEED2B7v160006Ev, symObjAddr: 0x98D0, symBinAddr: 0x10000C4C0, symSize: 0x40 }
  - { offsetInCU: 0xB2747, offset: 0xB2747, size: 0x8, addend: 0x0, symName: __ZNSt3__16vectorINS_10unique_ptrIN4asio10io_contextENS_14default_deleteIS3_EEEENS_9allocatorIS6_EEE16__destroy_vectorC1ERS9_, symObjAddr: 0x9910, symBinAddr: 0x10000C500, symSize: 0x30 }
  - { offsetInCU: 0xB2780, offset: 0xB2780, size: 0x8, addend: 0x0, symName: __ZNSt3__16vectorINS_10unique_ptrIN4asio10io_contextENS_14default_deleteIS3_EEEENS_9allocatorIS6_EEE16__destroy_vectorclB7v160006Ev, symObjAddr: 0x9940, symBinAddr: 0x10000C530, symSize: 0x90 }
  - { offsetInCU: 0xB27A6, offset: 0xB27A6, size: 0x8, addend: 0x0, symName: __ZNSt3__16vectorINS_10unique_ptrIN4asio10io_contextENS_14default_deleteIS3_EEEENS_9allocatorIS6_EEE16__destroy_vectorC2ERS9_, symObjAddr: 0x99D0, symBinAddr: 0x10000C5C0, symSize: 0x20 }
  - { offsetInCU: 0xB27DF, offset: 0xB27DF, size: 0x8, addend: 0x0, symName: __ZNKSt3__16vectorINS_10unique_ptrIN4asio10io_contextENS_14default_deleteIS3_EEEENS_9allocatorIS6_EEE17__annotate_deleteB7v160006Ev, symObjAddr: 0x99F0, symBinAddr: 0x10000C5E0, symSize: 0xB0 }
  - { offsetInCU: 0xB2805, offset: 0xB2805, size: 0x8, addend: 0x0, symName: __ZNSt3__16vectorINS_10unique_ptrIN4asio10io_contextENS_14default_deleteIS3_EEEENS_9allocatorIS6_EEE7__clearB7v160006Ev, symObjAddr: 0x9AB0, symBinAddr: 0x10000C6A0, symSize: 0x20 }
  - { offsetInCU: 0xB282B, offset: 0xB282B, size: 0x8, addend: 0x0, symName: __ZNSt3__116allocator_traitsINS_9allocatorINS_10unique_ptrIN4asio10io_contextENS_14default_deleteIS4_EEEEEEE10deallocateB7v160006ERS8_PS7_m, symObjAddr: 0x9AD0, symBinAddr: 0x10000C6C0, symSize: 0x30 }
  - { offsetInCU: 0xB286D, offset: 0xB286D, size: 0x8, addend: 0x0, symName: __ZNSt3__16vectorINS_10unique_ptrIN4asio10io_contextENS_14default_deleteIS3_EEEENS_9allocatorIS6_EEE7__allocB7v160006Ev, symObjAddr: 0x9B00, symBinAddr: 0x10000C6F0, symSize: 0x20 }
  - { offsetInCU: 0xB2893, offset: 0xB2893, size: 0x8, addend: 0x0, symName: __ZNKSt3__16vectorINS_10unique_ptrIN4asio10io_contextENS_14default_deleteIS3_EEEENS_9allocatorIS6_EEE8capacityB7v160006Ev, symObjAddr: 0x9B20, symBinAddr: 0x10000C710, symSize: 0x30 }
  - { offsetInCU: 0xB28B9, offset: 0xB28B9, size: 0x8, addend: 0x0, symName: __ZNKSt3__16vectorINS_10unique_ptrIN4asio10io_contextENS_14default_deleteIS3_EEEENS_9allocatorIS6_EEE31__annotate_contiguous_containerB7v160006EPKvSB_SB_SB_, symObjAddr: 0x9B50, symBinAddr: 0x10000C740, symSize: 0x20 }
  - { offsetInCU: 0xB290B, offset: 0xB290B, size: 0x8, addend: 0x0, symName: __ZNKSt3__16vectorINS_10unique_ptrIN4asio10io_contextENS_14default_deleteIS3_EEEENS_9allocatorIS6_EEE4dataB7v160006Ev, symObjAddr: 0x9B70, symBinAddr: 0x10000C760, symSize: 0x20 }
  - { offsetInCU: 0xB2931, offset: 0xB2931, size: 0x8, addend: 0x0, symName: __ZNKSt3__16vectorINS_10unique_ptrIN4asio10io_contextENS_14default_deleteIS3_EEEENS_9allocatorIS6_EEE4sizeB7v160006Ev, symObjAddr: 0x9B90, symBinAddr: 0x10000C780, symSize: 0x20 }
  - { offsetInCU: 0xB2957, offset: 0xB2957, size: 0x8, addend: 0x0, symName: __ZNSt3__16vectorINS_10unique_ptrIN4asio10io_contextENS_14default_deleteIS3_EEEENS_9allocatorIS6_EEE22__base_destruct_at_endB7v160006EPS6_, symObjAddr: 0x9BC0, symBinAddr: 0x10000C7B0, symSize: 0x80 }
  - { offsetInCU: 0xB299B, offset: 0xB299B, size: 0x8, addend: 0x0, symName: __ZNSt3__116allocator_traitsINS_9allocatorINS_10unique_ptrIN4asio10io_contextENS_14default_deleteIS4_EEEEEEE7destroyB7v160006IS7_vEEvRS8_PT_, symObjAddr: 0x9C40, symBinAddr: 0x10000C830, symSize: 0x30 }
  - { offsetInCU: 0xB29D8, offset: 0xB29D8, size: 0x8, addend: 0x0, symName: __ZNSt3__19allocatorINS_10unique_ptrIN4asio10io_contextENS_14default_deleteIS3_EEEEE7destroyB7v160006EPS6_, symObjAddr: 0x9C70, symBinAddr: 0x10000C860, symSize: 0x20 }
  - { offsetInCU: 0xB2A0D, offset: 0xB2A0D, size: 0x8, addend: 0x0, symName: __ZNSt3__110unique_ptrIN4asio10io_contextENS_14default_deleteIS2_EEED1B7v160006Ev, symObjAddr: 0x9C90, symBinAddr: 0x10000C880, symSize: 0x20 }
  - { offsetInCU: 0xB2A37, offset: 0xB2A37, size: 0x8, addend: 0x0, symName: __ZNSt3__110unique_ptrIN4asio10io_contextENS_14default_deleteIS2_EEED2B7v160006Ev, symObjAddr: 0x9CB0, symBinAddr: 0x10000C8A0, symSize: 0x20 }
  - { offsetInCU: 0xB2A61, offset: 0xB2A61, size: 0x8, addend: 0x0, symName: __ZNSt3__110unique_ptrIN4asio10io_contextENS_14default_deleteIS2_EEE5resetB7v160006EPS2_, symObjAddr: 0x9CD0, symBinAddr: 0x10000C8C0, symSize: 0x70 }
  - { offsetInCU: 0xB2AA5, offset: 0xB2AA5, size: 0x8, addend: 0x0, symName: __ZNSt3__117__compressed_pairIPN4asio10io_contextENS_14default_deleteIS2_EEE5firstB7v160006Ev, symObjAddr: 0x9D40, symBinAddr: 0x10000C930, symSize: 0x20 }
  - { offsetInCU: 0xB2ACB, offset: 0xB2ACB, size: 0x8, addend: 0x0, symName: __ZNSt3__117__compressed_pairIPN4asio10io_contextENS_14default_deleteIS2_EEE6secondB7v160006Ev, symObjAddr: 0x9D60, symBinAddr: 0x10000C950, symSize: 0x20 }
  - { offsetInCU: 0xB2AF1, offset: 0xB2AF1, size: 0x8, addend: 0x0, symName: __ZNKSt3__114default_deleteIN4asio10io_contextEEclB7v160006EPS2_, symObjAddr: 0x9D80, symBinAddr: 0x10000C970, symSize: 0x40 }
  - { offsetInCU: 0xB2B26, offset: 0xB2B26, size: 0x8, addend: 0x0, symName: __ZNSt3__122__compressed_pair_elemIPN4asio10io_contextELi0ELb0EE5__getB7v160006Ev, symObjAddr: 0x9DC0, symBinAddr: 0x10000C9B0, symSize: 0x10 }
  - { offsetInCU: 0xB2B4C, offset: 0xB2B4C, size: 0x8, addend: 0x0, symName: __ZNSt3__122__compressed_pair_elemINS_14default_deleteIN4asio10io_contextEEELi1ELb1EE5__getB7v160006Ev, symObjAddr: 0x9DD0, symBinAddr: 0x10000C9C0, symSize: 0x10 }
  - { offsetInCU: 0xB2B72, offset: 0xB2B72, size: 0x8, addend: 0x0, symName: __ZNSt3__19allocatorINS_10unique_ptrIN4asio10io_contextENS_14default_deleteIS3_EEEEE10deallocateB7v160006EPS6_m, symObjAddr: 0x9DE0, symBinAddr: 0x10000C9D0, symSize: 0x40 }
  - { offsetInCU: 0xB2BB6, offset: 0xB2BB6, size: 0x8, addend: 0x0, symName: __ZNSt3__117__compressed_pairIPNS_10unique_ptrIN4asio10io_contextENS_14default_deleteIS3_EEEENS_9allocatorIS6_EEE6secondB7v160006Ev, symObjAddr: 0x9E20, symBinAddr: 0x10000CA10, symSize: 0x20 }
  - { offsetInCU: 0xB2BDC, offset: 0xB2BDC, size: 0x8, addend: 0x0, symName: __ZNSt3__122__compressed_pair_elemINS_9allocatorINS_10unique_ptrIN4asio10io_contextENS_14default_deleteIS4_EEEEEELi1ELb1EE5__getB7v160006Ev, symObjAddr: 0x9E40, symBinAddr: 0x10000CA30, symSize: 0x10 }
  - { offsetInCU: 0xB2C02, offset: 0xB2C02, size: 0x8, addend: 0x0, symName: __ZNKSt3__16vectorINS_10unique_ptrIN4asio10io_contextENS_14default_deleteIS3_EEEENS_9allocatorIS6_EEE9__end_capB7v160006Ev, symObjAddr: 0x9E50, symBinAddr: 0x10000CA40, symSize: 0x20 }
  - { offsetInCU: 0xB2C28, offset: 0xB2C28, size: 0x8, addend: 0x0, symName: __ZNKSt3__117__compressed_pairIPNS_10unique_ptrIN4asio10io_contextENS_14default_deleteIS3_EEEENS_9allocatorIS6_EEE5firstB7v160006Ev, symObjAddr: 0x9E70, symBinAddr: 0x10000CA60, symSize: 0x20 }
  - { offsetInCU: 0xB2C4E, offset: 0xB2C4E, size: 0x8, addend: 0x0, symName: __ZNKSt3__122__compressed_pair_elemIPNS_10unique_ptrIN4asio10io_contextENS_14default_deleteIS3_EEEELi0ELb0EE5__getB7v160006Ev, symObjAddr: 0x9E90, symBinAddr: 0x10000CA80, symSize: 0x10 }
  - { offsetInCU: 0xB2C74, offset: 0xB2C74, size: 0x8, addend: 0x0, symName: __ZN4asio10io_contextD2Ev, symObjAddr: 0x9EA0, symBinAddr: 0x10000CA90, symSize: 0x40 }
  - { offsetInCU: 0xB2CA1, offset: 0xB2CA1, size: 0x8, addend: 0x0, symName: __ZN4asio17execution_context8shutdownEv, symObjAddr: 0x9EE0, symBinAddr: 0x10000CAD0, symSize: 0x20 }
  - { offsetInCU: 0xB2CC9, offset: 0xB2CC9, size: 0x8, addend: 0x0, symName: __ZN4asio17execution_contextD2Ev, symObjAddr: 0x9F00, symBinAddr: 0x10000CAF0, symSize: 0x70 }
  - { offsetInCU: 0xB2CF5, offset: 0xB2CF5, size: 0x8, addend: 0x0, symName: __ZN4asio6detail16service_registry17shutdown_servicesEv, symObjAddr: 0x9F70, symBinAddr: 0x10000CB60, symSize: 0x50 }
  - { offsetInCU: 0xB2D2E, offset: 0xB2D2E, size: 0x8, addend: 0x0, symName: __ZN4asio17execution_context7destroyEv, symObjAddr: 0x9FC0, symBinAddr: 0x10000CBB0, symSize: 0x20 }
  - { offsetInCU: 0xB2D56, offset: 0xB2D56, size: 0x8, addend: 0x0, symName: __ZN4asio6detail16service_registryD1Ev, symObjAddr: 0x9FE0, symBinAddr: 0x10000CBD0, symSize: 0x20 }
  - { offsetInCU: 0xB2D83, offset: 0xB2D83, size: 0x8, addend: 0x0, symName: __ZN4asio6detail16service_registry16destroy_servicesEv, symObjAddr: 0xA000, symBinAddr: 0x10000CBF0, symSize: 0x60 }
  - { offsetInCU: 0xB2DCA, offset: 0xB2DCA, size: 0x8, addend: 0x0, symName: __ZN4asio6detail16service_registry7destroyEPNS_17execution_context7serviceE, symObjAddr: 0xA060, symBinAddr: 0x10000CC50, symSize: 0x30 }
  - { offsetInCU: 0xB2DF2, offset: 0xB2DF2, size: 0x8, addend: 0x0, symName: __ZN4asio6detail16service_registryD2Ev, symObjAddr: 0xA090, symBinAddr: 0x10000CC80, symSize: 0x30 }
  - { offsetInCU: 0xB2E1F, offset: 0xB2E1F, size: 0x8, addend: 0x0, symName: __ZN4asio6detail11posix_mutexD1Ev, symObjAddr: 0xA0C0, symBinAddr: 0x10000CCB0, symSize: 0x20 }
  - { offsetInCU: 0xB2E49, offset: 0xB2E49, size: 0x8, addend: 0x0, symName: __ZN4asio6detail11posix_mutexD2Ev, symObjAddr: 0xA0E0, symBinAddr: 0x10000CCD0, symSize: 0x40 }
  - { offsetInCU: 0xB2E73, offset: 0xB2E73, size: 0x8, addend: 0x0, symName: __ZNSt3__15tupleIJN4crow11CORSHandlerEEED2Ev, symObjAddr: 0xA120, symBinAddr: 0x10000CD10, symSize: 0x20 }
  - { offsetInCU: 0xB2EA0, offset: 0xB2EA0, size: 0x8, addend: 0x0, symName: __ZNSt3__112__tuple_implINS_15__tuple_indicesIJLm0EEEEJN4crow11CORSHandlerEEED1Ev, symObjAddr: 0xA140, symBinAddr: 0x10000CD30, symSize: 0x20 }
  - { offsetInCU: 0xB2ECD, offset: 0xB2ECD, size: 0x8, addend: 0x0, symName: __ZNSt3__112__tuple_implINS_15__tuple_indicesIJLm0EEEEJN4crow11CORSHandlerEEED2Ev, symObjAddr: 0xA160, symBinAddr: 0x10000CD50, symSize: 0x20 }
  - { offsetInCU: 0xB2EFA, offset: 0xB2EFA, size: 0x8, addend: 0x0, symName: __ZNSt3__112__tuple_leafILm0EN4crow11CORSHandlerELb0EED2Ev, symObjAddr: 0xA180, symBinAddr: 0x10000CD70, symSize: 0x20 }
  - { offsetInCU: 0xB2F27, offset: 0xB2F27, size: 0x8, addend: 0x0, symName: __ZN4crow11CORSHandlerD1Ev, symObjAddr: 0xA1A0, symBinAddr: 0x10000CD90, symSize: 0x20 }
  - { offsetInCU: 0xB2F54, offset: 0xB2F54, size: 0x8, addend: 0x0, symName: __ZN4crow11CORSHandlerD2Ev, symObjAddr: 0xA1C0, symBinAddr: 0x10000CDB0, symSize: 0x30 }
  - { offsetInCU: 0xB2F81, offset: 0xB2F81, size: 0x8, addend: 0x0, symName: __ZN4crow9CORSRulesD1Ev, symObjAddr: 0xA1F0, symBinAddr: 0x10000CDE0, symSize: 0x20 }
  - { offsetInCU: 0xB2FAE, offset: 0xB2FAE, size: 0x8, addend: 0x0, symName: __ZNSt3__16vectorINS_4pairINS_12basic_stringIcNS_11char_traitsIcEENS_9allocatorIcEEEEN4crow9CORSRulesEEENS5_ISA_EEED1B7v160006Ev, symObjAddr: 0xA210, symBinAddr: 0x10000CE00, symSize: 0x20 }
  - { offsetInCU: 0xB2FD8, offset: 0xB2FD8, size: 0x8, addend: 0x0, symName: __ZN4crow9CORSRulesD2Ev, symObjAddr: 0xA230, symBinAddr: 0x10000CE20, symSize: 0x50 }
  - { offsetInCU: 0xB3005, offset: 0xB3005, size: 0x8, addend: 0x0, symName: __ZNSt3__16vectorINS_4pairINS_12basic_stringIcNS_11char_traitsIcEENS_9allocatorIcEEEEN4crow9CORSRulesEEENS5_ISA_EEED2B7v160006Ev, symObjAddr: 0xA280, symBinAddr: 0x10000CE70, symSize: 0x40 }
  - { offsetInCU: 0xB302F, offset: 0xB302F, size: 0x8, addend: 0x0, symName: __ZNSt3__16vectorINS_4pairINS_12basic_stringIcNS_11char_traitsIcEENS_9allocatorIcEEEEN4crow9CORSRulesEEENS5_ISA_EEE16__destroy_vectorC1ERSC_, symObjAddr: 0xA2C0, symBinAddr: 0x10000CEB0, symSize: 0x30 }
  - { offsetInCU: 0xB3068, offset: 0xB3068, size: 0x8, addend: 0x0, symName: __ZNSt3__16vectorINS_4pairINS_12basic_stringIcNS_11char_traitsIcEENS_9allocatorIcEEEEN4crow9CORSRulesEEENS5_ISA_EEE16__destroy_vectorclB7v160006Ev, symObjAddr: 0xA2F0, symBinAddr: 0x10000CEE0, symSize: 0x90 }
  - { offsetInCU: 0xB308E, offset: 0xB308E, size: 0x8, addend: 0x0, symName: __ZNSt3__16vectorINS_4pairINS_12basic_stringIcNS_11char_traitsIcEENS_9allocatorIcEEEEN4crow9CORSRulesEEENS5_ISA_EEE16__destroy_vectorC2ERSC_, symObjAddr: 0xA380, symBinAddr: 0x10000CF70, symSize: 0x20 }
  - { offsetInCU: 0xB30C7, offset: 0xB30C7, size: 0x8, addend: 0x0, symName: __ZNKSt3__16vectorINS_4pairINS_12basic_stringIcNS_11char_traitsIcEENS_9allocatorIcEEEEN4crow9CORSRulesEEENS5_ISA_EEE17__annotate_deleteB7v160006Ev, symObjAddr: 0xA3A0, symBinAddr: 0x10000CF90, symSize: 0xC0 }
  - { offsetInCU: 0xB30ED, offset: 0xB30ED, size: 0x8, addend: 0x0, symName: __ZNSt3__16vectorINS_4pairINS_12basic_stringIcNS_11char_traitsIcEENS_9allocatorIcEEEEN4crow9CORSRulesEEENS5_ISA_EEE7__clearB7v160006Ev, symObjAddr: 0xA470, symBinAddr: 0x10000D060, symSize: 0x20 }
  - { offsetInCU: 0xB3113, offset: 0xB3113, size: 0x8, addend: 0x0, symName: __ZNSt3__116allocator_traitsINS_9allocatorINS_4pairINS_12basic_stringIcNS_11char_traitsIcEENS1_IcEEEEN4crow9CORSRulesEEEEEE10deallocateB7v160006ERSB_PSA_m, symObjAddr: 0xA490, symBinAddr: 0x10000D080, symSize: 0x30 }
  - { offsetInCU: 0xB3155, offset: 0xB3155, size: 0x8, addend: 0x0, symName: __ZNSt3__16vectorINS_4pairINS_12basic_stringIcNS_11char_traitsIcEENS_9allocatorIcEEEEN4crow9CORSRulesEEENS5_ISA_EEE7__allocB7v160006Ev, symObjAddr: 0xA4C0, symBinAddr: 0x10000D0B0, symSize: 0x20 }
  - { offsetInCU: 0xB317B, offset: 0xB317B, size: 0x8, addend: 0x0, symName: __ZNKSt3__16vectorINS_4pairINS_12basic_stringIcNS_11char_traitsIcEENS_9allocatorIcEEEEN4crow9CORSRulesEEENS5_ISA_EEE8capacityB7v160006Ev, symObjAddr: 0xA4E0, symBinAddr: 0x10000D0D0, symSize: 0x40 }
  - { offsetInCU: 0xB31A1, offset: 0xB31A1, size: 0x8, addend: 0x0, symName: __ZNKSt3__16vectorINS_4pairINS_12basic_stringIcNS_11char_traitsIcEENS_9allocatorIcEEEEN4crow9CORSRulesEEENS5_ISA_EEE31__annotate_contiguous_containerB7v160006EPKvSE_SE_SE_, symObjAddr: 0xA520, symBinAddr: 0x10000D110, symSize: 0x20 }
  - { offsetInCU: 0xB31F3, offset: 0xB31F3, size: 0x8, addend: 0x0, symName: __ZNKSt3__16vectorINS_4pairINS_12basic_stringIcNS_11char_traitsIcEENS_9allocatorIcEEEEN4crow9CORSRulesEEENS5_ISA_EEE4dataB7v160006Ev, symObjAddr: 0xA540, symBinAddr: 0x10000D130, symSize: 0x20 }
  - { offsetInCU: 0xB3219, offset: 0xB3219, size: 0x8, addend: 0x0, symName: __ZNKSt3__16vectorINS_4pairINS_12basic_stringIcNS_11char_traitsIcEENS_9allocatorIcEEEEN4crow9CORSRulesEEENS5_ISA_EEE4sizeB7v160006Ev, symObjAddr: 0xA560, symBinAddr: 0x10000D150, symSize: 0x30 }
  - { offsetInCU: 0xB323F, offset: 0xB323F, size: 0x8, addend: 0x0, symName: __ZNSt3__16vectorINS_4pairINS_12basic_stringIcNS_11char_traitsIcEENS_9allocatorIcEEEEN4crow9CORSRulesEEENS5_ISA_EEE22__base_destruct_at_endB7v160006EPSA_, symObjAddr: 0xA5A0, symBinAddr: 0x10000D190, symSize: 0x80 }
  - { offsetInCU: 0xB3283, offset: 0xB3283, size: 0x8, addend: 0x0, symName: __ZNSt3__116allocator_traitsINS_9allocatorINS_4pairINS_12basic_stringIcNS_11char_traitsIcEENS1_IcEEEEN4crow9CORSRulesEEEEEE7destroyB7v160006ISA_vEEvRSB_PT_, symObjAddr: 0xA620, symBinAddr: 0x10000D210, symSize: 0x30 }
  - { offsetInCU: 0xB32C0, offset: 0xB32C0, size: 0x8, addend: 0x0, symName: __ZNSt3__19allocatorINS_4pairINS_12basic_stringIcNS_11char_traitsIcEENS0_IcEEEEN4crow9CORSRulesEEEE7destroyB7v160006EPS9_, symObjAddr: 0xA650, symBinAddr: 0x10000D240, symSize: 0x20 }
  - { offsetInCU: 0xB32F5, offset: 0xB32F5, size: 0x8, addend: 0x0, symName: __ZNSt3__14pairINS_12basic_stringIcNS_11char_traitsIcEENS_9allocatorIcEEEEN4crow9CORSRulesEED1Ev, symObjAddr: 0xA670, symBinAddr: 0x10000D260, symSize: 0x20 }
  - { offsetInCU: 0xB3321, offset: 0xB3321, size: 0x8, addend: 0x0, symName: __ZNSt3__14pairINS_12basic_stringIcNS_11char_traitsIcEENS_9allocatorIcEEEEN4crow9CORSRulesEED2Ev, symObjAddr: 0xA690, symBinAddr: 0x10000D280, symSize: 0x30 }
  - { offsetInCU: 0xB334D, offset: 0xB334D, size: 0x8, addend: 0x0, symName: __ZNSt3__19allocatorINS_4pairINS_12basic_stringIcNS_11char_traitsIcEENS0_IcEEEEN4crow9CORSRulesEEEE10deallocateB7v160006EPS9_m, symObjAddr: 0xA6C0, symBinAddr: 0x10000D2B0, symSize: 0x50 }
  - { offsetInCU: 0xB3391, offset: 0xB3391, size: 0x8, addend: 0x0, symName: __ZNSt3__117__compressed_pairIPNS_4pairINS_12basic_stringIcNS_11char_traitsIcEENS_9allocatorIcEEEEN4crow9CORSRulesEEENS5_ISA_EEE6secondB7v160006Ev, symObjAddr: 0xA710, symBinAddr: 0x10000D300, symSize: 0x20 }
  - { offsetInCU: 0xB33B7, offset: 0xB33B7, size: 0x8, addend: 0x0, symName: __ZNSt3__122__compressed_pair_elemINS_9allocatorINS_4pairINS_12basic_stringIcNS_11char_traitsIcEENS1_IcEEEEN4crow9CORSRulesEEEEELi1ELb1EE5__getB7v160006Ev, symObjAddr: 0xA730, symBinAddr: 0x10000D320, symSize: 0x10 }
  - { offsetInCU: 0xB33DD, offset: 0xB33DD, size: 0x8, addend: 0x0, symName: __ZNKSt3__16vectorINS_4pairINS_12basic_stringIcNS_11char_traitsIcEENS_9allocatorIcEEEEN4crow9CORSRulesEEENS5_ISA_EEE9__end_capB7v160006Ev, symObjAddr: 0xA740, symBinAddr: 0x10000D330, symSize: 0x20 }
  - { offsetInCU: 0xB3403, offset: 0xB3403, size: 0x8, addend: 0x0, symName: __ZNKSt3__117__compressed_pairIPNS_4pairINS_12basic_stringIcNS_11char_traitsIcEENS_9allocatorIcEEEEN4crow9CORSRulesEEENS5_ISA_EEE5firstB7v160006Ev, symObjAddr: 0xA760, symBinAddr: 0x10000D350, symSize: 0x20 }
  - { offsetInCU: 0xB3429, offset: 0xB3429, size: 0x8, addend: 0x0, symName: __ZNKSt3__122__compressed_pair_elemIPNS_4pairINS_12basic_stringIcNS_11char_traitsIcEENS_9allocatorIcEEEEN4crow9CORSRulesEEELi0ELb0EE5__getB7v160006Ev, symObjAddr: 0xA780, symBinAddr: 0x10000D370, symSize: 0x10 }
  - { offsetInCU: 0xB344F, offset: 0xB344F, size: 0x8, addend: 0x0, symName: __ZNSt3__18functionIFvvEED2Ev, symObjAddr: 0xA790, symBinAddr: 0x10000D380, symSize: 0x20 }
  - { offsetInCU: 0xB347B, offset: 0xB347B, size: 0x8, addend: 0x0, symName: __ZNSt3__110__function12__value_funcIFvvEED1B7v160006Ev, symObjAddr: 0xA7B0, symBinAddr: 0x10000D3A0, symSize: 0x20 }
  - { offsetInCU: 0xB34A5, offset: 0xB34A5, size: 0x8, addend: 0x0, symName: __ZNSt3__110__function12__value_funcIFvvEED2B7v160006Ev, symObjAddr: 0xA7D0, symBinAddr: 0x10000D3C0, symSize: 0x60 }
  - { offsetInCU: 0xB34CF, offset: 0xB34CF, size: 0x8, addend: 0x0, symName: __ZN4crow6RouterD2Ev, symObjAddr: 0xA830, symBinAddr: 0x10000D420, symSize: 0x50 }
  - { offsetInCU: 0xB34FC, offset: 0xB34FC, size: 0x8, addend: 0x0, symName: __ZNSt3__16vectorIPN4crow9BlueprintENS_9allocatorIS3_EEED1B7v160006Ev, symObjAddr: 0xA880, symBinAddr: 0x10000D470, symSize: 0x20 }
  - { offsetInCU: 0xB3526, offset: 0xB3526, size: 0x8, addend: 0x0, symName: __ZNSt3__16vectorINS_10unique_ptrIN4crow8BaseRuleENS_14default_deleteIS3_EEEENS_9allocatorIS6_EEED1B7v160006Ev, symObjAddr: 0xA8A0, symBinAddr: 0x10000D490, symSize: 0x20 }
  - { offsetInCU: 0xB3550, offset: 0xB3550, size: 0x8, addend: 0x0, symName: __ZNSt3__15arrayIN4crow6Router9PerMethodELm34EED1Ev, symObjAddr: 0xA8C0, symBinAddr: 0x10000D4B0, symSize: 0x20 }
  - { offsetInCU: 0xB357C, offset: 0xB357C, size: 0x8, addend: 0x0, symName: __ZN4crow12CatchallRuleD1Ev, symObjAddr: 0xA8E0, symBinAddr: 0x10000D4D0, symSize: 0x20 }
  - { offsetInCU: 0xB35A9, offset: 0xB35A9, size: 0x8, addend: 0x0, symName: __ZNSt3__16vectorIPN4crow9BlueprintENS_9allocatorIS3_EEED2B7v160006Ev, symObjAddr: 0xA900, symBinAddr: 0x10000D4F0, symSize: 0x40 }
  - { offsetInCU: 0xB35D3, offset: 0xB35D3, size: 0x8, addend: 0x0, symName: __ZNSt3__16vectorIPN4crow9BlueprintENS_9allocatorIS3_EEE16__destroy_vectorC1ERS6_, symObjAddr: 0xA940, symBinAddr: 0x10000D530, symSize: 0x30 }
  - { offsetInCU: 0xB360C, offset: 0xB360C, size: 0x8, addend: 0x0, symName: __ZNSt3__16vectorIPN4crow9BlueprintENS_9allocatorIS3_EEE16__destroy_vectorclB7v160006Ev, symObjAddr: 0xA970, symBinAddr: 0x10000D560, symSize: 0x90 }
  - { offsetInCU: 0xB3632, offset: 0xB3632, size: 0x8, addend: 0x0, symName: __ZNSt3__16vectorIPN4crow9BlueprintENS_9allocatorIS3_EEE16__destroy_vectorC2ERS6_, symObjAddr: 0xAA00, symBinAddr: 0x10000D5F0, symSize: 0x20 }
  - { offsetInCU: 0xB366B, offset: 0xB366B, size: 0x8, addend: 0x0, symName: __ZNKSt3__16vectorIPN4crow9BlueprintENS_9allocatorIS3_EEE17__annotate_deleteB7v160006Ev, symObjAddr: 0xAA20, symBinAddr: 0x10000D610, symSize: 0xB0 }
  - { offsetInCU: 0xB3691, offset: 0xB3691, size: 0x8, addend: 0x0, symName: __ZNSt3__16vectorIPN4crow9BlueprintENS_9allocatorIS3_EEE7__clearB7v160006Ev, symObjAddr: 0xAAE0, symBinAddr: 0x10000D6D0, symSize: 0x20 }
  - { offsetInCU: 0xB36B7, offset: 0xB36B7, size: 0x8, addend: 0x0, symName: __ZNSt3__116allocator_traitsINS_9allocatorIPN4crow9BlueprintEEEE10deallocateB7v160006ERS5_PS4_m, symObjAddr: 0xAB00, symBinAddr: 0x10000D6F0, symSize: 0x30 }
  - { offsetInCU: 0xB36F9, offset: 0xB36F9, size: 0x8, addend: 0x0, symName: __ZNSt3__16vectorIPN4crow9BlueprintENS_9allocatorIS3_EEE7__allocB7v160006Ev, symObjAddr: 0xAB30, symBinAddr: 0x10000D720, symSize: 0x20 }
  - { offsetInCU: 0xB371F, offset: 0xB371F, size: 0x8, addend: 0x0, symName: __ZNKSt3__16vectorIPN4crow9BlueprintENS_9allocatorIS3_EEE8capacityB7v160006Ev, symObjAddr: 0xAB50, symBinAddr: 0x10000D740, symSize: 0x30 }
  - { offsetInCU: 0xB3745, offset: 0xB3745, size: 0x8, addend: 0x0, symName: __ZNKSt3__16vectorIPN4crow9BlueprintENS_9allocatorIS3_EEE31__annotate_contiguous_containerB7v160006EPKvS8_S8_S8_, symObjAddr: 0xAB80, symBinAddr: 0x10000D770, symSize: 0x20 }
  - { offsetInCU: 0xB3797, offset: 0xB3797, size: 0x8, addend: 0x0, symName: __ZNKSt3__16vectorIPN4crow9BlueprintENS_9allocatorIS3_EEE4dataB7v160006Ev, symObjAddr: 0xABA0, symBinAddr: 0x10000D790, symSize: 0x20 }
  - { offsetInCU: 0xB37BD, offset: 0xB37BD, size: 0x8, addend: 0x0, symName: __ZNKSt3__16vectorIPN4crow9BlueprintENS_9allocatorIS3_EEE4sizeB7v160006Ev, symObjAddr: 0xABC0, symBinAddr: 0x10000D7B0, symSize: 0x20 }
  - { offsetInCU: 0xB37E3, offset: 0xB37E3, size: 0x8, addend: 0x0, symName: __ZNSt3__16vectorIPN4crow9BlueprintENS_9allocatorIS3_EEE22__base_destruct_at_endB7v160006EPS3_, symObjAddr: 0xABF0, symBinAddr: 0x10000D7E0, symSize: 0x80 }
  - { offsetInCU: 0xB3827, offset: 0xB3827, size: 0x8, addend: 0x0, symName: __ZNSt3__116allocator_traitsINS_9allocatorIPN4crow9BlueprintEEEE7destroyB7v160006IS4_vEEvRS5_PT_, symObjAddr: 0xAC70, symBinAddr: 0x10000D860, symSize: 0x30 }
  - { offsetInCU: 0xB3864, offset: 0xB3864, size: 0x8, addend: 0x0, symName: __ZNSt3__19allocatorIPN4crow9BlueprintEE7destroyB7v160006EPS3_, symObjAddr: 0xACA0, symBinAddr: 0x10000D890, symSize: 0x10 }
  - { offsetInCU: 0xB3899, offset: 0xB3899, size: 0x8, addend: 0x0, symName: __ZNSt3__19allocatorIPN4crow9BlueprintEE10deallocateB7v160006EPS3_m, symObjAddr: 0xACB0, symBinAddr: 0x10000D8A0, symSize: 0x40 }
  - { offsetInCU: 0xB38DD, offset: 0xB38DD, size: 0x8, addend: 0x0, symName: __ZNSt3__117__compressed_pairIPPN4crow9BlueprintENS_9allocatorIS3_EEE6secondB7v160006Ev, symObjAddr: 0xACF0, symBinAddr: 0x10000D8E0, symSize: 0x20 }
  - { offsetInCU: 0xB3903, offset: 0xB3903, size: 0x8, addend: 0x0, symName: __ZNSt3__122__compressed_pair_elemINS_9allocatorIPN4crow9BlueprintEEELi1ELb1EE5__getB7v160006Ev, symObjAddr: 0xAD10, symBinAddr: 0x10000D900, symSize: 0x10 }
  - { offsetInCU: 0xB3929, offset: 0xB3929, size: 0x8, addend: 0x0, symName: __ZNKSt3__16vectorIPN4crow9BlueprintENS_9allocatorIS3_EEE9__end_capB7v160006Ev, symObjAddr: 0xAD20, symBinAddr: 0x10000D910, symSize: 0x20 }
  - { offsetInCU: 0xB394F, offset: 0xB394F, size: 0x8, addend: 0x0, symName: __ZNKSt3__117__compressed_pairIPPN4crow9BlueprintENS_9allocatorIS3_EEE5firstB7v160006Ev, symObjAddr: 0xAD40, symBinAddr: 0x10000D930, symSize: 0x20 }
  - { offsetInCU: 0xB3975, offset: 0xB3975, size: 0x8, addend: 0x0, symName: __ZNKSt3__122__compressed_pair_elemIPPN4crow9BlueprintELi0ELb0EE5__getB7v160006Ev, symObjAddr: 0xAD60, symBinAddr: 0x10000D950, symSize: 0x10 }
  - { offsetInCU: 0xB399B, offset: 0xB399B, size: 0x8, addend: 0x0, symName: __ZNSt3__16vectorINS_10unique_ptrIN4crow8BaseRuleENS_14default_deleteIS3_EEEENS_9allocatorIS6_EEED2B7v160006Ev, symObjAddr: 0xAD70, symBinAddr: 0x10000D960, symSize: 0x40 }
  - { offsetInCU: 0xB39C5, offset: 0xB39C5, size: 0x8, addend: 0x0, symName: __ZNSt3__16vectorINS_10unique_ptrIN4crow8BaseRuleENS_14default_deleteIS3_EEEENS_9allocatorIS6_EEE16__destroy_vectorC1ERS9_, symObjAddr: 0xADB0, symBinAddr: 0x10000D9A0, symSize: 0x30 }
  - { offsetInCU: 0xB39FE, offset: 0xB39FE, size: 0x8, addend: 0x0, symName: __ZNSt3__16vectorINS_10unique_ptrIN4crow8BaseRuleENS_14default_deleteIS3_EEEENS_9allocatorIS6_EEE16__destroy_vectorclB7v160006Ev, symObjAddr: 0xADE0, symBinAddr: 0x10000D9D0, symSize: 0x90 }
  - { offsetInCU: 0xB3A24, offset: 0xB3A24, size: 0x8, addend: 0x0, symName: __ZNSt3__16vectorINS_10unique_ptrIN4crow8BaseRuleENS_14default_deleteIS3_EEEENS_9allocatorIS6_EEE16__destroy_vectorC2ERS9_, symObjAddr: 0xAE70, symBinAddr: 0x10000DA60, symSize: 0x20 }
  - { offsetInCU: 0xB3A5D, offset: 0xB3A5D, size: 0x8, addend: 0x0, symName: __ZNKSt3__16vectorINS_10unique_ptrIN4crow8BaseRuleENS_14default_deleteIS3_EEEENS_9allocatorIS6_EEE17__annotate_deleteB7v160006Ev, symObjAddr: 0xAE90, symBinAddr: 0x10000DA80, symSize: 0xB0 }
  - { offsetInCU: 0xB3A83, offset: 0xB3A83, size: 0x8, addend: 0x0, symName: __ZNSt3__16vectorINS_10unique_ptrIN4crow8BaseRuleENS_14default_deleteIS3_EEEENS_9allocatorIS6_EEE7__clearB7v160006Ev, symObjAddr: 0xAF50, symBinAddr: 0x10000DB40, symSize: 0x20 }
  - { offsetInCU: 0xB3AA9, offset: 0xB3AA9, size: 0x8, addend: 0x0, symName: __ZNSt3__116allocator_traitsINS_9allocatorINS_10unique_ptrIN4crow8BaseRuleENS_14default_deleteIS4_EEEEEEE10deallocateB7v160006ERS8_PS7_m, symObjAddr: 0xAF70, symBinAddr: 0x10000DB60, symSize: 0x30 }
  - { offsetInCU: 0xB3AEB, offset: 0xB3AEB, size: 0x8, addend: 0x0, symName: __ZNSt3__16vectorINS_10unique_ptrIN4crow8BaseRuleENS_14default_deleteIS3_EEEENS_9allocatorIS6_EEE7__allocB7v160006Ev, symObjAddr: 0xAFA0, symBinAddr: 0x10000DB90, symSize: 0x20 }
  - { offsetInCU: 0xB3B11, offset: 0xB3B11, size: 0x8, addend: 0x0, symName: __ZNKSt3__16vectorINS_10unique_ptrIN4crow8BaseRuleENS_14default_deleteIS3_EEEENS_9allocatorIS6_EEE8capacityB7v160006Ev, symObjAddr: 0xAFC0, symBinAddr: 0x10000DBB0, symSize: 0x30 }
  - { offsetInCU: 0xB3B37, offset: 0xB3B37, size: 0x8, addend: 0x0, symName: __ZNKSt3__16vectorINS_10unique_ptrIN4crow8BaseRuleENS_14default_deleteIS3_EEEENS_9allocatorIS6_EEE31__annotate_contiguous_containerB7v160006EPKvSB_SB_SB_, symObjAddr: 0xAFF0, symBinAddr: 0x10000DBE0, symSize: 0x20 }
  - { offsetInCU: 0xB3B89, offset: 0xB3B89, size: 0x8, addend: 0x0, symName: __ZNKSt3__16vectorINS_10unique_ptrIN4crow8BaseRuleENS_14default_deleteIS3_EEEENS_9allocatorIS6_EEE4dataB7v160006Ev, symObjAddr: 0xB010, symBinAddr: 0x10000DC00, symSize: 0x20 }
  - { offsetInCU: 0xB3BAF, offset: 0xB3BAF, size: 0x8, addend: 0x0, symName: __ZNKSt3__16vectorINS_10unique_ptrIN4crow8BaseRuleENS_14default_deleteIS3_EEEENS_9allocatorIS6_EEE4sizeB7v160006Ev, symObjAddr: 0xB030, symBinAddr: 0x10000DC20, symSize: 0x20 }
  - { offsetInCU: 0xB3BD5, offset: 0xB3BD5, size: 0x8, addend: 0x0, symName: __ZNSt3__16vectorINS_10unique_ptrIN4crow8BaseRuleENS_14default_deleteIS3_EEEENS_9allocatorIS6_EEE22__base_destruct_at_endB7v160006EPS6_, symObjAddr: 0xB060, symBinAddr: 0x10000DC50, symSize: 0x80 }
  - { offsetInCU: 0xB3C19, offset: 0xB3C19, size: 0x8, addend: 0x0, symName: __ZNSt3__116allocator_traitsINS_9allocatorINS_10unique_ptrIN4crow8BaseRuleENS_14default_deleteIS4_EEEEEEE7destroyB7v160006IS7_vEEvRS8_PT_, symObjAddr: 0xB0E0, symBinAddr: 0x10000DCD0, symSize: 0x30 }
  - { offsetInCU: 0xB3C56, offset: 0xB3C56, size: 0x8, addend: 0x0, symName: __ZNSt3__19allocatorINS_10unique_ptrIN4crow8BaseRuleENS_14default_deleteIS3_EEEEE7destroyB7v160006EPS6_, symObjAddr: 0xB110, symBinAddr: 0x10000DD00, symSize: 0x20 }
  - { offsetInCU: 0xB3C8B, offset: 0xB3C8B, size: 0x8, addend: 0x0, symName: __ZNSt3__110unique_ptrIN4crow8BaseRuleENS_14default_deleteIS2_EEED1B7v160006Ev, symObjAddr: 0xB130, symBinAddr: 0x10000DD20, symSize: 0x20 }
  - { offsetInCU: 0xB3CB5, offset: 0xB3CB5, size: 0x8, addend: 0x0, symName: __ZNSt3__110unique_ptrIN4crow8BaseRuleENS_14default_deleteIS2_EEED2B7v160006Ev, symObjAddr: 0xB150, symBinAddr: 0x10000DD40, symSize: 0x20 }
  - { offsetInCU: 0xB3CDF, offset: 0xB3CDF, size: 0x8, addend: 0x0, symName: __ZNSt3__110unique_ptrIN4crow8BaseRuleENS_14default_deleteIS2_EEE5resetB7v160006EPS2_, symObjAddr: 0xB170, symBinAddr: 0x10000DD60, symSize: 0x70 }
  - { offsetInCU: 0xB3D23, offset: 0xB3D23, size: 0x8, addend: 0x0, symName: __ZNSt3__117__compressed_pairIPN4crow8BaseRuleENS_14default_deleteIS2_EEE5firstB7v160006Ev, symObjAddr: 0xB1E0, symBinAddr: 0x10000DDD0, symSize: 0x20 }
  - { offsetInCU: 0xB3D49, offset: 0xB3D49, size: 0x8, addend: 0x0, symName: __ZNSt3__117__compressed_pairIPN4crow8BaseRuleENS_14default_deleteIS2_EEE6secondB7v160006Ev, symObjAddr: 0xB200, symBinAddr: 0x10000DDF0, symSize: 0x20 }
  - { offsetInCU: 0xB3D6F, offset: 0xB3D6F, size: 0x8, addend: 0x0, symName: __ZNKSt3__114default_deleteIN4crow8BaseRuleEEclB7v160006EPS2_, symObjAddr: 0xB220, symBinAddr: 0x10000DE10, symSize: 0x40 }
  - { offsetInCU: 0xB3DA4, offset: 0xB3DA4, size: 0x8, addend: 0x0, symName: __ZNSt3__122__compressed_pair_elemIPN4crow8BaseRuleELi0ELb0EE5__getB7v160006Ev, symObjAddr: 0xB260, symBinAddr: 0x10000DE50, symSize: 0x10 }
  - { offsetInCU: 0xB3DCA, offset: 0xB3DCA, size: 0x8, addend: 0x0, symName: __ZNSt3__122__compressed_pair_elemINS_14default_deleteIN4crow8BaseRuleEEELi1ELb1EE5__getB7v160006Ev, symObjAddr: 0xB270, symBinAddr: 0x10000DE60, symSize: 0x10 }
  - { offsetInCU: 0xB3DF0, offset: 0xB3DF0, size: 0x8, addend: 0x0, symName: __ZNSt3__19allocatorINS_10unique_ptrIN4crow8BaseRuleENS_14default_deleteIS3_EEEEE10deallocateB7v160006EPS6_m, symObjAddr: 0xB280, symBinAddr: 0x10000DE70, symSize: 0x40 }
  - { offsetInCU: 0xB3E34, offset: 0xB3E34, size: 0x8, addend: 0x0, symName: __ZNSt3__117__compressed_pairIPNS_10unique_ptrIN4crow8BaseRuleENS_14default_deleteIS3_EEEENS_9allocatorIS6_EEE6secondB7v160006Ev, symObjAddr: 0xB2C0, symBinAddr: 0x10000DEB0, symSize: 0x20 }
  - { offsetInCU: 0xB3E5A, offset: 0xB3E5A, size: 0x8, addend: 0x0, symName: __ZNSt3__122__compressed_pair_elemINS_9allocatorINS_10unique_ptrIN4crow8BaseRuleENS_14default_deleteIS4_EEEEEELi1ELb1EE5__getB7v160006Ev, symObjAddr: 0xB2E0, symBinAddr: 0x10000DED0, symSize: 0x10 }
  - { offsetInCU: 0xB3E80, offset: 0xB3E80, size: 0x8, addend: 0x0, symName: __ZNKSt3__16vectorINS_10unique_ptrIN4crow8BaseRuleENS_14default_deleteIS3_EEEENS_9allocatorIS6_EEE9__end_capB7v160006Ev, symObjAddr: 0xB2F0, symBinAddr: 0x10000DEE0, symSize: 0x20 }
  - { offsetInCU: 0xB3EA6, offset: 0xB3EA6, size: 0x8, addend: 0x0, symName: __ZNKSt3__117__compressed_pairIPNS_10unique_ptrIN4crow8BaseRuleENS_14default_deleteIS3_EEEENS_9allocatorIS6_EEE5firstB7v160006Ev, symObjAddr: 0xB310, symBinAddr: 0x10000DF00, symSize: 0x20 }
  - { offsetInCU: 0xB3ECC, offset: 0xB3ECC, size: 0x8, addend: 0x0, symName: __ZNKSt3__122__compressed_pair_elemIPNS_10unique_ptrIN4crow8BaseRuleENS_14default_deleteIS3_EEEELi0ELb0EE5__getB7v160006Ev, symObjAddr: 0xB330, symBinAddr: 0x10000DF20, symSize: 0x10 }
  - { offsetInCU: 0xB3EF2, offset: 0xB3EF2, size: 0x8, addend: 0x0, symName: __ZNSt3__15arrayIN4crow6Router9PerMethodELm34EED2Ev, symObjAddr: 0xB340, symBinAddr: 0x10000DF30, symSize: 0x50 }
  - { offsetInCU: 0xB3F1E, offset: 0xB3F1E, size: 0x8, addend: 0x0, symName: __ZN4crow6Router9PerMethodD1Ev, symObjAddr: 0xB390, symBinAddr: 0x10000DF80, symSize: 0x20 }
  - { offsetInCU: 0xB3F4B, offset: 0xB3F4B, size: 0x8, addend: 0x0, symName: __ZN4crow6Router9PerMethodD2Ev, symObjAddr: 0xB3B0, symBinAddr: 0x10000DFA0, symSize: 0x30 }
  - { offsetInCU: 0xB3F78, offset: 0xB3F78, size: 0x8, addend: 0x0, symName: __ZN4crow4TrieD1Ev, symObjAddr: 0xB3E0, symBinAddr: 0x10000DFD0, symSize: 0x20 }
  - { offsetInCU: 0xB3FA5, offset: 0xB3FA5, size: 0x8, addend: 0x0, symName: __ZNSt3__16vectorIPN4crow8BaseRuleENS_9allocatorIS3_EEED1B7v160006Ev, symObjAddr: 0xB400, symBinAddr: 0x10000DFF0, symSize: 0x20 }
  - { offsetInCU: 0xB3FCF, offset: 0xB3FCF, size: 0x8, addend: 0x0, symName: __ZN4crow4TrieD2Ev, symObjAddr: 0xB420, symBinAddr: 0x10000E010, symSize: 0x20 }
  - { offsetInCU: 0xB3FFC, offset: 0xB3FFC, size: 0x8, addend: 0x0, symName: __ZN4crow4Trie4NodeD1Ev, symObjAddr: 0xB440, symBinAddr: 0x10000E030, symSize: 0x20 }
  - { offsetInCU: 0xB4029, offset: 0xB4029, size: 0x8, addend: 0x0, symName: __ZN4crow4Trie4NodeD2Ev, symObjAddr: 0xB460, symBinAddr: 0x10000E050, symSize: 0x30 }
  - { offsetInCU: 0xB4056, offset: 0xB4056, size: 0x8, addend: 0x0, symName: __ZNSt3__16vectorIN4crow4Trie4NodeENS_9allocatorIS3_EEED1B7v160006Ev, symObjAddr: 0xB490, symBinAddr: 0x10000E080, symSize: 0x20 }
  - { offsetInCU: 0xB4080, offset: 0xB4080, size: 0x8, addend: 0x0, symName: __ZNSt3__16vectorIN4crow4Trie4NodeENS_9allocatorIS3_EEED2B7v160006Ev, symObjAddr: 0xB4B0, symBinAddr: 0x10000E0A0, symSize: 0x40 }
  - { offsetInCU: 0xB40AA, offset: 0xB40AA, size: 0x8, addend: 0x0, symName: __ZNSt3__16vectorIN4crow4Trie4NodeENS_9allocatorIS3_EEE16__destroy_vectorC1ERS6_, symObjAddr: 0xB4F0, symBinAddr: 0x10000E0E0, symSize: 0x30 }
  - { offsetInCU: 0xB40E3, offset: 0xB40E3, size: 0x8, addend: 0x0, symName: __ZNSt3__16vectorIN4crow4Trie4NodeENS_9allocatorIS3_EEE16__destroy_vectorclB7v160006Ev, symObjAddr: 0xB520, symBinAddr: 0x10000E110, symSize: 0x90 }
  - { offsetInCU: 0xB4109, offset: 0xB4109, size: 0x8, addend: 0x0, symName: __ZNSt3__16vectorIN4crow4Trie4NodeENS_9allocatorIS3_EEE16__destroy_vectorC2ERS6_, symObjAddr: 0xB5B0, symBinAddr: 0x10000E1A0, symSize: 0x20 }
  - { offsetInCU: 0xB4142, offset: 0xB4142, size: 0x8, addend: 0x0, symName: __ZNKSt3__16vectorIN4crow4Trie4NodeENS_9allocatorIS3_EEE17__annotate_deleteB7v160006Ev, symObjAddr: 0xB5D0, symBinAddr: 0x10000E1C0, symSize: 0xB0 }
  - { offsetInCU: 0xB4168, offset: 0xB4168, size: 0x8, addend: 0x0, symName: __ZNSt3__16vectorIN4crow4Trie4NodeENS_9allocatorIS3_EEE7__clearB7v160006Ev, symObjAddr: 0xB690, symBinAddr: 0x10000E280, symSize: 0x20 }
  - { offsetInCU: 0xB418E, offset: 0xB418E, size: 0x8, addend: 0x0, symName: __ZNSt3__116allocator_traitsINS_9allocatorIN4crow4Trie4NodeEEEE10deallocateB7v160006ERS5_PS4_m, symObjAddr: 0xB6B0, symBinAddr: 0x10000E2A0, symSize: 0x30 }
  - { offsetInCU: 0xB41D0, offset: 0xB41D0, size: 0x8, addend: 0x0, symName: __ZNSt3__16vectorIN4crow4Trie4NodeENS_9allocatorIS3_EEE7__allocB7v160006Ev, symObjAddr: 0xB6E0, symBinAddr: 0x10000E2D0, symSize: 0x20 }
  - { offsetInCU: 0xB41F6, offset: 0xB41F6, size: 0x8, addend: 0x0, symName: __ZNKSt3__16vectorIN4crow4Trie4NodeENS_9allocatorIS3_EEE8capacityB7v160006Ev, symObjAddr: 0xB700, symBinAddr: 0x10000E2F0, symSize: 0x30 }
  - { offsetInCU: 0xB421C, offset: 0xB421C, size: 0x8, addend: 0x0, symName: __ZNKSt3__16vectorIN4crow4Trie4NodeENS_9allocatorIS3_EEE31__annotate_contiguous_containerB7v160006EPKvS8_S8_S8_, symObjAddr: 0xB730, symBinAddr: 0x10000E320, symSize: 0x20 }
  - { offsetInCU: 0xB426E, offset: 0xB426E, size: 0x8, addend: 0x0, symName: __ZNKSt3__16vectorIN4crow4Trie4NodeENS_9allocatorIS3_EEE4dataB7v160006Ev, symObjAddr: 0xB750, symBinAddr: 0x10000E340, symSize: 0x20 }
  - { offsetInCU: 0xB4294, offset: 0xB4294, size: 0x8, addend: 0x0, symName: __ZNKSt3__16vectorIN4crow4Trie4NodeENS_9allocatorIS3_EEE4sizeB7v160006Ev, symObjAddr: 0xB770, symBinAddr: 0x10000E360, symSize: 0x20 }
  - { offsetInCU: 0xB42BA, offset: 0xB42BA, size: 0x8, addend: 0x0, symName: __ZNSt3__16vectorIN4crow4Trie4NodeENS_9allocatorIS3_EEE22__base_destruct_at_endB7v160006EPS3_, symObjAddr: 0xB7A0, symBinAddr: 0x10000E390, symSize: 0x80 }
  - { offsetInCU: 0xB42FE, offset: 0xB42FE, size: 0x8, addend: 0x0, symName: __ZNSt3__116allocator_traitsINS_9allocatorIN4crow4Trie4NodeEEEE7destroyB7v160006IS4_vEEvRS5_PT_, symObjAddr: 0xB820, symBinAddr: 0x10000E410, symSize: 0x30 }
  - { offsetInCU: 0xB433B, offset: 0xB433B, size: 0x8, addend: 0x0, symName: __ZNSt3__19allocatorIN4crow4Trie4NodeEE7destroyB7v160006EPS3_, symObjAddr: 0xB850, symBinAddr: 0x10000E440, symSize: 0x20 }
  - { offsetInCU: 0xB4370, offset: 0xB4370, size: 0x8, addend: 0x0, symName: __ZNSt3__19allocatorIN4crow4Trie4NodeEE10deallocateB7v160006EPS3_m, symObjAddr: 0xB870, symBinAddr: 0x10000E460, symSize: 0x40 }
  - { offsetInCU: 0xB43B4, offset: 0xB43B4, size: 0x8, addend: 0x0, symName: __ZNSt3__117__compressed_pairIPN4crow4Trie4NodeENS_9allocatorIS3_EEE6secondB7v160006Ev, symObjAddr: 0xB8B0, symBinAddr: 0x10000E4A0, symSize: 0x20 }
  - { offsetInCU: 0xB43DA, offset: 0xB43DA, size: 0x8, addend: 0x0, symName: __ZNSt3__122__compressed_pair_elemINS_9allocatorIN4crow4Trie4NodeEEELi1ELb1EE5__getB7v160006Ev, symObjAddr: 0xB8D0, symBinAddr: 0x10000E4C0, symSize: 0x10 }
  - { offsetInCU: 0xB4400, offset: 0xB4400, size: 0x8, addend: 0x0, symName: __ZNKSt3__16vectorIN4crow4Trie4NodeENS_9allocatorIS3_EEE9__end_capB7v160006Ev, symObjAddr: 0xB8E0, symBinAddr: 0x10000E4D0, symSize: 0x20 }
  - { offsetInCU: 0xB4426, offset: 0xB4426, size: 0x8, addend: 0x0, symName: __ZNKSt3__117__compressed_pairIPN4crow4Trie4NodeENS_9allocatorIS3_EEE5firstB7v160006Ev, symObjAddr: 0xB900, symBinAddr: 0x10000E4F0, symSize: 0x20 }
  - { offsetInCU: 0xB444C, offset: 0xB444C, size: 0x8, addend: 0x0, symName: __ZNKSt3__122__compressed_pair_elemIPN4crow4Trie4NodeELi0ELb0EE5__getB7v160006Ev, symObjAddr: 0xB920, symBinAddr: 0x10000E510, symSize: 0x10 }
  - { offsetInCU: 0xB4472, offset: 0xB4472, size: 0x8, addend: 0x0, symName: __ZNSt3__16vectorIPN4crow8BaseRuleENS_9allocatorIS3_EEED2B7v160006Ev, symObjAddr: 0xB930, symBinAddr: 0x10000E520, symSize: 0x40 }
  - { offsetInCU: 0xB449C, offset: 0xB449C, size: 0x8, addend: 0x0, symName: __ZNSt3__16vectorIPN4crow8BaseRuleENS_9allocatorIS3_EEE16__destroy_vectorC1ERS6_, symObjAddr: 0xB970, symBinAddr: 0x10000E560, symSize: 0x30 }
  - { offsetInCU: 0xB44D5, offset: 0xB44D5, size: 0x8, addend: 0x0, symName: __ZNSt3__16vectorIPN4crow8BaseRuleENS_9allocatorIS3_EEE16__destroy_vectorclB7v160006Ev, symObjAddr: 0xB9A0, symBinAddr: 0x10000E590, symSize: 0x90 }
  - { offsetInCU: 0xB44FB, offset: 0xB44FB, size: 0x8, addend: 0x0, symName: __ZNSt3__16vectorIPN4crow8BaseRuleENS_9allocatorIS3_EEE16__destroy_vectorC2ERS6_, symObjAddr: 0xBA30, symBinAddr: 0x10000E620, symSize: 0x20 }
  - { offsetInCU: 0xB4534, offset: 0xB4534, size: 0x8, addend: 0x0, symName: __ZNKSt3__16vectorIPN4crow8BaseRuleENS_9allocatorIS3_EEE17__annotate_deleteB7v160006Ev, symObjAddr: 0xBA50, symBinAddr: 0x10000E640, symSize: 0xB0 }
  - { offsetInCU: 0xB455A, offset: 0xB455A, size: 0x8, addend: 0x0, symName: __ZNSt3__16vectorIPN4crow8BaseRuleENS_9allocatorIS3_EEE7__clearB7v160006Ev, symObjAddr: 0xBB10, symBinAddr: 0x10000E700, symSize: 0x20 }
  - { offsetInCU: 0xB4580, offset: 0xB4580, size: 0x8, addend: 0x0, symName: __ZNSt3__116allocator_traitsINS_9allocatorIPN4crow8BaseRuleEEEE10deallocateB7v160006ERS5_PS4_m, symObjAddr: 0xBB30, symBinAddr: 0x10000E720, symSize: 0x30 }
  - { offsetInCU: 0xB45C2, offset: 0xB45C2, size: 0x8, addend: 0x0, symName: __ZNSt3__16vectorIPN4crow8BaseRuleENS_9allocatorIS3_EEE7__allocB7v160006Ev, symObjAddr: 0xBB60, symBinAddr: 0x10000E750, symSize: 0x20 }
  - { offsetInCU: 0xB45E8, offset: 0xB45E8, size: 0x8, addend: 0x0, symName: __ZNKSt3__16vectorIPN4crow8BaseRuleENS_9allocatorIS3_EEE8capacityB7v160006Ev, symObjAddr: 0xBB80, symBinAddr: 0x10000E770, symSize: 0x30 }
  - { offsetInCU: 0xB460E, offset: 0xB460E, size: 0x8, addend: 0x0, symName: __ZNKSt3__16vectorIPN4crow8BaseRuleENS_9allocatorIS3_EEE31__annotate_contiguous_containerB7v160006EPKvS8_S8_S8_, symObjAddr: 0xBBB0, symBinAddr: 0x10000E7A0, symSize: 0x20 }
  - { offsetInCU: 0xB4660, offset: 0xB4660, size: 0x8, addend: 0x0, symName: __ZNKSt3__16vectorIPN4crow8BaseRuleENS_9allocatorIS3_EEE4dataB7v160006Ev, symObjAddr: 0xBBD0, symBinAddr: 0x10000E7C0, symSize: 0x20 }
  - { offsetInCU: 0xB4686, offset: 0xB4686, size: 0x8, addend: 0x0, symName: __ZNKSt3__16vectorIPN4crow8BaseRuleENS_9allocatorIS3_EEE4sizeB7v160006Ev, symObjAddr: 0xBBF0, symBinAddr: 0x10000E7E0, symSize: 0x20 }
  - { offsetInCU: 0xB46AC, offset: 0xB46AC, size: 0x8, addend: 0x0, symName: __ZNSt3__16vectorIPN4crow8BaseRuleENS_9allocatorIS3_EEE22__base_destruct_at_endB7v160006EPS3_, symObjAddr: 0xBC20, symBinAddr: 0x10000E810, symSize: 0x80 }
  - { offsetInCU: 0xB46F0, offset: 0xB46F0, size: 0x8, addend: 0x0, symName: __ZNSt3__116allocator_traitsINS_9allocatorIPN4crow8BaseRuleEEEE7destroyB7v160006IS4_vEEvRS5_PT_, symObjAddr: 0xBCA0, symBinAddr: 0x10000E890, symSize: 0x30 }
  - { offsetInCU: 0xB472D, offset: 0xB472D, size: 0x8, addend: 0x0, symName: __ZNSt3__19allocatorIPN4crow8BaseRuleEE7destroyB7v160006EPS3_, symObjAddr: 0xBCD0, symBinAddr: 0x10000E8C0, symSize: 0x10 }
  - { offsetInCU: 0xB4762, offset: 0xB4762, size: 0x8, addend: 0x0, symName: __ZNSt3__19allocatorIPN4crow8BaseRuleEE10deallocateB7v160006EPS3_m, symObjAddr: 0xBCE0, symBinAddr: 0x10000E8D0, symSize: 0x40 }
  - { offsetInCU: 0xB47A6, offset: 0xB47A6, size: 0x8, addend: 0x0, symName: __ZNSt3__117__compressed_pairIPPN4crow8BaseRuleENS_9allocatorIS3_EEE6secondB7v160006Ev, symObjAddr: 0xBD20, symBinAddr: 0x10000E910, symSize: 0x20 }
  - { offsetInCU: 0xB47CC, offset: 0xB47CC, size: 0x8, addend: 0x0, symName: __ZNSt3__122__compressed_pair_elemINS_9allocatorIPN4crow8BaseRuleEEELi1ELb1EE5__getB7v160006Ev, symObjAddr: 0xBD40, symBinAddr: 0x10000E930, symSize: 0x10 }
  - { offsetInCU: 0xB47F2, offset: 0xB47F2, size: 0x8, addend: 0x0, symName: __ZNKSt3__16vectorIPN4crow8BaseRuleENS_9allocatorIS3_EEE9__end_capB7v160006Ev, symObjAddr: 0xBD50, symBinAddr: 0x10000E940, symSize: 0x20 }
  - { offsetInCU: 0xB4818, offset: 0xB4818, size: 0x8, addend: 0x0, symName: __ZNKSt3__117__compressed_pairIPPN4crow8BaseRuleENS_9allocatorIS3_EEE5firstB7v160006Ev, symObjAddr: 0xBD70, symBinAddr: 0x10000E960, symSize: 0x20 }
  - { offsetInCU: 0xB483E, offset: 0xB483E, size: 0x8, addend: 0x0, symName: __ZNKSt3__122__compressed_pair_elemIPPN4crow8BaseRuleELi0ELb0EE5__getB7v160006Ev, symObjAddr: 0xBD90, symBinAddr: 0x10000E980, symSize: 0x10 }
  - { offsetInCU: 0xB4864, offset: 0xB4864, size: 0x8, addend: 0x0, symName: __ZN4crow12CatchallRuleD2Ev, symObjAddr: 0xBDA0, symBinAddr: 0x10000E990, symSize: 0x20 }
  - { offsetInCU: 0xB4891, offset: 0xB4891, size: 0x8, addend: 0x0, symName: __ZNSt3__18functionIFvRKN4crow7requestERNS1_8responseEEED1Ev, symObjAddr: 0xBDC0, symBinAddr: 0x10000E9B0, symSize: 0x20 }
  - { offsetInCU: 0xB48BD, offset: 0xB48BD, size: 0x8, addend: 0x0, symName: __ZNSt3__18functionIFvRKN4crow7requestERNS1_8responseEEED2Ev, symObjAddr: 0xBDE0, symBinAddr: 0x10000E9D0, symSize: 0x20 }
  - { offsetInCU: 0xB48E9, offset: 0xB48E9, size: 0x8, addend: 0x0, symName: __ZNSt3__110__function12__value_funcIFvRKN4crow7requestERNS2_8responseEEED1B7v160006Ev, symObjAddr: 0xBE00, symBinAddr: 0x10000E9F0, symSize: 0x20 }
  - { offsetInCU: 0xB4913, offset: 0xB4913, size: 0x8, addend: 0x0, symName: __ZNSt3__110__function12__value_funcIFvRKN4crow7requestERNS2_8responseEEED2B7v160006Ev, symObjAddr: 0xBE20, symBinAddr: 0x10000EA10, symSize: 0x60 }
  - { offsetInCU: 0xB493D, offset: 0xB493D, size: 0x8, addend: 0x0, symName: __ZN8DatabaseD2Ev, symObjAddr: 0xBE80, symBinAddr: 0x10000EA70, symSize: 0x40 }
  - { offsetInCU: 0xB4967, offset: 0xB4967, size: 0x8, addend: 0x0, symName: __ZNSt3__112basic_stringIcNS_11char_traitsIcEENS_9allocatorIcEEEC2B7v160006IDnEEPKc, symObjAddr: 0xBEC0, symBinAddr: 0x10000EAB0, symSize: 0x60 }
  - { offsetInCU: 0xB49A5, offset: 0xB49A5, size: 0x8, addend: 0x0, symName: __ZNSt3__117__compressed_pairINS_12basic_stringIcNS_11char_traitsIcEENS_9allocatorIcEEE5__repES5_EC1B7v160006INS_18__default_init_tagESA_EEOT_OT0_, symObjAddr: 0xBF20, symBinAddr: 0x10000EB10, symSize: 0x30 }
  - { offsetInCU: 0xB49FF, offset: 0xB49FF, size: 0x8, addend: 0x0, symName: __ZNSt3__111char_traitsIcE6lengthEPKc, symObjAddr: 0xBF50, symBinAddr: 0x10000EB40, symSize: 0x30 }
  - { offsetInCU: 0xB4A23, offset: 0xB4A23, size: 0x8, addend: 0x0, symName: __ZNSt3__117__compressed_pairINS_12basic_stringIcNS_11char_traitsIcEENS_9allocatorIcEEE5__repES5_EC2B7v160006INS_18__default_init_tagESA_EEOT_OT0_, symObjAddr: 0xBF80, symBinAddr: 0x10000EB70, symSize: 0x30 }
  - { offsetInCU: 0xB4A7D, offset: 0xB4A7D, size: 0x8, addend: 0x0, symName: __ZNSt3__122__compressed_pair_elemINS_12basic_stringIcNS_11char_traitsIcEENS_9allocatorIcEEE5__repELi0ELb0EEC2B7v160006ENS_18__default_init_tagE, symObjAddr: 0xBFB0, symBinAddr: 0x10000EBA0, symSize: 0x10 }
  - { offsetInCU: 0xB4AB2, offset: 0xB4AB2, size: 0x8, addend: 0x0, symName: __ZNSt3__122__compressed_pair_elemINS_9allocatorIcEELi1ELb1EEC2B7v160006ENS_18__default_init_tagE, symObjAddr: 0xBFC0, symBinAddr: 0x10000EBB0, symSize: 0x20 }
  - { offsetInCU: 0xB4AE7, offset: 0xB4AE7, size: 0x8, addend: 0x0, symName: __ZNSt3__19allocatorIcEC2B7v160006Ev, symObjAddr: 0xBFE0, symBinAddr: 0x10000EBD0, symSize: 0x20 }
  - { offsetInCU: 0xB4B11, offset: 0xB4B11, size: 0x8, addend: 0x0, symName: __ZNSt3__116__non_trivial_ifILb1ENS_9allocatorIcEEEC2B7v160006Ev, symObjAddr: 0xC000, symBinAddr: 0x10000EBF0, symSize: 0x10 }
  - { offsetInCU: 0xB4B3B, offset: 0xB4B3B, size: 0x8, addend: 0x0, symName: __ZNSt3__113unordered_mapINS_12basic_stringIcNS_11char_traitsIcEENS_9allocatorIcEEEES6_NS_4hashIS6_EENS_8equal_toIS6_EENS4_INS_4pairIKS6_S6_EEEEEC2ESt16initializer_listISD_E, symObjAddr: 0xC030, symBinAddr: 0x10000EC20, symSize: 0x90 }
  - { offsetInCU: 0xB4B76, offset: 0xB4B76, size: 0x8, addend: 0x0, symName: __ZNSt3__112__hash_tableINS_17__hash_value_typeINS_12basic_stringIcNS_11char_traitsIcEENS_9allocatorIcEEEES7_EENS_22__unordered_map_hasherIS7_S8_NS_4hashIS7_EENS_8equal_toIS7_EELb1EEENS_21__unordered_map_equalIS7_S8_SD_SB_Lb1EEENS5_IS8_EEEC1Ev, symObjAddr: 0xC0C0, symBinAddr: 0x10000ECB0, symSize: 0x20 }
  - { offsetInCU: 0xB4BA2, offset: 0xB4BA2, size: 0x8, addend: 0x0, symName: __ZNSt3__113unordered_mapINS_12basic_stringIcNS_11char_traitsIcEENS_9allocatorIcEEEES6_NS_4hashIS6_EENS_8equal_toIS6_EENS4_INS_4pairIKS6_S6_EEEEE6insertIPKSD_EEvT_SJ_, symObjAddr: 0xC0F0, symBinAddr: 0x10000ECE0, symSize: 0x60 }
  - { offsetInCU: 0xB4BF1, offset: 0xB4BF1, size: 0x8, addend: 0x0, symName: __ZNKSt16initializer_listINSt3__14pairIKNS0_12basic_stringIcNS0_11char_traitsIcEENS0_9allocatorIcEEEES7_EEE5beginB7v160006Ev, symObjAddr: 0xC150, symBinAddr: 0x10000ED40, symSize: 0x20 }
  - { offsetInCU: 0xB4C17, offset: 0xB4C17, size: 0x8, addend: 0x0, symName: __ZNKSt16initializer_listINSt3__14pairIKNS0_12basic_stringIcNS0_11char_traitsIcEENS0_9allocatorIcEEEES7_EEE3endB7v160006Ev, symObjAddr: 0xC170, symBinAddr: 0x10000ED60, symSize: 0x20 }
  - { offsetInCU: 0xB4C3D, offset: 0xB4C3D, size: 0x8, addend: 0x0, symName: __ZNSt3__112__hash_tableINS_17__hash_value_typeINS_12basic_stringIcNS_11char_traitsIcEENS_9allocatorIcEEEES7_EENS_22__unordered_map_hasherIS7_S8_NS_4hashIS7_EENS_8equal_toIS7_EELb1EEENS_21__unordered_map_equalIS7_S8_SD_SB_Lb1EEENS5_IS8_EEED1Ev, symObjAddr: 0xC190, symBinAddr: 0x10000ED80, symSize: 0x20 }
  - { offsetInCU: 0xB4C69, offset: 0xB4C69, size: 0x8, addend: 0x0, symName: __ZNSt3__112__hash_tableINS_17__hash_value_typeINS_12basic_stringIcNS_11char_traitsIcEENS_9allocatorIcEEEES7_EENS_22__unordered_map_hasherIS7_S8_NS_4hashIS7_EENS_8equal_toIS7_EELb1EEENS_21__unordered_map_equalIS7_S8_SD_SB_Lb1EEENS5_IS8_EEEC2Ev, symObjAddr: 0xC1B0, symBinAddr: 0x10000EDA0, symSize: 0x80 }
  - { offsetInCU: 0xB4C95, offset: 0xB4C95, size: 0x8, addend: 0x0, symName: __ZNSt3__110unique_ptrIA_PNS_16__hash_node_baseIPNS_11__hash_nodeINS_17__hash_value_typeINS_12basic_stringIcNS_11char_traitsIcEENS_9allocatorIcEEEES9_EEPvEEEENS_25__bucket_list_deallocatorINS7_ISF_EEEEEC1B7v160006ILb1EvEEv, symObjAddr: 0xC230, symBinAddr: 0x10000EE20, symSize: 0x20 }
  - { offsetInCU: 0xB4CCA, offset: 0xB4CCA, size: 0x8, addend: 0x0, symName: __ZNSt3__117__compressed_pairINS_16__hash_node_baseIPNS_11__hash_nodeINS_17__hash_value_typeINS_12basic_stringIcNS_11char_traitsIcEENS_9allocatorIcEEEES9_EEPvEEEENS7_ISC_EEEC1B7v160006ILb1EvEEv, symObjAddr: 0xC250, symBinAddr: 0x10000EE40, symSize: 0x20 }
  - { offsetInCU: 0xB4CFF, offset: 0xB4CFF, size: 0x8, addend: 0x0, symName: __ZNSt3__117__compressed_pairImNS_22__unordered_map_hasherINS_12basic_stringIcNS_11char_traitsIcEENS_9allocatorIcEEEENS_17__hash_value_typeIS7_S7_EENS_4hashIS7_EENS_8equal_toIS7_EELb1EEEEC1B7v160006IiNS_18__default_init_tagEEEOT_OT0_, symObjAddr: 0xC270, symBinAddr: 0x10000EE60, symSize: 0x30 }
  - { offsetInCU: 0xB4D5F, offset: 0xB4D5F, size: 0x8, addend: 0x0, symName: __ZNSt3__117__compressed_pairIfNS_21__unordered_map_equalINS_12basic_stringIcNS_11char_traitsIcEENS_9allocatorIcEEEENS_17__hash_value_typeIS7_S7_EENS_8equal_toIS7_EENS_4hashIS7_EELb1EEEEC1B7v160006IfNS_18__default_init_tagEEEOT_OT0_, symObjAddr: 0xC2A0, symBinAddr: 0x10000EE90, symSize: 0x30 }
  - { offsetInCU: 0xB4DB9, offset: 0xB4DB9, size: 0x8, addend: 0x0, symName: __ZNSt3__110unique_ptrIA_PNS_16__hash_node_baseIPNS_11__hash_nodeINS_17__hash_value_typeINS_12basic_stringIcNS_11char_traitsIcEENS_9allocatorIcEEEES9_EEPvEEEENS_25__bucket_list_deallocatorINS7_ISF_EEEEEC2B7v160006ILb1EvEEv, symObjAddr: 0xC2D0, symBinAddr: 0x10000EEC0, symSize: 0x30 }
  - { offsetInCU: 0xB4DF4, offset: 0xB4DF4, size: 0x8, addend: 0x0, symName: __ZNSt3__117__compressed_pairIPPNS_16__hash_node_baseIPNS_11__hash_nodeINS_17__hash_value_typeINS_12basic_stringIcNS_11char_traitsIcEENS_9allocatorIcEEEES9_EEPvEEEENS_25__bucket_list_deallocatorINS7_ISF_EEEEEC1B7v160006INS_16__value_init_tagESM_EEOT_OT0_, symObjAddr: 0xC300, symBinAddr: 0x10000EEF0, symSize: 0x30 }
  - { offsetInCU: 0xB4E4E, offset: 0xB4E4E, size: 0x8, addend: 0x0, symName: __ZNSt3__117__compressed_pairIPPNS_16__hash_node_baseIPNS_11__hash_nodeINS_17__hash_value_typeINS_12basic_stringIcNS_11char_traitsIcEENS_9allocatorIcEEEES9_EEPvEEEENS_25__bucket_list_deallocatorINS7_ISF_EEEEEC2B7v160006INS_16__value_init_tagESM_EEOT_OT0_, symObjAddr: 0xC330, symBinAddr: 0x10000EF20, symSize: 0x40 }
  - { offsetInCU: 0xB4EA8, offset: 0xB4EA8, size: 0x8, addend: 0x0, symName: __ZNSt3__122__compressed_pair_elemIPPNS_16__hash_node_baseIPNS_11__hash_nodeINS_17__hash_value_typeINS_12basic_stringIcNS_11char_traitsIcEENS_9allocatorIcEEEES9_EEPvEEEELi0ELb0EEC2B7v160006ENS_16__value_init_tagE, symObjAddr: 0xC370, symBinAddr: 0x10000EF60, symSize: 0x20 }
  - { offsetInCU: 0xB4EDD, offset: 0xB4EDD, size: 0x8, addend: 0x0, symName: __ZNSt3__122__compressed_pair_elemINS_25__bucket_list_deallocatorINS_9allocatorIPNS_16__hash_node_baseIPNS_11__hash_nodeINS_17__hash_value_typeINS_12basic_stringIcNS_11char_traitsIcEENS2_IcEEEESA_EEPvEEEEEEEELi1ELb0EEC2B7v160006ENS_16__value_init_tagE, symObjAddr: 0xC390, symBinAddr: 0x10000EF80, symSize: 0x20 }
  - { offsetInCU: 0xB4F12, offset: 0xB4F12, size: 0x8, addend: 0x0, symName: __ZNSt3__125__bucket_list_deallocatorINS_9allocatorIPNS_16__hash_node_baseIPNS_11__hash_nodeINS_17__hash_value_typeINS_12basic_stringIcNS_11char_traitsIcEENS1_IcEEEES9_EEPvEEEEEEEC1B7v160006Ev, symObjAddr: 0xC3B0, symBinAddr: 0x10000EFA0, symSize: 0x20 }
  - { offsetInCU: 0xB4F3C, offset: 0xB4F3C, size: 0x8, addend: 0x0, symName: __ZNSt3__125__bucket_list_deallocatorINS_9allocatorIPNS_16__hash_node_baseIPNS_11__hash_nodeINS_17__hash_value_typeINS_12basic_stringIcNS_11char_traitsIcEENS1_IcEEEES9_EEPvEEEEEEEC2B7v160006Ev, symObjAddr: 0xC3D0, symBinAddr: 0x10000EFC0, symSize: 0x40 }
  - { offsetInCU: 0xB4F66, offset: 0xB4F66, size: 0x8, addend: 0x0, symName: __ZNSt3__117__compressed_pairImNS_9allocatorIPNS_16__hash_node_baseIPNS_11__hash_nodeINS_17__hash_value_typeINS_12basic_stringIcNS_11char_traitsIcEENS1_IcEEEES9_EEPvEEEEEEEC1B7v160006IiNS_18__default_init_tagEEEOT_OT0_, symObjAddr: 0xC410, symBinAddr: 0x10000F000, symSize: 0x30 }
  - { offsetInCU: 0xB4FC0, offset: 0xB4FC0, size: 0x8, addend: 0x0, symName: __ZNSt3__117__compressed_pairImNS_9allocatorIPNS_16__hash_node_baseIPNS_11__hash_nodeINS_17__hash_value_typeINS_12basic_stringIcNS_11char_traitsIcEENS1_IcEEEES9_EEPvEEEEEEEC2B7v160006IiNS_18__default_init_tagEEEOT_OT0_, symObjAddr: 0xC440, symBinAddr: 0x10000F030, symSize: 0x40 }
  - { offsetInCU: 0xB501A, offset: 0xB501A, size: 0x8, addend: 0x0, symName: __ZNSt3__122__compressed_pair_elemINS_9allocatorIPNS_16__hash_node_baseIPNS_11__hash_nodeINS_17__hash_value_typeINS_12basic_stringIcNS_11char_traitsIcEENS1_IcEEEES9_EEPvEEEEEELi1ELb1EEC2B7v160006ENS_18__default_init_tagE, symObjAddr: 0xC480, symBinAddr: 0x10000F070, symSize: 0x20 }
  - { offsetInCU: 0xB504F, offset: 0xB504F, size: 0x8, addend: 0x0, symName: __ZNSt3__19allocatorIPNS_16__hash_node_baseIPNS_11__hash_nodeINS_17__hash_value_typeINS_12basic_stringIcNS_11char_traitsIcEENS0_IcEEEES8_EEPvEEEEEC2B7v160006Ev, symObjAddr: 0xC4A0, symBinAddr: 0x10000F090, symSize: 0x20 }
  - { offsetInCU: 0xB5079, offset: 0xB5079, size: 0x8, addend: 0x0, symName: __ZNSt3__116__non_trivial_ifILb1ENS_9allocatorIPNS_16__hash_node_baseIPNS_11__hash_nodeINS_17__hash_value_typeINS_12basic_stringIcNS_11char_traitsIcEENS1_IcEEEES9_EEPvEEEEEEEC2B7v160006Ev, symObjAddr: 0xC4C0, symBinAddr: 0x10000F0B0, symSize: 0x10 }
  - { offsetInCU: 0xB50A3, offset: 0xB50A3, size: 0x8, addend: 0x0, symName: __ZNSt3__117__compressed_pairINS_16__hash_node_baseIPNS_11__hash_nodeINS_17__hash_value_typeINS_12basic_stringIcNS_11char_traitsIcEENS_9allocatorIcEEEES9_EEPvEEEENS7_ISC_EEEC2B7v160006ILb1EvEEv, symObjAddr: 0xC4D0, symBinAddr: 0x10000F0C0, symSize: 0x30 }
  - { offsetInCU: 0xB50D8, offset: 0xB50D8, size: 0x8, addend: 0x0, symName: __ZNSt3__122__compressed_pair_elemINS_16__hash_node_baseIPNS_11__hash_nodeINS_17__hash_value_typeINS_12basic_stringIcNS_11char_traitsIcEENS_9allocatorIcEEEES9_EEPvEEEELi0ELb0EEC2B7v160006ENS_16__value_init_tagE, symObjAddr: 0xC500, symBinAddr: 0x10000F0F0, symSize: 0x20 }
  - { offsetInCU: 0xB510D, offset: 0xB510D, size: 0x8, addend: 0x0, symName: __ZNSt3__122__compressed_pair_elemINS_9allocatorINS_11__hash_nodeINS_17__hash_value_typeINS_12basic_stringIcNS_11char_traitsIcEENS1_IcEEEES8_EEPvEEEELi1ELb1EEC2B7v160006ENS_16__value_init_tagE, symObjAddr: 0xC520, symBinAddr: 0x10000F110, symSize: 0x20 }
  - { offsetInCU: 0xB5142, offset: 0xB5142, size: 0x8, addend: 0x0, symName: __ZNSt3__116__hash_node_baseIPNS_11__hash_nodeINS_17__hash_value_typeINS_12basic_stringIcNS_11char_traitsIcEENS_9allocatorIcEEEES8_EEPvEEEC1B7v160006Ev, symObjAddr: 0xC540, symBinAddr: 0x10000F130, symSize: 0x20 }
  - { offsetInCU: 0xB516C, offset: 0xB516C, size: 0x8, addend: 0x0, symName: __ZNSt3__116__hash_node_baseIPNS_11__hash_nodeINS_17__hash_value_typeINS_12basic_stringIcNS_11char_traitsIcEENS_9allocatorIcEEEES8_EEPvEEEC2B7v160006Ev, symObjAddr: 0xC560, symBinAddr: 0x10000F150, symSize: 0x20 }
  - { offsetInCU: 0xB5196, offset: 0xB5196, size: 0x8, addend: 0x0, symName: __ZNSt3__19allocatorINS_11__hash_nodeINS_17__hash_value_typeINS_12basic_stringIcNS_11char_traitsIcEENS0_IcEEEES7_EEPvEEEC2B7v160006Ev, symObjAddr: 0xC580, symBinAddr: 0x10000F170, symSize: 0x20 }
  - { offsetInCU: 0xB51C0, offset: 0xB51C0, size: 0x8, addend: 0x0, symName: __ZNSt3__116__non_trivial_ifILb1ENS_9allocatorINS_11__hash_nodeINS_17__hash_value_typeINS_12basic_stringIcNS_11char_traitsIcEENS1_IcEEEES8_EEPvEEEEEC2B7v160006Ev, symObjAddr: 0xC5A0, symBinAddr: 0x10000F190, symSize: 0x10 }
  - { offsetInCU: 0xB51EA, offset: 0xB51EA, size: 0x8, addend: 0x0, symName: __ZNSt3__117__compressed_pairImNS_22__unordered_map_hasherINS_12basic_stringIcNS_11char_traitsIcEENS_9allocatorIcEEEENS_17__hash_value_typeIS7_S7_EENS_4hashIS7_EENS_8equal_toIS7_EELb1EEEEC2B7v160006IiNS_18__default_init_tagEEEOT_OT0_, symObjAddr: 0xC5B0, symBinAddr: 0x10000F1A0, symSize: 0x40 }
  - { offsetInCU: 0xB5244, offset: 0xB5244, size: 0x8, addend: 0x0, symName: __ZNSt3__122__compressed_pair_elemINS_22__unordered_map_hasherINS_12basic_stringIcNS_11char_traitsIcEENS_9allocatorIcEEEENS_17__hash_value_typeIS7_S7_EENS_4hashIS7_EENS_8equal_toIS7_EELb1EEELi1ELb1EEC2B7v160006ENS_18__default_init_tagE, symObjAddr: 0xC5F0, symBinAddr: 0x10000F1E0, symSize: 0x20 }
  - { offsetInCU: 0xB5279, offset: 0xB5279, size: 0x8, addend: 0x0, symName: __ZNSt3__122__unordered_map_hasherINS_12basic_stringIcNS_11char_traitsIcEENS_9allocatorIcEEEENS_17__hash_value_typeIS6_S6_EENS_4hashIS6_EENS_8equal_toIS6_EELb1EEC2B7v160006Ev, symObjAddr: 0xC610, symBinAddr: 0x10000F200, symSize: 0x10 }
  - { offsetInCU: 0xB52A3, offset: 0xB52A3, size: 0x8, addend: 0x0, symName: __ZNSt3__117__compressed_pairIfNS_21__unordered_map_equalINS_12basic_stringIcNS_11char_traitsIcEENS_9allocatorIcEEEENS_17__hash_value_typeIS7_S7_EENS_8equal_toIS7_EENS_4hashIS7_EELb1EEEEC2B7v160006IfNS_18__default_init_tagEEEOT_OT0_, symObjAddr: 0xC620, symBinAddr: 0x10000F210, symSize: 0x40 }
  - { offsetInCU: 0xB52FD, offset: 0xB52FD, size: 0x8, addend: 0x0, symName: __ZNSt3__122__compressed_pair_elemIfLi0ELb0EEC2B7v160006IfvEEOT_, symObjAddr: 0xC660, symBinAddr: 0x10000F250, symSize: 0x20 }
  - { offsetInCU: 0xB5340, offset: 0xB5340, size: 0x8, addend: 0x0, symName: __ZNSt3__122__compressed_pair_elemINS_21__unordered_map_equalINS_12basic_stringIcNS_11char_traitsIcEENS_9allocatorIcEEEENS_17__hash_value_typeIS7_S7_EENS_8equal_toIS7_EENS_4hashIS7_EELb1EEELi1ELb1EEC2B7v160006ENS_18__default_init_tagE, symObjAddr: 0xC680, symBinAddr: 0x10000F270, symSize: 0x20 }
  - { offsetInCU: 0xB5375, offset: 0xB5375, size: 0x8, addend: 0x0, symName: __ZNSt3__121__unordered_map_equalINS_12basic_stringIcNS_11char_traitsIcEENS_9allocatorIcEEEENS_17__hash_value_typeIS6_S6_EENS_8equal_toIS6_EENS_4hashIS6_EELb1EEC2B7v160006Ev, symObjAddr: 0xC6A0, symBinAddr: 0x10000F290, symSize: 0x10 }
  - { offsetInCU: 0xB539F, offset: 0xB539F, size: 0x8, addend: 0x0, symName: __ZNSt3__112__hash_tableINS_17__hash_value_typeINS_12basic_stringIcNS_11char_traitsIcEENS_9allocatorIcEEEES7_EENS_22__unordered_map_hasherIS7_S8_NS_4hashIS7_EENS_8equal_toIS7_EELb1EEENS_21__unordered_map_equalIS7_S8_SD_SB_Lb1EEENS5_IS8_EEE15__insert_uniqueB7v160006ERKNS_4pairIKS7_S7_EE, symObjAddr: 0xC6B0, symBinAddr: 0x10000F2A0, symSize: 0x50 }
  - { offsetInCU: 0xB53D4, offset: 0xB53D4, size: 0x8, addend: 0x0, symName: __ZNSt3__112__hash_tableINS_17__hash_value_typeINS_12basic_stringIcNS_11char_traitsIcEENS_9allocatorIcEEEES7_EENS_22__unordered_map_hasherIS7_S8_NS_4hashIS7_EENS_8equal_toIS7_EELb1EEENS_21__unordered_map_equalIS7_S8_SD_SB_Lb1EEENS5_IS8_EEE25__emplace_unique_key_argsIS7_JRKNS_4pairIKS7_S7_EEEEENSK_INS_15__hash_iteratorIPNS_11__hash_nodeIS8_PvEEEEbEERKT_DpOT0_, symObjAddr: 0xC700, symBinAddr: 0x10000F2F0, symSize: 0x630 }
  - { offsetInCU: 0xB54B2, offset: 0xB54B2, size: 0x8, addend: 0x0, symName: __ZNSt3__122__hash_key_value_typesINS_17__hash_value_typeINS_12basic_stringIcNS_11char_traitsIcEENS_9allocatorIcEEEES7_EEE9__get_keyB7v160006ERKNS_4pairIKS7_S7_EE, symObjAddr: 0xCD30, symBinAddr: 0x10000F920, symSize: 0x10 }
  - { offsetInCU: 0xB54D6, offset: 0xB54D6, size: 0x8, addend: 0x0, symName: __ZNSt3__112__hash_tableINS_17__hash_value_typeINS_12basic_stringIcNS_11char_traitsIcEENS_9allocatorIcEEEES7_EENS_22__unordered_map_hasherIS7_S8_NS_4hashIS7_EENS_8equal_toIS7_EELb1EEENS_21__unordered_map_equalIS7_S8_SD_SB_Lb1EEENS5_IS8_EEE13hash_functionB7v160006Ev, symObjAddr: 0xCD40, symBinAddr: 0x10000F930, symSize: 0x20 }
  - { offsetInCU: 0xB54FC, offset: 0xB54FC, size: 0x8, addend: 0x0, symName: __ZNKSt3__122__unordered_map_hasherINS_12basic_stringIcNS_11char_traitsIcEENS_9allocatorIcEEEENS_17__hash_value_typeIS6_S6_EENS_4hashIS6_EENS_8equal_toIS6_EELb1EEclB7v160006ERKS6_, symObjAddr: 0xCD60, symBinAddr: 0x10000F950, symSize: 0x30 }
  - { offsetInCU: 0xB5531, offset: 0xB5531, size: 0x8, addend: 0x0, symName: __ZNKSt3__112__hash_tableINS_17__hash_value_typeINS_12basic_stringIcNS_11char_traitsIcEENS_9allocatorIcEEEES7_EENS_22__unordered_map_hasherIS7_S8_NS_4hashIS7_EENS_8equal_toIS7_EELb1EEENS_21__unordered_map_equalIS7_S8_SD_SB_Lb1EEENS5_IS8_EEE12bucket_countB7v160006Ev, symObjAddr: 0xCD90, symBinAddr: 0x10000F980, symSize: 0x30 }
  - { offsetInCU: 0xB5557, offset: 0xB5557, size: 0x8, addend: 0x0, symName: __ZNKSt3__110unique_ptrIA_PNS_16__hash_node_baseIPNS_11__hash_nodeINS_17__hash_value_typeINS_12basic_stringIcNS_11char_traitsIcEENS_9allocatorIcEEEES9_EEPvEEEENS_25__bucket_list_deallocatorINS7_ISF_EEEEEixB7v160006Em, symObjAddr: 0xCE40, symBinAddr: 0x10000FA30, symSize: 0x30 }
  - { offsetInCU: 0xB558C, offset: 0xB558C, size: 0x8, addend: 0x0, symName: __ZNKSt3__116__hash_node_baseIPNS_11__hash_nodeINS_17__hash_value_typeINS_12basic_stringIcNS_11char_traitsIcEENS_9allocatorIcEEEES8_EEPvEEE6__hashB7v160006Ev, symObjAddr: 0xCE70, symBinAddr: 0x10000FA60, symSize: 0x20 }
  - { offsetInCU: 0xB55B2, offset: 0xB55B2, size: 0x8, addend: 0x0, symName: __ZNSt3__112__hash_tableINS_17__hash_value_typeINS_12basic_stringIcNS_11char_traitsIcEENS_9allocatorIcEEEES7_EENS_22__unordered_map_hasherIS7_S8_NS_4hashIS7_EENS_8equal_toIS7_EELb1EEENS_21__unordered_map_equalIS7_S8_SD_SB_Lb1EEENS5_IS8_EEE6key_eqB7v160006Ev, symObjAddr: 0xCE90, symBinAddr: 0x10000FA80, symSize: 0x20 }
  - { offsetInCU: 0xB55D8, offset: 0xB55D8, size: 0x8, addend: 0x0, symName: __ZNKSt3__121__unordered_map_equalINS_12basic_stringIcNS_11char_traitsIcEENS_9allocatorIcEEEENS_17__hash_value_typeIS6_S6_EENS_8equal_toIS6_EENS_4hashIS6_EELb1EEclB7v160006ERKS8_RKS6_, symObjAddr: 0xCEB0, symBinAddr: 0x10000FAA0, symSize: 0x40 }
  - { offsetInCU: 0xB561C, offset: 0xB561C, size: 0x8, addend: 0x0, symName: __ZNSt3__116__hash_node_baseIPNS_11__hash_nodeINS_17__hash_value_typeINS_12basic_stringIcNS_11char_traitsIcEENS_9allocatorIcEEEES8_EEPvEEE8__upcastB7v160006Ev, symObjAddr: 0xCEF0, symBinAddr: 0x10000FAE0, symSize: 0x20 }
  - { offsetInCU: 0xB5642, offset: 0xB5642, size: 0x8, addend: 0x0, symName: __ZNSt3__112__hash_tableINS_17__hash_value_typeINS_12basic_stringIcNS_11char_traitsIcEENS_9allocatorIcEEEES7_EENS_22__unordered_map_hasherIS7_S8_NS_4hashIS7_EENS_8equal_toIS7_EELb1EEENS_21__unordered_map_equalIS7_S8_SD_SB_Lb1EEENS5_IS8_EEE21__construct_node_hashIRKNS_4pairIKS7_S7_EEJEEENS_10unique_ptrINS_11__hash_nodeIS8_PvEENS_22__hash_node_destructorINS5_ISS_EEEEEEmOT_DpOT0_, symObjAddr: 0xCF10, symBinAddr: 0x10000FB00, symSize: 0x140 }
  - { offsetInCU: 0xB56B5, offset: 0xB56B5, size: 0x8, addend: 0x0, symName: __ZNSt3__112__hash_tableINS_17__hash_value_typeINS_12basic_stringIcNS_11char_traitsIcEENS_9allocatorIcEEEES7_EENS_22__unordered_map_hasherIS7_S8_NS_4hashIS7_EENS_8equal_toIS7_EELb1EEENS_21__unordered_map_equalIS7_S8_SD_SB_Lb1EEENS5_IS8_EEE4sizeB7v160006Ev, symObjAddr: 0xD050, symBinAddr: 0x10000FC40, symSize: 0x20 }
  - { offsetInCU: 0xB56DB, offset: 0xB56DB, size: 0x8, addend: 0x0, symName: __ZNSt3__112__hash_tableINS_17__hash_value_typeINS_12basic_stringIcNS_11char_traitsIcEENS_9allocatorIcEEEES7_EENS_22__unordered_map_hasherIS7_S8_NS_4hashIS7_EENS_8equal_toIS7_EELb1EEENS_21__unordered_map_equalIS7_S8_SD_SB_Lb1EEENS5_IS8_EEE15max_load_factorB7v160006Ev, symObjAddr: 0xD070, symBinAddr: 0x10000FC60, symSize: 0x20 }
  - { offsetInCU: 0xB5701, offset: 0xB5701, size: 0x8, addend: 0x0, symName: __ZNSt3__112__hash_tableINS_17__hash_value_typeINS_12basic_stringIcNS_11char_traitsIcEENS_9allocatorIcEEEES7_EENS_22__unordered_map_hasherIS7_S8_NS_4hashIS7_EENS_8equal_toIS7_EELb1EEENS_21__unordered_map_equalIS7_S8_SD_SB_Lb1EEENS5_IS8_EEE15__rehash_uniqueB7v160006Em, symObjAddr: 0xD090, symBinAddr: 0x10000FC80, symSize: 0x30 }
  - { offsetInCU: 0xB5736, offset: 0xB5736, size: 0x8, addend: 0x0, symName: __Z4ceilB7v160006f, symObjAddr: 0xD130, symBinAddr: 0x10000FD20, symSize: 0x20 }
  - { offsetInCU: 0xB5768, offset: 0xB5768, size: 0x8, addend: 0x0, symName: __ZNSt3__117__compressed_pairINS_16__hash_node_baseIPNS_11__hash_nodeINS_17__hash_value_typeINS_12basic_stringIcNS_11char_traitsIcEENS_9allocatorIcEEEES9_EEPvEEEENS7_ISC_EEE5firstB7v160006Ev, symObjAddr: 0xD150, symBinAddr: 0x10000FD40, symSize: 0x20 }
  - { offsetInCU: 0xB578E, offset: 0xB578E, size: 0x8, addend: 0x0, symName: __ZNSt3__116__hash_node_baseIPNS_11__hash_nodeINS_17__hash_value_typeINS_12basic_stringIcNS_11char_traitsIcEENS_9allocatorIcEEEES8_EEPvEEE5__ptrB7v160006Ev, symObjAddr: 0xD170, symBinAddr: 0x10000FD60, symSize: 0x20 }
  - { offsetInCU: 0xB57B4, offset: 0xB57B4, size: 0x8, addend: 0x0, symName: __ZNKSt3__110unique_ptrINS_11__hash_nodeINS_17__hash_value_typeINS_12basic_stringIcNS_11char_traitsIcEENS_9allocatorIcEEEES8_EEPvEENS_22__hash_node_destructorINS6_ISB_EEEEEptB7v160006Ev, symObjAddr: 0xD190, symBinAddr: 0x10000FD80, symSize: 0x20 }
  - { offsetInCU: 0xB57DA, offset: 0xB57DA, size: 0x8, addend: 0x0, symName: __ZNKSt3__110unique_ptrINS_11__hash_nodeINS_17__hash_value_typeINS_12basic_stringIcNS_11char_traitsIcEENS_9allocatorIcEEEES8_EEPvEENS_22__hash_node_destructorINS6_ISB_EEEEE3getB7v160006Ev, symObjAddr: 0xD1B0, symBinAddr: 0x10000FDA0, symSize: 0x20 }
  - { offsetInCU: 0xB5800, offset: 0xB5800, size: 0x8, addend: 0x0, symName: __ZNSt3__110unique_ptrINS_11__hash_nodeINS_17__hash_value_typeINS_12basic_stringIcNS_11char_traitsIcEENS_9allocatorIcEEEES8_EEPvEENS_22__hash_node_destructorINS6_ISB_EEEEE7releaseB7v160006Ev, symObjAddr: 0xD1D0, symBinAddr: 0x10000FDC0, symSize: 0x40 }
  - { offsetInCU: 0xB5835, offset: 0xB5835, size: 0x8, addend: 0x0, symName: __ZNSt3__110unique_ptrINS_11__hash_nodeINS_17__hash_value_typeINS_12basic_stringIcNS_11char_traitsIcEENS_9allocatorIcEEEES8_EEPvEENS_22__hash_node_destructorINS6_ISB_EEEEED1B7v160006Ev, symObjAddr: 0xD210, symBinAddr: 0x10000FE00, symSize: 0x20 }
  - { offsetInCU: 0xB585F, offset: 0xB585F, size: 0x8, addend: 0x0, symName: __ZNSt3__115__hash_iteratorIPNS_11__hash_nodeINS_17__hash_value_typeINS_12basic_stringIcNS_11char_traitsIcEENS_9allocatorIcEEEES8_EEPvEEEC1B7v160006EPNS_16__hash_node_baseISC_EEPKv, symObjAddr: 0xD230, symBinAddr: 0x10000FE20, symSize: 0x30 }
  - { offsetInCU: 0xB58AD, offset: 0xB58AD, size: 0x8, addend: 0x0, symName: __ZNSt3__14pairINS_15__hash_iteratorIPNS_11__hash_nodeINS_17__hash_value_typeINS_12basic_stringIcNS_11char_traitsIcEENS_9allocatorIcEEEES9_EEPvEEEEbEC1B7v160006ISE_RbLSB_0EEEOT_OT0_, symObjAddr: 0xD260, symBinAddr: 0x10000FE50, symSize: 0x30 }
  - { offsetInCU: 0xB590D, offset: 0xB590D, size: 0x8, addend: 0x0, symName: __ZNSt3__117__compressed_pairImNS_22__unordered_map_hasherINS_12basic_stringIcNS_11char_traitsIcEENS_9allocatorIcEEEENS_17__hash_value_typeIS7_S7_EENS_4hashIS7_EENS_8equal_toIS7_EELb1EEEE6secondB7v160006Ev, symObjAddr: 0xD290, symBinAddr: 0x10000FE80, symSize: 0x20 }
  - { offsetInCU: 0xB5933, offset: 0xB5933, size: 0x8, addend: 0x0, symName: __ZNSt3__122__compressed_pair_elemINS_22__unordered_map_hasherINS_12basic_stringIcNS_11char_traitsIcEENS_9allocatorIcEEEENS_17__hash_value_typeIS7_S7_EENS_4hashIS7_EENS_8equal_toIS7_EELb1EEELi1ELb1EE5__getB7v160006Ev, symObjAddr: 0xD2B0, symBinAddr: 0x10000FEA0, symSize: 0x10 }
  - { offsetInCU: 0xB5959, offset: 0xB5959, size: 0x8, addend: 0x0, symName: __ZNKSt3__113__string_hashIcNS_9allocatorIcEEEclERKNS_12basic_stringIcNS_11char_traitsIcEES2_EE, symObjAddr: 0xD2C0, symBinAddr: 0x10000FEB0, symSize: 0x60 }
  - { offsetInCU: 0xB598E, offset: 0xB598E, size: 0x8, addend: 0x0, symName: __ZNKSt3__112basic_stringIcNS_11char_traitsIcEENS_9allocatorIcEEE4dataB7v160006Ev, symObjAddr: 0xD360, symBinAddr: 0x10000FF50, symSize: 0x30 }
  - { offsetInCU: 0xB59B4, offset: 0xB59B4, size: 0x8, addend: 0x0, symName: __ZNSt3__121__murmur2_or_cityhashImLm64EEclEPKvm, symObjAddr: 0xD390, symBinAddr: 0x10000FF80, symSize: 0x3D0 }
  - { offsetInCU: 0xB5A55, offset: 0xB5A55, size: 0x8, addend: 0x0, symName: __ZNSt3__121__murmur2_or_cityhashImLm64EE18__hash_len_0_to_16EPKcm, symObjAddr: 0xD760, symBinAddr: 0x100010350, symSize: 0x180 }
  - { offsetInCU: 0xB5B39, offset: 0xB5B39, size: 0x8, addend: 0x0, symName: __ZNSt3__121__murmur2_or_cityhashImLm64EE19__hash_len_17_to_32EPKcm, symObjAddr: 0xD8E0, symBinAddr: 0x1000104D0, symSize: 0x100 }
  - { offsetInCU: 0xB5BA8, offset: 0xB5BA8, size: 0x8, addend: 0x0, symName: __ZNSt3__121__murmur2_or_cityhashImLm64EE19__hash_len_33_to_64EPKcm, symObjAddr: 0xD9E0, symBinAddr: 0x1000105D0, symSize: 0x260 }
  - { offsetInCU: 0xB5C65, offset: 0xB5C65, size: 0x8, addend: 0x0, symName: __ZNSt3__121__murmur2_or_cityhashImLm64EE13__hash_len_16Emm, symObjAddr: 0xDC60, symBinAddr: 0x100010850, symSize: 0x90 }
  - { offsetInCU: 0xB5CC5, offset: 0xB5CC5, size: 0x8, addend: 0x0, symName: __ZNSt3__121__murmur2_or_cityhashImLm64EE29__weak_hash_len_32_with_seedsEPKcmm, symObjAddr: 0xDCF0, symBinAddr: 0x1000108E0, symSize: 0x90 }
  - { offsetInCU: 0xB5D07, offset: 0xB5D07, size: 0x8, addend: 0x0, symName: __ZNSt3__121__murmur2_or_cityhashImLm64EE8__rotateEmi, symObjAddr: 0xDD80, symBinAddr: 0x100010970, symSize: 0x50 }
  - { offsetInCU: 0xB5D3A, offset: 0xB5D3A, size: 0x8, addend: 0x0, symName: __ZNSt3__14pairImmEaSB7v160006EOS1_, symObjAddr: 0xDDD0, symBinAddr: 0x1000109C0, symSize: 0x30 }
  - { offsetInCU: 0xB5D6F, offset: 0xB5D6F, size: 0x8, addend: 0x0, symName: __ZNSt3__121__murmur2_or_cityhashImLm64EE11__shift_mixEm, symObjAddr: 0xDE40, symBinAddr: 0x100010A30, symSize: 0x20 }
  - { offsetInCU: 0xB5D93, offset: 0xB5D93, size: 0x8, addend: 0x0, symName: __ZNSt3__121__murmur2_or_cityhashImLm64EE22__rotate_by_at_least_1Emi, symObjAddr: 0xDE60, symBinAddr: 0x100010A50, symSize: 0x30 }
  - { offsetInCU: 0xB5DC6, offset: 0xB5DC6, size: 0x8, addend: 0x0, symName: __ZNSt3__121__murmur2_or_cityhashImLm64EE29__weak_hash_len_32_with_seedsEmmmmmm, symObjAddr: 0xDEB0, symBinAddr: 0x100010AA0, symSize: 0xD0 }
  - { offsetInCU: 0xB5E4B, offset: 0xB5E4B, size: 0x8, addend: 0x0, symName: __ZNSt3__14pairImmEC1B7v160006ImmLPv0EEEOT_OT0_, symObjAddr: 0xDF80, symBinAddr: 0x100010B70, symSize: 0x30 }
  - { offsetInCU: 0xB5EAB, offset: 0xB5EAB, size: 0x8, addend: 0x0, symName: __ZNSt3__14pairImmEC2B7v160006ImmLPv0EEEOT_OT0_, symObjAddr: 0xDFB0, symBinAddr: 0x100010BA0, symSize: 0x30 }
  - { offsetInCU: 0xB5F0B, offset: 0xB5F0B, size: 0x8, addend: 0x0, symName: __ZNKSt3__112basic_stringIcNS_11char_traitsIcEENS_9allocatorIcEEE13__get_pointerB7v160006Ev, symObjAddr: 0xDFF0, symBinAddr: 0x100010BE0, symSize: 0x50 }
  - { offsetInCU: 0xB5F31, offset: 0xB5F31, size: 0x8, addend: 0x0, symName: __ZNKSt3__112basic_stringIcNS_11char_traitsIcEENS_9allocatorIcEEE18__get_long_pointerB7v160006Ev, symObjAddr: 0xE040, symBinAddr: 0x100010C30, symSize: 0x20 }
  - { offsetInCU: 0xB5F57, offset: 0xB5F57, size: 0x8, addend: 0x0, symName: __ZNKSt3__112basic_stringIcNS_11char_traitsIcEENS_9allocatorIcEEE19__get_short_pointerB7v160006Ev, symObjAddr: 0xE060, symBinAddr: 0x100010C50, symSize: 0x30 }
  - { offsetInCU: 0xB5F7D, offset: 0xB5F7D, size: 0x8, addend: 0x0, symName: __ZNSt3__114pointer_traitsIPKcE10pointer_toB7v160006ERS1_, symObjAddr: 0xE090, symBinAddr: 0x100010C80, symSize: 0x10 }
  - { offsetInCU: 0xB5FA1, offset: 0xB5FA1, size: 0x8, addend: 0x0, symName: __ZNKSt3__110unique_ptrIA_PNS_16__hash_node_baseIPNS_11__hash_nodeINS_17__hash_value_typeINS_12basic_stringIcNS_11char_traitsIcEENS_9allocatorIcEEEES9_EEPvEEEENS_25__bucket_list_deallocatorINS7_ISF_EEEEE11get_deleterB7v160006Ev, symObjAddr: 0xE0A0, symBinAddr: 0x100010C90, symSize: 0x20 }
